; ModuleID = 'Results/gaussian/gaussian.cu'
source_filename = "Results/gaussian/gaussian.cu"
target datalayout = "e-m:e-i64:64-f80:128-n8:16:32:64-S128"
target triple = "x86_64-unknown-linux-gnu"

%struct._IO_FILE = type { i32, i8*, i8*, i8*, i8*, i8*, i8*, i8*, i8*, i8*, i8*, i8*, %struct._IO_marker*, %struct._IO_FILE*, i32, i32, i64, i16, i8, [1 x i8], i8*, i64, i8*, i8*, i8*, i8*, i64, i32, [20 x i8] }
%struct._IO_marker = type { %struct._IO_marker*, %struct._IO_FILE*, i32 }
%struct.timeval = type { i64, i64 }
%struct.timezone = type { i32, i32 }
%struct.dim3 = type { i32, i32, i32 }
%struct.CUstream_st = type opaque
%struct.cudaDeviceProp = type { [256 x i8], i64, i64, i32, i32, i64, i32, [3 x i32], [3 x i32], i32, i64, i32, i32, i64, i64, i32, i32, i32, i32, i32, i32, i32, i32, i32, [2 x i32], [2 x i32], [3 x i32], [2 x i32], [3 x i32], [3 x i32], i32, [2 x i32], [3 x i32], [2 x i32], i32, [2 x i32], [3 x i32], [2 x i32], [3 x i32], i32, [2 x i32], i64, i32, i32, i32, i32, i32, i32, i32, i32, i32, i32, i32, i32, i32, i32, i32, i64, i32, i32, i32, i32 }

@Size = global i32 0, align 4
@a = local_unnamed_addr global float* null, align 8
@b = local_unnamed_addr global float* null, align 8
@finalVec = local_unnamed_addr global float* null, align 8
@m = local_unnamed_addr global float* null, align 8
@fp = local_unnamed_addr global %struct._IO_FILE* null, align 8
@totalKernelTime = local_unnamed_addr global i32 0, align 4
@.str = private unnamed_addr constant [56 x i8] c"WG size of kernel 1 = %d, WG size of kernel 2= %d X %d\0A\00", align 1
@.str.5 = private unnamed_addr constant [68 x i8] c"The first line of the file contains the dimension of the matrix, n.\00", align 1
@.str.7 = private unnamed_addr constant [64 x i8] c"The next n lines contain n tab separated values for the matrix.\00", align 1
@.str.21 = private unnamed_addr constant [47 x i8] c"Create matrix internally in parse, size = %d \0A\00", align 1
@.str.22 = private unnamed_addr constant [20 x i8] c"Read file from %s \0A\00", align 1
@.str.27 = private unnamed_addr constant [49 x i8] c"\0ATime total (including memory transfers)\09%f sec\0A\00", align 1
@.str.28 = private unnamed_addr constant [31 x i8] c"Time for CUDA kernels:\09%f sec\0A\00", align 1
@.str.29 = private unnamed_addr constant [23 x i8] c"Total Device found: %d\00", align 1
@.str.30 = private unnamed_addr constant [22 x i8] c"\0ADevice Name \09\09 - %s \00", align 1
@.str.31 = private unnamed_addr constant [40 x i8] c"\0A**************************************\00", align 1
@.str.32 = private unnamed_addr constant [33 x i8] c"\0ATotal Global Memory\09\09\09 - %lu KB\00", align 1
@.str.33 = private unnamed_addr constant [46 x i8] c"\0AShared memory available per block \09 - %lu KB\00", align 1
@.str.34 = private unnamed_addr constant [45 x i8] c"\0ANumber of registers per thread block \09 - %d\00", align 1
@.str.35 = private unnamed_addr constant [31 x i8] c"\0AWarp size in threads \09\09\09 - %d\00", align 1
@.str.36 = private unnamed_addr constant [31 x i8] c"\0AMemory Pitch \09\09\09\09 - %zu bytes\00", align 1
@.str.37 = private unnamed_addr constant [35 x i8] c"\0AMaximum threads per block \09\09 - %d\00", align 1
@.str.38 = private unnamed_addr constant [47 x i8] c"\0AMaximum Thread Dimension (block) \09 - %d %d %d\00", align 1
@.str.39 = private unnamed_addr constant [46 x i8] c"\0AMaximum Thread Dimension (grid) \09 - %d %d %d\00", align 1
@.str.40 = private unnamed_addr constant [39 x i8] c"\0ATotal constant memory \09\09\09 - %zu bytes\00", align 1
@.str.41 = private unnamed_addr constant [23 x i8] c"\0ACUDA ver \09\09\09\09 - %d.%d\00", align 1
@.str.42 = private unnamed_addr constant [26 x i8] c"\0AClock rate \09\09\09\09 - %d KHz\00", align 1
@.str.43 = private unnamed_addr constant [35 x i8] c"\0ATexture Alignment \09\09\09 - %zu bytes\00", align 1
@.str.44 = private unnamed_addr constant [26 x i8] c"\0ADevice Overlap \09\09\09\09 - %s\00", align 1
@.str.45 = private unnamed_addr constant [8 x i8] c"Allowed\00", align 1
@.str.46 = private unnamed_addr constant [12 x i8] c"Not Allowed\00", align 1
@.str.47 = private unnamed_addr constant [38 x i8] c"\0ANumber of Multi processors \09\09 - %d\0A\0A\00", align 1
@.str.48 = private unnamed_addr constant [4 x i8] c"\0A%s\00", align 1
@.str.49 = private unnamed_addr constant [2 x i8] c"r\00", align 1
@.str.50 = private unnamed_addr constant [3 x i8] c"%d\00", align 1
@.str.51 = private unnamed_addr constant [5 x i8] c"Fan2\00", align 1
@.str.52 = private unnamed_addr constant [3 x i8] c"%f\00", align 1
@.str.53 = private unnamed_addr constant [7 x i8] c"%8.2f \00", align 1
@.str.54 = private unnamed_addr constant [6 x i8] c"%.2f \00", align 1
@stderr = external local_unnamed_addr global %struct._IO_FILE*, align 8
@.str.56 = private unnamed_addr constant [21 x i8] c"Cuda error: %s: %s.\0A\00", align 1
@str = private unnamed_addr constant [24 x i8] c"The final solution is: \00"
@str.57 = private unnamed_addr constant [14 x i8] c"Matrix m is: \00"
@str.58 = private unnamed_addr constant [14 x i8] c"Matrix a is: \00"
@str.59 = private unnamed_addr constant [13 x i8] c"Array b is: \00"
@str.60 = private unnamed_addr constant [44 x i8] c"Usage: gaussian -f filename / -s size [-q]\0A\00"
@str.61 = private unnamed_addr constant [61 x i8] c"-q (quiet) suppresses printing the matrix and result values.\00"
@str.62 = private unnamed_addr constant [33 x i8] c"-f (filename) path of input file\00"
@str.63 = private unnamed_addr constant [65 x i8] c"-s (size) size of matrix. Create matrix and rhs in this program \00"
@str.64 = private unnamed_addr constant [42 x i8] c"The second line of the file is a newline.\00"
@str.65 = private unnamed_addr constant [40 x i8] c"The next line of the file is a newline.\00"
@str.66 = private unnamed_addr constant [69 x i8] c"The next line of the file is a 1xn vector with tab separated values.\00"
@str.67 = private unnamed_addr constant [51 x i8] c"The next line of the file is a newline. (optional)\00"
@str.68 = private unnamed_addr constant [68 x i8] c"The final line of the file is the pre-computed solution. (optional)\00"
@str.69 = private unnamed_addr constant [22 x i8] c"Example: matrix4.txt:\00"
@str.70 = private unnamed_addr constant [2 x i8] c"4\00"
@str.71 = private unnamed_addr constant [18 x i8] c"-0.6\09-0.5\090.7\090.3\00"
@str.72 = private unnamed_addr constant [18 x i8] c"-0.3\09-0.9\090.3\090.7\00"
@str.73 = private unnamed_addr constant [20 x i8] c"-0.4\09-0.5\09-0.3\09-0.8\00"
@str.74 = private unnamed_addr constant [17 x i8] c"0.0\09-0.1\090.2\090.9\00"
@str.75 = private unnamed_addr constant [23 x i8] c"-0.85\09-0.68\090.24\09-0.53\00"
@str.76 = private unnamed_addr constant [18 x i8] c"0.7\090.0\09-0.4\09-0.5\00"
@str.77 = private unnamed_addr constant [2 x i8] c"\0A\00"

; Function Attrs: nounwind uwtable
define void @_Z13create_matrixPfi(float* nocapture %m, i32 %size) local_unnamed_addr #0 !dbg !718 {
entry:
  tail call void @llvm.dbg.value(metadata float* %m, i64 0, metadata !722, metadata !732), !dbg !733
  tail call void @llvm.dbg.value(metadata i32 %size, i64 0, metadata !723, metadata !732), !dbg !734
  tail call void @llvm.dbg.value(metadata float 0xBF847AE140000000, i64 0, metadata !726, metadata !732), !dbg !735
  %mul = shl i32 %size, 1, !dbg !736
  %sub = add nsw i32 %mul, -1, !dbg !737
  %0 = zext i32 %sub to i64, !dbg !738
  %vla = alloca float, i64 %0, align 16, !dbg !738
  tail call void @llvm.dbg.declare(metadata float* %vla, metadata !727, metadata !739), !dbg !740
  tail call void @llvm.dbg.value(metadata float 0.000000e+00, i64 0, metadata !731, metadata !732), !dbg !741
  tail call void @llvm.dbg.value(metadata i32 0, i64 0, metadata !724, metadata !732), !dbg !742
  %cmp60 = icmp sgt i32 %size, 0, !dbg !743
  br i1 %cmp60, label %for.body.lr.ph, label %for.end30, !dbg !747

for.body.lr.ph:                                   ; preds = %entry
  %sub5 = add nsw i32 %size, -1, !dbg !748
  %1 = sext i32 %sub5 to i64, !dbg !747
  %wide.trip.count72 = zext i32 %size to i64, !dbg !747
  br label %for.body, !dbg !747

for.cond10.preheader:                             ; preds = %for.body
  tail call void @llvm.dbg.value(metadata i32 0, i64 0, metadata !724, metadata !732), !dbg !742
  br i1 %cmp60, label %for.cond13.preheader.lr.ph, label %for.end30, !dbg !750

for.cond13.preheader.lr.ph:                       ; preds = %for.cond10.preheader
  %sub16 = add nsw i32 %size, -1, !dbg !754
  %2 = sext i32 %size to i64, !dbg !750
  %3 = zext i32 %sub16 to i64, !dbg !750
  %4 = shl nuw nsw i64 %3, 2, !dbg !750
  %5 = add nuw nsw i64 %4, 4, !dbg !750
  %wide.trip.count = zext i32 %size to i64, !dbg !750
  %6 = add nsw i64 %wide.trip.count, -1, !dbg !750
  %xtraiter = and i64 %wide.trip.count, 3, !dbg !750
  %lcmp.mod = icmp eq i64 %xtraiter, 0, !dbg !750
  br i1 %lcmp.mod, label %for.cond13.preheader.us.prol.loopexit, label %for.cond13.preheader.us.prol.preheader, !dbg !750

for.cond13.preheader.us.prol.preheader:           ; preds = %for.cond13.preheader.lr.ph
  br label %for.cond13.preheader.us.prol, !dbg !750

for.cond13.preheader.us.prol:                     ; preds = %for.cond13.preheader.us.prol, %for.cond13.preheader.us.prol.preheader
  %indvars.iv.prol = phi i64 [ %indvars.iv.next.prol, %for.cond13.preheader.us.prol ], [ 0, %for.cond13.preheader.us.prol.preheader ]
  %prol.iter = phi i64 [ %prol.iter.sub, %for.cond13.preheader.us.prol ], [ %xtraiter, %for.cond13.preheader.us.prol.preheader ]
  tail call void @llvm.dbg.value(metadata i32 0, i64 0, metadata !725, metadata !732), !dbg !759
  %7 = mul nsw i64 %2, %indvars.iv.prol, !dbg !760
  %scevgep.prol = getelementptr float, float* %m, i64 %7, !dbg !760
  %scevgep64.prol = bitcast float* %scevgep.prol to i8*
  %8 = sub i64 %3, %indvars.iv.prol, !dbg !760
  %sext.prol = shl i64 %8, 32, !dbg !760
  %9 = ashr exact i64 %sext.prol, 32, !dbg !760
  %scevgep65.prol = getelementptr float, float* %vla, i64 %9, !dbg !760
  %scevgep6566.prol = bitcast float* %scevgep65.prol to i8*
  call void @llvm.memcpy.p0i8.p0i8.i64(i8* %scevgep64.prol, i8* %scevgep6566.prol, i64 %5, i32 4, i1 false), !dbg !761
  %indvars.iv.next.prol = add nuw nsw i64 %indvars.iv.prol, 1, !dbg !750
  %prol.iter.sub = add i64 %prol.iter, -1, !dbg !750
  %prol.iter.cmp = icmp eq i64 %prol.iter.sub, 0, !dbg !750
  br i1 %prol.iter.cmp, label %for.cond13.preheader.us.prol.loopexit.unr-lcssa, label %for.cond13.preheader.us.prol, !dbg !750, !llvm.loop !762

for.cond13.preheader.us.prol.loopexit.unr-lcssa:  ; preds = %for.cond13.preheader.us.prol
  br label %for.cond13.preheader.us.prol.loopexit, !dbg !750

for.cond13.preheader.us.prol.loopexit:            ; preds = %for.cond13.preheader.lr.ph, %for.cond13.preheader.us.prol.loopexit.unr-lcssa
  %indvars.iv.unr = phi i64 [ 0, %for.cond13.preheader.lr.ph ], [ %indvars.iv.next.prol, %for.cond13.preheader.us.prol.loopexit.unr-lcssa ]
  %10 = icmp ult i64 %6, 3, !dbg !750
  br i1 %10, label %for.end30.loopexit, label %for.cond13.preheader.lr.ph.new, !dbg !750

for.cond13.preheader.lr.ph.new:                   ; preds = %for.cond13.preheader.us.prol.loopexit
  br label %for.cond13.preheader.us, !dbg !750

for.cond13.preheader.us:                          ; preds = %for.cond13.preheader.us, %for.cond13.preheader.lr.ph.new
  %indvars.iv = phi i64 [ %indvars.iv.unr, %for.cond13.preheader.lr.ph.new ], [ %indvars.iv.next.3, %for.cond13.preheader.us ]
  tail call void @llvm.dbg.value(metadata i32 0, i64 0, metadata !725, metadata !732), !dbg !759
  %11 = mul nsw i64 %2, %indvars.iv, !dbg !760
  %scevgep = getelementptr float, float* %m, i64 %11, !dbg !760
  %scevgep64 = bitcast float* %scevgep to i8*
  %12 = sub i64 %3, %indvars.iv, !dbg !760
  %sext = shl i64 %12, 32, !dbg !760
  %13 = ashr exact i64 %sext, 32, !dbg !760
  %scevgep65 = getelementptr float, float* %vla, i64 %13, !dbg !760
  %scevgep6566 = bitcast float* %scevgep65 to i8*
  call void @llvm.memcpy.p0i8.p0i8.i64(i8* %scevgep64, i8* %scevgep6566, i64 %5, i32 4, i1 false), !dbg !761
  %indvars.iv.next = add nuw nsw i64 %indvars.iv, 1, !dbg !750
  tail call void @llvm.dbg.value(metadata i32 0, i64 0, metadata !725, metadata !732), !dbg !759
  %14 = mul nsw i64 %2, %indvars.iv.next, !dbg !760
  %scevgep.1 = getelementptr float, float* %m, i64 %14, !dbg !760
  %scevgep64.1 = bitcast float* %scevgep.1 to i8*
  %15 = sub i64 %3, %indvars.iv.next, !dbg !760
  %sext.1 = shl i64 %15, 32, !dbg !760
  %16 = ashr exact i64 %sext.1, 32, !dbg !760
  %scevgep65.1 = getelementptr float, float* %vla, i64 %16, !dbg !760
  %scevgep6566.1 = bitcast float* %scevgep65.1 to i8*
  call void @llvm.memcpy.p0i8.p0i8.i64(i8* %scevgep64.1, i8* %scevgep6566.1, i64 %5, i32 4, i1 false), !dbg !761
  %indvars.iv.next.1 = add nsw i64 %indvars.iv, 2, !dbg !750
  tail call void @llvm.dbg.value(metadata i32 0, i64 0, metadata !725, metadata !732), !dbg !759
  %17 = mul nsw i64 %2, %indvars.iv.next.1, !dbg !760
  %scevgep.2 = getelementptr float, float* %m, i64 %17, !dbg !760
  %scevgep64.2 = bitcast float* %scevgep.2 to i8*
  %18 = sub i64 %3, %indvars.iv.next.1, !dbg !760
  %sext.2 = shl i64 %18, 32, !dbg !760
  %19 = ashr exact i64 %sext.2, 32, !dbg !760
  %scevgep65.2 = getelementptr float, float* %vla, i64 %19, !dbg !760
  %scevgep6566.2 = bitcast float* %scevgep65.2 to i8*
  call void @llvm.memcpy.p0i8.p0i8.i64(i8* %scevgep64.2, i8* %scevgep6566.2, i64 %5, i32 4, i1 false), !dbg !761
  %indvars.iv.next.2 = add nsw i64 %indvars.iv, 3, !dbg !750
  tail call void @llvm.dbg.value(metadata i32 0, i64 0, metadata !725, metadata !732), !dbg !759
  %20 = mul nsw i64 %2, %indvars.iv.next.2, !dbg !760
  %scevgep.3 = getelementptr float, float* %m, i64 %20, !dbg !760
  %scevgep64.3 = bitcast float* %scevgep.3 to i8*
  %21 = sub i64 %3, %indvars.iv.next.2, !dbg !760
  %sext.3 = shl i64 %21, 32, !dbg !760
  %22 = ashr exact i64 %sext.3, 32, !dbg !760
  %scevgep65.3 = getelementptr float, float* %vla, i64 %22, !dbg !760
  %scevgep6566.3 = bitcast float* %scevgep65.3 to i8*
  call void @llvm.memcpy.p0i8.p0i8.i64(i8* %scevgep64.3, i8* %scevgep6566.3, i64 %5, i32 4, i1 false), !dbg !761
  %indvars.iv.next.3 = add nsw i64 %indvars.iv, 4, !dbg !750
  %exitcond.3 = icmp eq i64 %indvars.iv.next.3, %wide.trip.count, !dbg !750
  br i1 %exitcond.3, label %for.end30.loopexit.unr-lcssa, label %for.cond13.preheader.us, !dbg !750, !llvm.loop !764

for.body:                                         ; preds = %for.body, %for.body.lr.ph
  %indvars.iv68 = phi i64 [ 0, %for.body.lr.ph ], [ %indvars.iv.next69, %for.body ]
  %23 = trunc i64 %indvars.iv68 to i32, !dbg !766
  %conv = sitofp i32 %23 to float, !dbg !766
  %mul1 = fmul float %conv, 0xBF847AE140000000, !dbg !767
  %conv2 = fpext float %mul1 to double, !dbg !768
  %call = tail call double @exp(double %conv2) #8, !dbg !769
  %mul3 = fmul double %call, 1.000000e+01, !dbg !770
  %conv4 = fptrunc double %mul3 to float, !dbg !771
  tail call void @llvm.dbg.value(metadata float %conv4, i64 0, metadata !731, metadata !732), !dbg !741
  %24 = add nsw i64 %indvars.iv68, %1, !dbg !772
  %arrayidx = getelementptr inbounds float, float* %vla, i64 %24, !dbg !773
  store float %conv4, float* %arrayidx, align 4, !dbg !774, !tbaa !775
  %25 = sub nsw i64 %1, %indvars.iv68, !dbg !779
  %arrayidx9 = getelementptr inbounds float, float* %vla, i64 %25, !dbg !780
  store float %conv4, float* %arrayidx9, align 4, !dbg !781, !tbaa !775
  %indvars.iv.next69 = add nuw nsw i64 %indvars.iv68, 1, !dbg !747
  %exitcond73 = icmp eq i64 %indvars.iv.next69, %wide.trip.count72, !dbg !747
  br i1 %exitcond73, label %for.cond10.preheader, label %for.body, !dbg !747, !llvm.loop !782

for.end30.loopexit.unr-lcssa:                     ; preds = %for.cond13.preheader.us
  br label %for.end30.loopexit, !dbg !784

for.end30.loopexit:                               ; preds = %for.cond13.preheader.us.prol.loopexit, %for.end30.loopexit.unr-lcssa
  br label %for.end30, !dbg !784

for.end30:                                        ; preds = %for.end30.loopexit, %entry, %for.cond10.preheader
  ret void, !dbg !784
}

; Function Attrs: nounwind readnone
declare void @llvm.dbg.declare(metadata, metadata, metadata) #1

; Function Attrs: argmemonly nounwind
declare void @llvm.lifetime.start(i64, i8* nocapture) #2

; Function Attrs: nounwind
declare double @exp(double) local_unnamed_addr #3

; Function Attrs: argmemonly nounwind
declare void @llvm.lifetime.end(i64, i8* nocapture) #2

; Function Attrs: norecurse uwtable
define i32 @main(i32 %argc, i8** nocapture readonly %argv) local_unnamed_addr #4 !dbg !785 {
entry:
  %time_start = alloca %struct.timeval, align 8
  %time_end = alloca %struct.timeval, align 8
  tail call void @llvm.dbg.value(metadata i32 %argc, i64 0, metadata !789, metadata !732), !dbg !805
  tail call void @llvm.dbg.value(metadata i8** %argv, i64 0, metadata !790, metadata !732), !dbg !806
  %call = tail call i32 (i8*, ...) @printf(i8* getelementptr inbounds ([56 x i8], [56 x i8]* @.str, i64 0, i64 0), i32 512, i32 4, i32 4), !dbg !807
  tail call void @llvm.dbg.value(metadata i32 1, i64 0, metadata !791, metadata !732), !dbg !808
  %cmp = icmp slt i32 %argc, 2, !dbg !809
  br i1 %cmp, label %if.then, label %for.body.preheader, !dbg !811

for.body.preheader:                               ; preds = %entry
  br label %for.body, !dbg !812

if.then:                                          ; preds = %entry
  %puts111 = tail call i32 @puts(i8* getelementptr inbounds ([44 x i8], [44 x i8]* @str.60, i64 0, i64 0)), !dbg !817
  %puts112 = tail call i32 @puts(i8* getelementptr inbounds ([61 x i8], [61 x i8]* @str.61, i64 0, i64 0)), !dbg !819
  %puts113 = tail call i32 @puts(i8* getelementptr inbounds ([33 x i8], [33 x i8]* @str.62, i64 0, i64 0)), !dbg !820
  %puts114 = tail call i32 @puts(i8* getelementptr inbounds ([65 x i8], [65 x i8]* @str.63, i64 0, i64 0)), !dbg !821
  %call5 = tail call i32 (i8*, ...) @printf(i8* getelementptr inbounds ([68 x i8], [68 x i8]* @.str.5, i64 0, i64 0)), !dbg !822
  %puts115 = tail call i32 @puts(i8* getelementptr inbounds ([42 x i8], [42 x i8]* @str.64, i64 0, i64 0)), !dbg !823
  %call7 = tail call i32 (i8*, ...) @printf(i8* getelementptr inbounds ([64 x i8], [64 x i8]* @.str.7, i64 0, i64 0)), !dbg !824
  %puts116 = tail call i32 @puts(i8* getelementptr inbounds ([40 x i8], [40 x i8]* @str.65, i64 0, i64 0)), !dbg !825
  %puts117 = tail call i32 @puts(i8* getelementptr inbounds ([69 x i8], [69 x i8]* @str.66, i64 0, i64 0)), !dbg !826
  %puts118 = tail call i32 @puts(i8* getelementptr inbounds ([51 x i8], [51 x i8]* @str.67, i64 0, i64 0)), !dbg !827
  %puts119 = tail call i32 @puts(i8* getelementptr inbounds ([68 x i8], [68 x i8]* @str.68, i64 0, i64 0)), !dbg !828
  %puts120 = tail call i32 @puts(i8* getelementptr inbounds ([22 x i8], [22 x i8]* @str.69, i64 0, i64 0)), !dbg !829
  %puts121 = tail call i32 @puts(i8* getelementptr inbounds ([2 x i8], [2 x i8]* @str.70, i64 0, i64 0)), !dbg !830
  %putchar = tail call i32 @putchar(i32 10), !dbg !831
  %puts122 = tail call i32 @puts(i8* getelementptr inbounds ([18 x i8], [18 x i8]* @str.71, i64 0, i64 0)), !dbg !832
  %puts123 = tail call i32 @puts(i8* getelementptr inbounds ([18 x i8], [18 x i8]* @str.72, i64 0, i64 0)), !dbg !833
  %puts124 = tail call i32 @puts(i8* getelementptr inbounds ([20 x i8], [20 x i8]* @str.73, i64 0, i64 0)), !dbg !834
  %puts125 = tail call i32 @puts(i8* getelementptr inbounds ([17 x i8], [17 x i8]* @str.74, i64 0, i64 0)), !dbg !835
  %putchar126 = tail call i32 @putchar(i32 10), !dbg !836
  %puts127 = tail call i32 @puts(i8* getelementptr inbounds ([23 x i8], [23 x i8]* @str.75, i64 0, i64 0)), !dbg !837
  %putchar128 = tail call i32 @putchar(i32 10), !dbg !838
  %puts129 = tail call i32 @puts(i8* getelementptr inbounds ([18 x i8], [18 x i8]* @str.76, i64 0, i64 0)), !dbg !839
  tail call void @exit(i32 0) #9, !dbg !840
  unreachable, !dbg !840

for.body:                                         ; preds = %for.body.preheader, %for.inc60
  %inc61.sink231 = phi i32 [ %inc61, %for.inc60 ], [ 1, %for.body.preheader ]
  %verbose.0230 = phi i32 [ %verbose.1, %for.inc60 ], [ 1, %for.body.preheader ]
  %idxprom = sext i32 %inc61.sink231 to i64, !dbg !812
  %arrayidx = getelementptr inbounds i8*, i8** %argv, i64 %idxprom, !dbg !812
  %0 = load i8*, i8** %arrayidx, align 8, !dbg !812, !tbaa !841
  %1 = load i8, i8* %0, align 1, !dbg !812, !tbaa !843
  %cmp25 = icmp eq i8 %1, 45, !dbg !844
  br i1 %cmp25, label %if.then26, label %for.inc60, !dbg !845

if.then26:                                        ; preds = %for.body
  %arrayidx29 = getelementptr inbounds i8, i8* %0, i64 1, !dbg !846
  %2 = load i8, i8* %arrayidx29, align 1, !dbg !846, !tbaa !843
  tail call void @llvm.dbg.value(metadata i8 %2, i64 0, metadata !794, metadata !732), !dbg !848
  %conv30 = sext i8 %2 to i32, !dbg !849
  switch i32 %conv30, label %for.inc60 [
    i32 115, label %sw.bb
    i32 102, label %sw.bb51
    i32 113, label %sw.bb58
  ], !dbg !850

sw.bb:                                            ; preds = %if.then26
  %inc = add nsw i32 %inc61.sink231, 1, !dbg !851
  tail call void @llvm.dbg.value(metadata i32 %inc, i64 0, metadata !792, metadata !732), !dbg !853
  %idxprom31 = sext i32 %inc to i64, !dbg !854
  %arrayidx32 = getelementptr inbounds i8*, i8** %argv, i64 %idxprom31, !dbg !854
  %3 = load i8*, i8** %arrayidx32, align 8, !dbg !854, !tbaa !841
  tail call void @llvm.dbg.value(metadata i8* %3, i64 0, metadata !444, metadata !732) #8, !dbg !855
  %call.i = tail call i64 @strtol(i8* nocapture nonnull %3, i8** null, i32 10) #8, !dbg !857
  %conv.i = trunc i64 %call.i to i32, !dbg !857
  store i32 %conv.i, i32* @Size, align 4, !dbg !858, !tbaa !859
  %call34 = tail call i32 (i8*, ...) @printf(i8* getelementptr inbounds ([47 x i8], [47 x i8]* @.str.21, i64 0, i64 0), i32 %conv.i), !dbg !861
  %4 = load i32, i32* @Size, align 4, !dbg !862, !tbaa !859
  %mul = mul nsw i32 %4, %4, !dbg !863
  %conv35109 = zext i32 %mul to i64, !dbg !862
  %mul36 = shl nuw nsw i64 %conv35109, 2, !dbg !864
  %call37 = tail call noalias i8* @malloc(i64 %mul36) #8, !dbg !865
  %5 = bitcast i8* %call37 to float*, !dbg !866
  store i8* %call37, i8** bitcast (float** @a to i8**), align 8, !dbg !867, !tbaa !841
  tail call void @_Z13create_matrixPfi(float* %5, i32 %4), !dbg !868
  %6 = load i32, i32* @Size, align 4, !dbg !869, !tbaa !859
  %conv38 = sext i32 %6 to i64, !dbg !873
  %mul39 = shl nsw i64 %conv38, 2, !dbg !874
  %call40 = tail call noalias i8* @malloc(i64 %mul39) #8, !dbg !875
  store i8* %call40, i8** bitcast (float** @b to i8**), align 8, !dbg !876, !tbaa !841
  tail call void @llvm.dbg.value(metadata i32 0, i64 0, metadata !793, metadata !732), !dbg !877
  %cmp42227 = icmp sgt i32 %6, 0, !dbg !878
  %7 = bitcast i8* %call40 to float*, !dbg !879
  br i1 %cmp42227, label %for.body43.preheader, label %for.end, !dbg !880

for.body43.preheader:                             ; preds = %sw.bb
  %min.iters.check = icmp ult i32 %6, 8, !dbg !879
  br i1 %min.iters.check, label %for.body43.preheader250, label %min.iters.checked, !dbg !879

min.iters.checked:                                ; preds = %for.body43.preheader
  %n.vec = and i64 %conv38, -8, !dbg !879
  %cmp.zero = icmp eq i64 %n.vec, 0, !dbg !879
  br i1 %cmp.zero, label %for.body43.preheader250, label %vector.body.preheader, !dbg !879

vector.body.preheader:                            ; preds = %min.iters.checked
  %8 = add nsw i64 %n.vec, -8, !dbg !879
  %9 = lshr exact i64 %8, 3, !dbg !879
  %10 = add nuw nsw i64 %9, 1, !dbg !879
  %xtraiter254 = and i64 %10, 7, !dbg !879
  %lcmp.mod255 = icmp eq i64 %xtraiter254, 0, !dbg !879
  br i1 %lcmp.mod255, label %vector.body.prol.loopexit, label %vector.body.prol.preheader, !dbg !879

vector.body.prol.preheader:                       ; preds = %vector.body.preheader
  br label %vector.body.prol, !dbg !879

vector.body.prol:                                 ; preds = %vector.body.prol, %vector.body.prol.preheader
  %index.prol = phi i64 [ %index.next.prol, %vector.body.prol ], [ 0, %vector.body.prol.preheader ], !dbg !880
  %prol.iter = phi i64 [ %prol.iter.sub, %vector.body.prol ], [ %xtraiter254, %vector.body.prol.preheader ]
  %11 = getelementptr inbounds float, float* %7, i64 %index.prol, !dbg !879
  %12 = bitcast float* %11 to <4 x float>*, !dbg !881
  store <4 x float> <float 1.000000e+00, float 1.000000e+00, float 1.000000e+00, float 1.000000e+00>, <4 x float>* %12, align 4, !dbg !881, !tbaa !775
  %13 = getelementptr float, float* %11, i64 4, !dbg !881
  %14 = bitcast float* %13 to <4 x float>*, !dbg !881
  store <4 x float> <float 1.000000e+00, float 1.000000e+00, float 1.000000e+00, float 1.000000e+00>, <4 x float>* %14, align 4, !dbg !881, !tbaa !775
  %index.next.prol = add i64 %index.prol, 8, !dbg !879
  %prol.iter.sub = add i64 %prol.iter, -1, !dbg !879
  %prol.iter.cmp = icmp eq i64 %prol.iter.sub, 0, !dbg !879
  br i1 %prol.iter.cmp, label %vector.body.prol.loopexit.unr-lcssa, label %vector.body.prol, !dbg !879, !llvm.loop !882

vector.body.prol.loopexit.unr-lcssa:              ; preds = %vector.body.prol
  br label %vector.body.prol.loopexit, !dbg !879

vector.body.prol.loopexit:                        ; preds = %vector.body.preheader, %vector.body.prol.loopexit.unr-lcssa
  %index.unr = phi i64 [ 0, %vector.body.preheader ], [ %index.next.prol, %vector.body.prol.loopexit.unr-lcssa ]
  %15 = icmp ult i64 %8, 56, !dbg !879
  br i1 %15, label %middle.block, label %vector.body.preheader.new, !dbg !879

vector.body.preheader.new:                        ; preds = %vector.body.prol.loopexit
  br label %vector.body, !dbg !879

vector.body:                                      ; preds = %vector.body, %vector.body.preheader.new
  %index = phi i64 [ %index.unr, %vector.body.preheader.new ], [ %index.next.7, %vector.body ], !dbg !880
  %16 = getelementptr inbounds float, float* %7, i64 %index, !dbg !879
  %17 = bitcast float* %16 to <4 x float>*, !dbg !881
  store <4 x float> <float 1.000000e+00, float 1.000000e+00, float 1.000000e+00, float 1.000000e+00>, <4 x float>* %17, align 4, !dbg !881, !tbaa !775
  %18 = getelementptr float, float* %16, i64 4, !dbg !881
  %19 = bitcast float* %18 to <4 x float>*, !dbg !881
  store <4 x float> <float 1.000000e+00, float 1.000000e+00, float 1.000000e+00, float 1.000000e+00>, <4 x float>* %19, align 4, !dbg !881, !tbaa !775
  %index.next = add i64 %index, 8, !dbg !879
  %20 = getelementptr inbounds float, float* %7, i64 %index.next, !dbg !879
  %21 = bitcast float* %20 to <4 x float>*, !dbg !881
  store <4 x float> <float 1.000000e+00, float 1.000000e+00, float 1.000000e+00, float 1.000000e+00>, <4 x float>* %21, align 4, !dbg !881, !tbaa !775
  %22 = getelementptr float, float* %20, i64 4, !dbg !881
  %23 = bitcast float* %22 to <4 x float>*, !dbg !881
  store <4 x float> <float 1.000000e+00, float 1.000000e+00, float 1.000000e+00, float 1.000000e+00>, <4 x float>* %23, align 4, !dbg !881, !tbaa !775
  %index.next.1 = add i64 %index, 16, !dbg !879
  %24 = getelementptr inbounds float, float* %7, i64 %index.next.1, !dbg !879
  %25 = bitcast float* %24 to <4 x float>*, !dbg !881
  store <4 x float> <float 1.000000e+00, float 1.000000e+00, float 1.000000e+00, float 1.000000e+00>, <4 x float>* %25, align 4, !dbg !881, !tbaa !775
  %26 = getelementptr float, float* %24, i64 4, !dbg !881
  %27 = bitcast float* %26 to <4 x float>*, !dbg !881
  store <4 x float> <float 1.000000e+00, float 1.000000e+00, float 1.000000e+00, float 1.000000e+00>, <4 x float>* %27, align 4, !dbg !881, !tbaa !775
  %index.next.2 = add i64 %index, 24, !dbg !879
  %28 = getelementptr inbounds float, float* %7, i64 %index.next.2, !dbg !879
  %29 = bitcast float* %28 to <4 x float>*, !dbg !881
  store <4 x float> <float 1.000000e+00, float 1.000000e+00, float 1.000000e+00, float 1.000000e+00>, <4 x float>* %29, align 4, !dbg !881, !tbaa !775
  %30 = getelementptr float, float* %28, i64 4, !dbg !881
  %31 = bitcast float* %30 to <4 x float>*, !dbg !881
  store <4 x float> <float 1.000000e+00, float 1.000000e+00, float 1.000000e+00, float 1.000000e+00>, <4 x float>* %31, align 4, !dbg !881, !tbaa !775
  %index.next.3 = add i64 %index, 32, !dbg !879
  %32 = getelementptr inbounds float, float* %7, i64 %index.next.3, !dbg !879
  %33 = bitcast float* %32 to <4 x float>*, !dbg !881
  store <4 x float> <float 1.000000e+00, float 1.000000e+00, float 1.000000e+00, float 1.000000e+00>, <4 x float>* %33, align 4, !dbg !881, !tbaa !775
  %34 = getelementptr float, float* %32, i64 4, !dbg !881
  %35 = bitcast float* %34 to <4 x float>*, !dbg !881
  store <4 x float> <float 1.000000e+00, float 1.000000e+00, float 1.000000e+00, float 1.000000e+00>, <4 x float>* %35, align 4, !dbg !881, !tbaa !775
  %index.next.4 = add i64 %index, 40, !dbg !879
  %36 = getelementptr inbounds float, float* %7, i64 %index.next.4, !dbg !879
  %37 = bitcast float* %36 to <4 x float>*, !dbg !881
  store <4 x float> <float 1.000000e+00, float 1.000000e+00, float 1.000000e+00, float 1.000000e+00>, <4 x float>* %37, align 4, !dbg !881, !tbaa !775
  %38 = getelementptr float, float* %36, i64 4, !dbg !881
  %39 = bitcast float* %38 to <4 x float>*, !dbg !881
  store <4 x float> <float 1.000000e+00, float 1.000000e+00, float 1.000000e+00, float 1.000000e+00>, <4 x float>* %39, align 4, !dbg !881, !tbaa !775
  %index.next.5 = add i64 %index, 48, !dbg !879
  %40 = getelementptr inbounds float, float* %7, i64 %index.next.5, !dbg !879
  %41 = bitcast float* %40 to <4 x float>*, !dbg !881
  store <4 x float> <float 1.000000e+00, float 1.000000e+00, float 1.000000e+00, float 1.000000e+00>, <4 x float>* %41, align 4, !dbg !881, !tbaa !775
  %42 = getelementptr float, float* %40, i64 4, !dbg !881
  %43 = bitcast float* %42 to <4 x float>*, !dbg !881
  store <4 x float> <float 1.000000e+00, float 1.000000e+00, float 1.000000e+00, float 1.000000e+00>, <4 x float>* %43, align 4, !dbg !881, !tbaa !775
  %index.next.6 = add i64 %index, 56, !dbg !879
  %44 = getelementptr inbounds float, float* %7, i64 %index.next.6, !dbg !879
  %45 = bitcast float* %44 to <4 x float>*, !dbg !881
  store <4 x float> <float 1.000000e+00, float 1.000000e+00, float 1.000000e+00, float 1.000000e+00>, <4 x float>* %45, align 4, !dbg !881, !tbaa !775
  %46 = getelementptr float, float* %44, i64 4, !dbg !881
  %47 = bitcast float* %46 to <4 x float>*, !dbg !881
  store <4 x float> <float 1.000000e+00, float 1.000000e+00, float 1.000000e+00, float 1.000000e+00>, <4 x float>* %47, align 4, !dbg !881, !tbaa !775
  %index.next.7 = add i64 %index, 64, !dbg !879
  %48 = icmp eq i64 %index.next.7, %n.vec, !dbg !879
  br i1 %48, label %middle.block.unr-lcssa, label %vector.body, !dbg !879, !llvm.loop !883

middle.block.unr-lcssa:                           ; preds = %vector.body
  br label %middle.block

middle.block:                                     ; preds = %vector.body.prol.loopexit, %middle.block.unr-lcssa
  %cmp.n = icmp eq i64 %conv38, %n.vec
  br i1 %cmp.n, label %for.end, label %for.body43.preheader250, !dbg !879

for.body43.preheader250:                          ; preds = %middle.block, %min.iters.checked, %for.body43.preheader
  %indvars.iv243.ph = phi i64 [ 0, %min.iters.checked ], [ 0, %for.body43.preheader ], [ %n.vec, %middle.block ]
  br label %for.body43, !dbg !879

for.body43:                                       ; preds = %for.body43.preheader250, %for.body43
  %indvars.iv243 = phi i64 [ %indvars.iv.next244, %for.body43 ], [ %indvars.iv243.ph, %for.body43.preheader250 ]
  %arrayidx45 = getelementptr inbounds float, float* %7, i64 %indvars.iv243, !dbg !879
  store float 1.000000e+00, float* %arrayidx45, align 4, !dbg !881, !tbaa !775
  %indvars.iv.next244 = add nuw nsw i64 %indvars.iv243, 1, !dbg !880
  %cmp42 = icmp slt i64 %indvars.iv.next244, %conv38, !dbg !878
  br i1 %cmp42, label %for.body43, label %for.end.loopexit, !dbg !880, !llvm.loop !887

for.end.loopexit:                                 ; preds = %for.body43
  br label %for.end, !dbg !889

for.end:                                          ; preds = %for.end.loopexit, %middle.block, %sw.bb
  %mul47 = mul nsw i32 %6, %6, !dbg !889
  %conv48110 = zext i32 %mul47 to i64, !dbg !890
  %mul49 = shl nuw nsw i64 %conv48110, 2, !dbg !891
  %call50 = tail call noalias i8* @malloc(i64 %mul49) #8, !dbg !892
  store i8* %call50, i8** bitcast (float** @m to i8**), align 8, !dbg !893, !tbaa !841
  br label %for.inc60, !dbg !894

sw.bb51:                                          ; preds = %if.then26
  %inc52 = add nsw i32 %inc61.sink231, 1, !dbg !895
  tail call void @llvm.dbg.value(metadata i32 %inc52, i64 0, metadata !792, metadata !732), !dbg !853
  %idxprom53 = sext i32 %inc52 to i64, !dbg !896
  %arrayidx54 = getelementptr inbounds i8*, i8** %argv, i64 %idxprom53, !dbg !896
  %49 = load i8*, i8** %arrayidx54, align 8, !dbg !896, !tbaa !841
  %call55 = tail call i32 (i8*, ...) @printf(i8* getelementptr inbounds ([20 x i8], [20 x i8]* @.str.22, i64 0, i64 0), i8* %49), !dbg !897
  %50 = load i8*, i8** %arrayidx54, align 8, !dbg !898, !tbaa !841
  tail call void @_Z15InitProblemOncePc(i8* %50), !dbg !899
  br label %for.inc60, !dbg !900

sw.bb58:                                          ; preds = %if.then26
  tail call void @llvm.dbg.value(metadata i32 0, i64 0, metadata !791, metadata !732), !dbg !808
  br label %for.inc60, !dbg !901

for.inc60:                                        ; preds = %for.body, %if.then26, %sw.bb58, %sw.bb51, %for.end
  %i.0 = phi i32 [ %inc61.sink231, %if.then26 ], [ %inc61.sink231, %sw.bb58 ], [ %inc52, %sw.bb51 ], [ %inc, %for.end ], [ %inc61.sink231, %for.body ]
  %verbose.1 = phi i32 [ %verbose.0230, %if.then26 ], [ 0, %sw.bb58 ], [ %verbose.0230, %sw.bb51 ], [ %verbose.0230, %for.end ], [ %verbose.0230, %for.body ]
  %inc61 = add nsw i32 %i.0, 1, !dbg !902
  tail call void @llvm.dbg.value(metadata i32 %inc61, i64 0, metadata !792, metadata !732), !dbg !853
  %cmp23 = icmp slt i32 %inc61, %argc, !dbg !904
  br i1 %cmp23, label %for.body, label %for.end62, !dbg !906, !llvm.loop !907

for.end62:                                        ; preds = %for.inc60
  tail call void @llvm.dbg.value(metadata i32 0, i64 0, metadata !909, metadata !732) #8, !dbg !912
  %51 = load i32, i32* @Size, align 4, !dbg !914, !tbaa !859
  %mul4.i = mul nsw i32 %51, %51, !dbg !918
  %cmp5.i = icmp eq i32 %mul4.i, 0, !dbg !919
  br i1 %cmp5.i, label %_Z10InitPerRunv.exit, label %for.body.lr.ph.i, !dbg !920

for.body.lr.ph.i:                                 ; preds = %for.end62
  %52 = load i8*, i8** bitcast (float** @m to i8**), align 8, !dbg !921, !tbaa !841
  %53 = add nsw i32 %mul4.i, -1, !dbg !920
  %54 = zext i32 %53 to i64, !dbg !920
  %55 = shl nuw nsw i64 %54, 2, !dbg !920
  %56 = add nuw nsw i64 %55, 4, !dbg !920
  tail call void @llvm.memset.p0i8.i64(i8* %52, i8 0, i64 %56, i32 4, i1 false) #8, !dbg !922
  br label %_Z10InitPerRunv.exit, !dbg !923

_Z10InitPerRunv.exit:                             ; preds = %for.end62, %for.body.lr.ph.i
  %57 = bitcast %struct.timeval* %time_start to i8*, !dbg !924
  call void @llvm.lifetime.start(i64 16, i8* %57) #8, !dbg !924
  tail call void @llvm.dbg.value(metadata %struct.timeval* %time_start, i64 0, metadata !795, metadata !739), !dbg !925
  %call63 = call i32 @gettimeofday(%struct.timeval* nonnull %time_start, %struct.timezone* null) #8, !dbg !926
  tail call void @_Z10ForwardSubv(), !dbg !927
  %58 = bitcast %struct.timeval* %time_end to i8*, !dbg !928
  call void @llvm.lifetime.start(i64 16, i8* %58) #8, !dbg !928
  tail call void @llvm.dbg.value(metadata %struct.timeval* %time_end, i64 0, metadata !803, metadata !739), !dbg !929
  %call64 = call i32 @gettimeofday(%struct.timeval* nonnull %time_end, %struct.timezone* null) #8, !dbg !930
  %tv_sec = getelementptr inbounds %struct.timeval, %struct.timeval* %time_end, i64 0, i32 0, !dbg !931
  %59 = load i64, i64* %tv_sec, align 8, !dbg !931, !tbaa !932
  %tv_usec = getelementptr inbounds %struct.timeval, %struct.timeval* %time_end, i64 0, i32 1, !dbg !935
  %60 = load i64, i64* %tv_usec, align 8, !dbg !935, !tbaa !936
  %tv_sec66 = getelementptr inbounds %struct.timeval, %struct.timeval* %time_start, i64 0, i32 0, !dbg !937
  %61 = load i64, i64* %tv_sec66, align 8, !dbg !937, !tbaa !932
  %tv_usec68 = getelementptr inbounds %struct.timeval, %struct.timeval* %time_start, i64 0, i32 1, !dbg !938
  %62 = load i64, i64* %tv_usec68, align 8, !dbg !938, !tbaa !936
  %tmp = sub i64 %59, %61
  %tmp224 = mul i64 %tmp, 1000000
  %add = sub i64 %60, %62, !dbg !939
  %sub = add i64 %add, %tmp224, !dbg !940
  %conv70 = trunc i64 %sub to i32, !dbg !941
  tail call void @llvm.dbg.value(metadata i32 %conv70, i64 0, metadata !804, metadata !732), !dbg !942
  %tobool = icmp eq i32 %verbose.1, 0, !dbg !943
  br i1 %tobool, label %if.end79.critedge, label %if.then71, !dbg !945

if.then71:                                        ; preds = %_Z10InitPerRunv.exit
  %puts106 = tail call i32 @puts(i8* getelementptr inbounds ([14 x i8], [14 x i8]* @str.57, i64 0, i64 0)), !dbg !946
  %63 = load float*, float** @m, align 8, !dbg !948, !tbaa !841
  %64 = load i32, i32* @Size, align 4, !dbg !949, !tbaa !859
  tail call void @llvm.dbg.value(metadata float* %63, i64 0, metadata !950, metadata !732), !dbg !959
  tail call void @llvm.dbg.value(metadata i32 %64, i64 0, metadata !955, metadata !732), !dbg !961
  tail call void @llvm.dbg.value(metadata i32 %64, i64 0, metadata !956, metadata !732), !dbg !962
  tail call void @llvm.dbg.value(metadata i32 0, i64 0, metadata !957, metadata !732), !dbg !963
  %cmp20.i = icmp sgt i32 %64, 0, !dbg !964
  br i1 %cmp20.i, label %for.cond1.preheader.us.preheader.i, label %_Z8PrintMatPfii.exit, !dbg !968

for.cond1.preheader.us.preheader.i:               ; preds = %if.then71
  %wide.trip.count.i = zext i32 %64 to i64, !dbg !969
  br label %for.cond1.preheader.us.i, !dbg !974

for.cond1.preheader.us.i:                         ; preds = %for.cond1.for.end_crit_edge.us.i, %for.cond1.preheader.us.preheader.i
  %inc8.sink21.us.i = phi i32 [ %inc8.us.i, %for.cond1.for.end_crit_edge.us.i ], [ 0, %for.cond1.preheader.us.preheader.i ], !dbg !975
  tail call void @llvm.dbg.value(metadata i32 0, i64 0, metadata !958, metadata !732), !dbg !974
  br label %for.body3.us.i, !dbg !969

for.body3.us.i:                                   ; preds = %for.body3.us.i, %for.cond1.preheader.us.i
  %indvars.iv.i133 = phi i64 [ 0, %for.cond1.preheader.us.i ], [ %indvars.iv.next.i134, %for.body3.us.i ], !dbg !975
  %65 = load i32, i32* @Size, align 4, !dbg !976, !tbaa !859
  %mul.us.i = mul nsw i32 %65, %inc8.sink21.us.i, !dbg !978
  %idx.ext.us.i = sext i32 %mul.us.i to i64, !dbg !979
  %add.ptr.us.i = getelementptr inbounds float, float* %63, i64 %idx.ext.us.i, !dbg !979
  %add.ptr5.us.i = getelementptr inbounds float, float* %add.ptr.us.i, i64 %indvars.iv.i133, !dbg !980
  %66 = load float, float* %add.ptr5.us.i, align 4, !dbg !981, !tbaa !775
  %conv.us.i = fpext float %66 to double, !dbg !981
  %call.us.i = tail call i32 (i8*, ...) @printf(i8* getelementptr inbounds ([7 x i8], [7 x i8]* @.str.53, i64 0, i64 0), double %conv.us.i), !dbg !982
  %indvars.iv.next.i134 = add nuw nsw i64 %indvars.iv.i133, 1, !dbg !969
  %exitcond.i135 = icmp eq i64 %indvars.iv.next.i134, %wide.trip.count.i, !dbg !969
  br i1 %exitcond.i135, label %for.cond1.for.end_crit_edge.us.i, label %for.body3.us.i, !dbg !969, !llvm.loop !983

for.cond1.for.end_crit_edge.us.i:                 ; preds = %for.body3.us.i
  %putchar17.us.i = tail call i32 @putchar(i32 10), !dbg !985
  %inc8.us.i = add nuw nsw i32 %inc8.sink21.us.i, 1, !dbg !986
  tail call void @llvm.dbg.value(metadata i32 %inc8.us.i, i64 0, metadata !957, metadata !732), !dbg !963
  %exitcond24.i = icmp eq i32 %inc8.us.i, %64, !dbg !968
  br i1 %exitcond24.i, label %_Z8PrintMatPfii.exit.loopexit, label %for.cond1.preheader.us.i, !dbg !968, !llvm.loop !988

_Z8PrintMatPfii.exit.loopexit:                    ; preds = %for.cond1.for.end_crit_edge.us.i
  br label %_Z8PrintMatPfii.exit, !dbg !990

_Z8PrintMatPfii.exit:                             ; preds = %_Z8PrintMatPfii.exit.loopexit, %if.then71
  %putchar.i = tail call i32 @putchar(i32 10), !dbg !990
  %puts107 = tail call i32 @puts(i8* getelementptr inbounds ([14 x i8], [14 x i8]* @str.58, i64 0, i64 0)), !dbg !991
  %67 = load float*, float** @a, align 8, !dbg !992, !tbaa !841
  %68 = load i32, i32* @Size, align 4, !dbg !993, !tbaa !859
  tail call void @llvm.dbg.value(metadata float* %67, i64 0, metadata !950, metadata !732), !dbg !994
  tail call void @llvm.dbg.value(metadata i32 %68, i64 0, metadata !955, metadata !732), !dbg !996
  tail call void @llvm.dbg.value(metadata i32 %68, i64 0, metadata !956, metadata !732), !dbg !997
  tail call void @llvm.dbg.value(metadata i32 0, i64 0, metadata !957, metadata !732), !dbg !998
  %cmp20.i136 = icmp sgt i32 %68, 0, !dbg !999
  br i1 %cmp20.i136, label %for.cond1.preheader.us.preheader.i140, label %_Z8PrintMatPfii.exit163, !dbg !1000

for.cond1.preheader.us.preheader.i140:            ; preds = %_Z8PrintMatPfii.exit
  %wide.trip.count.i139 = zext i32 %68 to i64, !dbg !1001
  br label %for.cond1.preheader.us.i142, !dbg !1002

for.cond1.preheader.us.i142:                      ; preds = %for.cond1.for.end_crit_edge.us.i156, %for.cond1.preheader.us.preheader.i140
  %inc8.sink21.us.i141 = phi i32 [ %inc8.us.i154, %for.cond1.for.end_crit_edge.us.i156 ], [ 0, %for.cond1.preheader.us.preheader.i140 ], !dbg !1003
  tail call void @llvm.dbg.value(metadata i32 0, i64 0, metadata !958, metadata !732), !dbg !1002
  br label %for.body3.us.i152, !dbg !1001

for.body3.us.i152:                                ; preds = %for.body3.us.i152, %for.cond1.preheader.us.i142
  %indvars.iv.i143 = phi i64 [ 0, %for.cond1.preheader.us.i142 ], [ %indvars.iv.next.i150, %for.body3.us.i152 ], !dbg !1003
  %69 = load i32, i32* @Size, align 4, !dbg !1004, !tbaa !859
  %mul.us.i144 = mul nsw i32 %69, %inc8.sink21.us.i141, !dbg !1005
  %idx.ext.us.i145 = sext i32 %mul.us.i144 to i64, !dbg !1006
  %add.ptr.us.i146 = getelementptr inbounds float, float* %67, i64 %idx.ext.us.i145, !dbg !1006
  %add.ptr5.us.i147 = getelementptr inbounds float, float* %add.ptr.us.i146, i64 %indvars.iv.i143, !dbg !1007
  %70 = load float, float* %add.ptr5.us.i147, align 4, !dbg !1008, !tbaa !775
  %conv.us.i148 = fpext float %70 to double, !dbg !1008
  %call.us.i149 = tail call i32 (i8*, ...) @printf(i8* getelementptr inbounds ([7 x i8], [7 x i8]* @.str.53, i64 0, i64 0), double %conv.us.i148), !dbg !1009
  %indvars.iv.next.i150 = add nuw nsw i64 %indvars.iv.i143, 1, !dbg !1001
  %exitcond.i151 = icmp eq i64 %indvars.iv.next.i150, %wide.trip.count.i139, !dbg !1001
  br i1 %exitcond.i151, label %for.cond1.for.end_crit_edge.us.i156, label %for.body3.us.i152, !dbg !1001, !llvm.loop !983

for.cond1.for.end_crit_edge.us.i156:              ; preds = %for.body3.us.i152
  %putchar17.us.i153 = tail call i32 @putchar(i32 10), !dbg !1010
  %inc8.us.i154 = add nuw nsw i32 %inc8.sink21.us.i141, 1, !dbg !1011
  tail call void @llvm.dbg.value(metadata i32 %inc8.us.i154, i64 0, metadata !957, metadata !732), !dbg !998
  %exitcond24.i155 = icmp eq i32 %inc8.us.i154, %68, !dbg !1000
  br i1 %exitcond24.i155, label %_Z8PrintMatPfii.exit163.loopexit, label %for.cond1.preheader.us.i142, !dbg !1000, !llvm.loop !988

_Z8PrintMatPfii.exit163.loopexit:                 ; preds = %for.cond1.for.end_crit_edge.us.i156
  br label %_Z8PrintMatPfii.exit163, !dbg !1012

_Z8PrintMatPfii.exit163:                          ; preds = %_Z8PrintMatPfii.exit163.loopexit, %_Z8PrintMatPfii.exit
  %putchar.i162 = tail call i32 @putchar(i32 10), !dbg !1012
  %puts108 = tail call i32 @puts(i8* getelementptr inbounds ([13 x i8], [13 x i8]* @str.59, i64 0, i64 0)), !dbg !1013
  %71 = load float*, float** @b, align 8, !dbg !1014, !tbaa !841
  %72 = load i32, i32* @Size, align 4, !dbg !1015, !tbaa !859
  tail call void @llvm.dbg.value(metadata float* %71, i64 0, metadata !1016, metadata !732) #8, !dbg !1021
  tail call void @llvm.dbg.value(metadata i32 %72, i64 0, metadata !1019, metadata !732) #8, !dbg !1023
  tail call void @llvm.dbg.value(metadata i32 0, i64 0, metadata !1020, metadata !732) #8, !dbg !1024
  %cmp5.i164 = icmp sgt i32 %72, 0, !dbg !1025
  br i1 %cmp5.i164, label %for.body.preheader.i, label %_Z8PrintAryPfi.exit, !dbg !1029

for.body.preheader.i:                             ; preds = %_Z8PrintMatPfii.exit163
  %wide.trip.count.i165 = zext i32 %72 to i64, !dbg !1029
  br label %for.body.i172, !dbg !1030

for.body.i172:                                    ; preds = %for.body.i172, %for.body.preheader.i
  %indvars.iv.i166 = phi i64 [ %indvars.iv.next.i170, %for.body.i172 ], [ 0, %for.body.preheader.i ], !dbg !1032
  %arrayidx.i167 = getelementptr inbounds float, float* %71, i64 %indvars.iv.i166, !dbg !1030
  %73 = load float, float* %arrayidx.i167, align 4, !dbg !1030, !tbaa !775
  %conv.i168 = fpext float %73 to double, !dbg !1030
  %call.i169 = tail call i32 (i8*, ...) @printf(i8* getelementptr inbounds ([6 x i8], [6 x i8]* @.str.54, i64 0, i64 0), double %conv.i168) #8, !dbg !1033
  %indvars.iv.next.i170 = add nuw nsw i64 %indvars.iv.i166, 1, !dbg !1029
  %exitcond.i171 = icmp eq i64 %indvars.iv.next.i170, %wide.trip.count.i165, !dbg !1029
  br i1 %exitcond.i171, label %_Z8PrintAryPfi.exit.loopexit, label %for.body.i172, !dbg !1029, !llvm.loop !1034

_Z8PrintAryPfi.exit.loopexit:                     ; preds = %for.body.i172
  br label %_Z8PrintAryPfi.exit, !dbg !1036

_Z8PrintAryPfi.exit:                              ; preds = %_Z8PrintAryPfi.exit.loopexit, %_Z8PrintMatPfii.exit163
  %puts.i = tail call i32 @puts(i8* getelementptr inbounds ([2 x i8], [2 x i8]* @str.77, i64 0, i64 0)) #8, !dbg !1036
  %74 = load i32, i32* @Size, align 4, !dbg !1037, !tbaa !859
  %conv.i174 = sext i32 %74 to i64, !dbg !1046
  %mul.i175 = shl nsw i64 %conv.i174, 2, !dbg !1047
  %call.i176 = tail call noalias i8* @malloc(i64 %mul.i175) #8, !dbg !1048
  store i8* %call.i176, i8** bitcast (float** @finalVec to i8**), align 8, !dbg !1049, !tbaa !841
  tail call void @llvm.dbg.value(metadata i32 0, i64 0, metadata !1043, metadata !732) #8, !dbg !1050
  %cmp66.i177 = icmp sgt i32 %74, 0, !dbg !1051
  %75 = bitcast i8* %call.i176 to float*, !dbg !1052
  br i1 %cmp66.i177, label %for.body.lr.ph.i179, label %_Z7BackSubv.exit210, !dbg !1054

for.body.lr.ph.i179:                              ; preds = %_Z8PrintAryPfi.exit
  %76 = load float*, float** @b, align 8, !dbg !1055, !tbaa !841
  %77 = load float*, float** @a, align 8, !dbg !1056
  %sub12.i178 = add i32 %74, -1, !dbg !1060
  %wide.trip.count241 = zext i32 %74 to i64, !dbg !1054
  %idx.ext14.i195.prol = sext i32 %sub12.i178 to i64, !dbg !1061
  %arrayidx19.i197.prol = getelementptr inbounds float, float* %75, i64 %idx.ext14.i195.prol, !dbg !1062
  br label %for.body.i191, !dbg !1054

for.body.i191:                                    ; preds = %for.end.i209, %for.body.lr.ph.i179
  %indvars.iv236 = phi i64 [ %indvars.iv.next237, %for.end.i209 ], [ 0, %for.body.lr.ph.i179 ], !dbg !1063
  %78 = sub nsw i64 %conv.i174, %indvars.iv236, !dbg !1064
  %79 = add nsw i64 %78, -1, !dbg !1065
  %arrayidx.i185 = getelementptr inbounds float, float* %76, i64 %79, !dbg !1055
  %80 = bitcast float* %arrayidx.i185 to i32*, !dbg !1055
  %81 = load i32, i32* %80, align 4, !dbg !1055, !tbaa !775
  %arrayidx5.i186 = getelementptr inbounds float, float* %75, i64 %79, !dbg !1052
  %82 = bitcast float* %arrayidx5.i186 to i32*, !dbg !1066
  store i32 %81, i32* %82, align 4, !dbg !1066, !tbaa !775
  tail call void @llvm.dbg.value(metadata i32 0, i64 0, metadata !1044, metadata !732) #8, !dbg !1067
  %cmp761.i187 = icmp sgt i64 %indvars.iv236, 0, !dbg !1068
  %83 = mul nsw i64 %79, %conv.i174, !dbg !1070
  %.cast.i190 = bitcast i32 %81 to float, !dbg !1071
  br i1 %cmp761.i187, label %for.body8.lr.ph.i192, label %for.end.i209, !dbg !1072

for.body8.lr.ph.i192:                             ; preds = %for.body.i191
  %84 = getelementptr inbounds float, float* %77, i64 %83, !dbg !1073
  %xtraiter251 = and i64 %indvars.iv236, 1, !dbg !1072
  %lcmp.mod252 = icmp eq i64 %xtraiter251, 0, !dbg !1072
  br i1 %lcmp.mod252, label %for.body8.i202.prol.loopexit.unr-lcssa, label %for.body8.i202.prol.preheader, !dbg !1072

for.body8.i202.prol.preheader:                    ; preds = %for.body8.lr.ph.i192
  br label %for.body8.i202.prol, !dbg !1072

for.body8.i202.prol:                              ; preds = %for.body8.i202.prol.preheader
  %add.ptr15.i196.prol = getelementptr inbounds float, float* %84, i64 %idx.ext14.i195.prol, !dbg !1061
  %85 = load float, float* %add.ptr15.i196.prol, align 4, !dbg !1074, !tbaa !775
  %86 = load float, float* %arrayidx19.i197.prol, align 4, !dbg !1062, !tbaa !775
  %mul20.i198.prol = fmul float %85, %86, !dbg !1075
  %sub25.i199.prol = fsub float %.cast.i190, %mul20.i198.prol, !dbg !1071
  store float %sub25.i199.prol, float* %arrayidx5.i186, align 4, !dbg !1071, !tbaa !775
  br label %for.body8.i202.prol.loopexit.unr-lcssa, !dbg !1072

for.body8.i202.prol.loopexit.unr-lcssa:           ; preds = %for.body8.lr.ph.i192, %for.body8.i202.prol
  %sub25.i199.lcssa.unr.ph = phi float [ %sub25.i199.prol, %for.body8.i202.prol ], [ undef, %for.body8.lr.ph.i192 ]
  %indvars.iv.i193.unr.ph = phi i64 [ 1, %for.body8.i202.prol ], [ 0, %for.body8.lr.ph.i192 ]
  %.unr253.ph = phi float [ %sub25.i199.prol, %for.body8.i202.prol ], [ %.cast.i190, %for.body8.lr.ph.i192 ]
  br label %for.body8.i202.prol.loopexit, !dbg !1072

for.body8.i202.prol.loopexit:                     ; preds = %for.body8.i202.prol.loopexit.unr-lcssa
  %87 = icmp eq i64 %indvars.iv236, 1, !dbg !1072
  br i1 %87, label %for.end.i209.loopexit, label %for.body8.lr.ph.i192.new, !dbg !1072

for.body8.lr.ph.i192.new:                         ; preds = %for.body8.i202.prol.loopexit
  br label %for.body8.i202, !dbg !1072

for.body8.i202:                                   ; preds = %for.body8.i202, %for.body8.lr.ph.i192.new
  %indvars.iv.i193 = phi i64 [ %indvars.iv.i193.unr.ph, %for.body8.lr.ph.i192.new ], [ %indvars.iv.next.i200.1, %for.body8.i202 ], !dbg !1063
  %88 = phi float [ %.unr253.ph, %for.body8.lr.ph.i192.new ], [ %sub25.i199.1, %for.body8.i202 ], !dbg !1063
  %89 = trunc i64 %indvars.iv.i193 to i32, !dbg !1076
  %sub13.i194 = sub i32 %sub12.i178, %89, !dbg !1076
  %idx.ext14.i195 = sext i32 %sub13.i194 to i64, !dbg !1061
  %add.ptr15.i196 = getelementptr inbounds float, float* %84, i64 %idx.ext14.i195, !dbg !1061
  %90 = load float, float* %add.ptr15.i196, align 4, !dbg !1074, !tbaa !775
  %arrayidx19.i197 = getelementptr inbounds float, float* %75, i64 %idx.ext14.i195, !dbg !1062
  %91 = load float, float* %arrayidx19.i197, align 4, !dbg !1062, !tbaa !775
  %mul20.i198 = fmul float %90, %91, !dbg !1075
  %sub25.i199 = fsub float %88, %mul20.i198, !dbg !1071
  store float %sub25.i199, float* %arrayidx5.i186, align 4, !dbg !1071, !tbaa !775
  %indvars.iv.next.i200 = add nuw nsw i64 %indvars.iv.i193, 1, !dbg !1072
  %92 = trunc i64 %indvars.iv.next.i200 to i32, !dbg !1076
  %sub13.i194.1 = sub i32 %sub12.i178, %92, !dbg !1076
  %idx.ext14.i195.1 = sext i32 %sub13.i194.1 to i64, !dbg !1061
  %add.ptr15.i196.1 = getelementptr inbounds float, float* %84, i64 %idx.ext14.i195.1, !dbg !1061
  %93 = load float, float* %add.ptr15.i196.1, align 4, !dbg !1074, !tbaa !775
  %arrayidx19.i197.1 = getelementptr inbounds float, float* %75, i64 %idx.ext14.i195.1, !dbg !1062
  %94 = load float, float* %arrayidx19.i197.1, align 4, !dbg !1062, !tbaa !775
  %mul20.i198.1 = fmul float %93, %94, !dbg !1075
  %sub25.i199.1 = fsub float %sub25.i199, %mul20.i198.1, !dbg !1071
  store float %sub25.i199.1, float* %arrayidx5.i186, align 4, !dbg !1071, !tbaa !775
  %indvars.iv.next.i200.1 = add nsw i64 %indvars.iv.i193, 2, !dbg !1072
  %exitcond.i201.1 = icmp eq i64 %indvars.iv.next.i200.1, %indvars.iv236, !dbg !1072
  br i1 %exitcond.i201.1, label %for.end.i209.loopexit.unr-lcssa, label %for.body8.i202, !dbg !1072, !llvm.loop !1077

for.end.i209.loopexit.unr-lcssa:                  ; preds = %for.body8.i202
  br label %for.end.i209.loopexit, !dbg !1073

for.end.i209.loopexit:                            ; preds = %for.body8.i202.prol.loopexit, %for.end.i209.loopexit.unr-lcssa
  %sub25.i199.lcssa = phi float [ %sub25.i199.lcssa.unr.ph, %for.body8.i202.prol.loopexit ], [ %sub25.i199.1, %for.end.i209.loopexit.unr-lcssa ]
  br label %for.end.i209, !dbg !1073

for.end.i209:                                     ; preds = %for.end.i209.loopexit, %for.body.i191
  %.lcssa.i203 = phi float [ %.cast.i190, %for.body.i191 ], [ %sub25.i199.lcssa, %for.end.i209.loopexit ], !dbg !1063
  %95 = getelementptr inbounds float, float* %77, i64 %83, !dbg !1073
  %add.ptr38.i204 = getelementptr inbounds float, float* %95, i64 %79, !dbg !1079
  %96 = load float, float* %add.ptr38.i204, align 4, !dbg !1080, !tbaa !775
  %div.i205 = fdiv float %.lcssa.i203, %96, !dbg !1081
  store float %div.i205, float* %arrayidx5.i186, align 4, !dbg !1082, !tbaa !775
  %indvars.iv.next237 = add nuw nsw i64 %indvars.iv236, 1, !dbg !1054
  %exitcond242 = icmp eq i64 %indvars.iv.next237, %wide.trip.count241, !dbg !1054
  br i1 %exitcond242, label %_Z7BackSubv.exit210.loopexit, label %for.body.i191, !dbg !1054, !llvm.loop !1083

_Z7BackSubv.exit210.loopexit:                     ; preds = %for.end.i209
  br label %_Z7BackSubv.exit210, !dbg !1085

_Z7BackSubv.exit210:                              ; preds = %_Z7BackSubv.exit210.loopexit, %_Z8PrintAryPfi.exit
  %puts = tail call i32 @puts(i8* getelementptr inbounds ([24 x i8], [24 x i8]* @str, i64 0, i64 0)), !dbg !1085
  %97 = load float*, float** @finalVec, align 8, !dbg !1088, !tbaa !841
  %98 = load i32, i32* @Size, align 4, !dbg !1089, !tbaa !859
  tail call void @llvm.dbg.value(metadata float* %97, i64 0, metadata !1016, metadata !732) #8, !dbg !1090
  tail call void @llvm.dbg.value(metadata i32 %98, i64 0, metadata !1019, metadata !732) #8, !dbg !1092
  tail call void @llvm.dbg.value(metadata i32 0, i64 0, metadata !1020, metadata !732) #8, !dbg !1093
  %cmp5.i211 = icmp sgt i32 %98, 0, !dbg !1094
  br i1 %cmp5.i211, label %for.body.preheader.i213, label %_Z8PrintAryPfi.exit223, !dbg !1095

for.body.preheader.i213:                          ; preds = %_Z7BackSubv.exit210
  %wide.trip.count.i212 = zext i32 %98 to i64, !dbg !1095
  br label %for.body.i220, !dbg !1096

for.body.i220:                                    ; preds = %for.body.i220, %for.body.preheader.i213
  %indvars.iv.i214 = phi i64 [ %indvars.iv.next.i218, %for.body.i220 ], [ 0, %for.body.preheader.i213 ], !dbg !1097
  %arrayidx.i215 = getelementptr inbounds float, float* %97, i64 %indvars.iv.i214, !dbg !1096
  %99 = load float, float* %arrayidx.i215, align 4, !dbg !1096, !tbaa !775
  %conv.i216 = fpext float %99 to double, !dbg !1096
  %call.i217 = tail call i32 (i8*, ...) @printf(i8* getelementptr inbounds ([6 x i8], [6 x i8]* @.str.54, i64 0, i64 0), double %conv.i216) #8, !dbg !1098
  %indvars.iv.next.i218 = add nuw nsw i64 %indvars.iv.i214, 1, !dbg !1095
  %exitcond.i219 = icmp eq i64 %indvars.iv.next.i218, %wide.trip.count.i212, !dbg !1095
  br i1 %exitcond.i219, label %_Z8PrintAryPfi.exit223.loopexit, label %for.body.i220, !dbg !1095, !llvm.loop !1034

_Z8PrintAryPfi.exit223.loopexit:                  ; preds = %for.body.i220
  br label %_Z8PrintAryPfi.exit223, !dbg !1099

_Z8PrintAryPfi.exit223:                           ; preds = %_Z8PrintAryPfi.exit223.loopexit, %_Z7BackSubv.exit210
  %puts.i221 = tail call i32 @puts(i8* getelementptr inbounds ([2 x i8], [2 x i8]* @str.77, i64 0, i64 0)) #8, !dbg !1099
  br label %if.end79, !dbg !1100

if.end79.critedge:                                ; preds = %_Z10InitPerRunv.exit
  %100 = load i32, i32* @Size, align 4, !dbg !1101, !tbaa !859
  %conv.i130 = sext i32 %100 to i64, !dbg !1103
  %mul.i = shl nsw i64 %conv.i130, 2, !dbg !1104
  %call.i131 = tail call noalias i8* @malloc(i64 %mul.i) #8, !dbg !1105
  store i8* %call.i131, i8** bitcast (float** @finalVec to i8**), align 8, !dbg !1106, !tbaa !841
  tail call void @llvm.dbg.value(metadata i32 0, i64 0, metadata !1043, metadata !732) #8, !dbg !1107
  %cmp66.i = icmp sgt i32 %100, 0, !dbg !1108
  %101 = bitcast i8* %call.i131 to float*, !dbg !1109
  br i1 %cmp66.i, label %for.body.lr.ph.i132, label %if.end79, !dbg !1110

for.body.lr.ph.i132:                              ; preds = %if.end79.critedge
  %102 = load float*, float** @b, align 8, !dbg !1111, !tbaa !841
  %103 = load float*, float** @a, align 8, !dbg !1112
  %sub12.i = add i32 %100, -1, !dbg !1113
  %wide.trip.count = zext i32 %100 to i64, !dbg !1110
  %idx.ext14.i.prol = sext i32 %sub12.i to i64, !dbg !1114
  %arrayidx19.i.prol = getelementptr inbounds float, float* %101, i64 %idx.ext14.i.prol, !dbg !1115
  br label %for.body.i, !dbg !1110

for.body.i:                                       ; preds = %for.end.i, %for.body.lr.ph.i132
  %indvars.iv = phi i64 [ %indvars.iv.next, %for.end.i ], [ 0, %for.body.lr.ph.i132 ], !dbg !1063
  %104 = sub nsw i64 %conv.i130, %indvars.iv, !dbg !1116
  %105 = add nsw i64 %104, -1, !dbg !1117
  %arrayidx.i = getelementptr inbounds float, float* %102, i64 %105, !dbg !1111
  %106 = bitcast float* %arrayidx.i to i32*, !dbg !1111
  %107 = load i32, i32* %106, align 4, !dbg !1111, !tbaa !775
  %arrayidx5.i = getelementptr inbounds float, float* %101, i64 %105, !dbg !1109
  %108 = bitcast float* %arrayidx5.i to i32*, !dbg !1118
  store i32 %107, i32* %108, align 4, !dbg !1118, !tbaa !775
  tail call void @llvm.dbg.value(metadata i32 0, i64 0, metadata !1044, metadata !732) #8, !dbg !1119
  %cmp761.i = icmp sgt i64 %indvars.iv, 0, !dbg !1120
  %109 = mul nsw i64 %105, %conv.i130, !dbg !1121
  %.cast.i = bitcast i32 %107 to float, !dbg !1122
  br i1 %cmp761.i, label %for.body8.lr.ph.i, label %for.end.i, !dbg !1123

for.body8.lr.ph.i:                                ; preds = %for.body.i
  %110 = getelementptr inbounds float, float* %103, i64 %109, !dbg !1124
  %xtraiter = and i64 %indvars.iv, 1, !dbg !1123
  %lcmp.mod = icmp eq i64 %xtraiter, 0, !dbg !1123
  br i1 %lcmp.mod, label %for.body8.i.prol.loopexit.unr-lcssa, label %for.body8.i.prol.preheader, !dbg !1123

for.body8.i.prol.preheader:                       ; preds = %for.body8.lr.ph.i
  br label %for.body8.i.prol, !dbg !1123

for.body8.i.prol:                                 ; preds = %for.body8.i.prol.preheader
  %add.ptr15.i.prol = getelementptr inbounds float, float* %110, i64 %idx.ext14.i.prol, !dbg !1114
  %111 = load float, float* %add.ptr15.i.prol, align 4, !dbg !1125, !tbaa !775
  %112 = load float, float* %arrayidx19.i.prol, align 4, !dbg !1115, !tbaa !775
  %mul20.i.prol = fmul float %111, %112, !dbg !1126
  %sub25.i.prol = fsub float %.cast.i, %mul20.i.prol, !dbg !1122
  store float %sub25.i.prol, float* %arrayidx5.i, align 4, !dbg !1122, !tbaa !775
  br label %for.body8.i.prol.loopexit.unr-lcssa, !dbg !1123

for.body8.i.prol.loopexit.unr-lcssa:              ; preds = %for.body8.lr.ph.i, %for.body8.i.prol
  %sub25.i.lcssa.unr.ph = phi float [ %sub25.i.prol, %for.body8.i.prol ], [ undef, %for.body8.lr.ph.i ]
  %indvars.iv.i.unr.ph = phi i64 [ 1, %for.body8.i.prol ], [ 0, %for.body8.lr.ph.i ]
  %.unr.ph = phi float [ %sub25.i.prol, %for.body8.i.prol ], [ %.cast.i, %for.body8.lr.ph.i ]
  br label %for.body8.i.prol.loopexit, !dbg !1123

for.body8.i.prol.loopexit:                        ; preds = %for.body8.i.prol.loopexit.unr-lcssa
  %113 = icmp eq i64 %indvars.iv, 1, !dbg !1123
  br i1 %113, label %for.end.i.loopexit, label %for.body8.lr.ph.i.new, !dbg !1123

for.body8.lr.ph.i.new:                            ; preds = %for.body8.i.prol.loopexit
  br label %for.body8.i, !dbg !1123

for.body8.i:                                      ; preds = %for.body8.i, %for.body8.lr.ph.i.new
  %indvars.iv.i = phi i64 [ %indvars.iv.i.unr.ph, %for.body8.lr.ph.i.new ], [ %indvars.iv.next.i.1, %for.body8.i ], !dbg !1063
  %114 = phi float [ %.unr.ph, %for.body8.lr.ph.i.new ], [ %sub25.i.1, %for.body8.i ], !dbg !1063
  %115 = trunc i64 %indvars.iv.i to i32, !dbg !1127
  %sub13.i = sub i32 %sub12.i, %115, !dbg !1127
  %idx.ext14.i = sext i32 %sub13.i to i64, !dbg !1114
  %add.ptr15.i = getelementptr inbounds float, float* %110, i64 %idx.ext14.i, !dbg !1114
  %116 = load float, float* %add.ptr15.i, align 4, !dbg !1125, !tbaa !775
  %arrayidx19.i = getelementptr inbounds float, float* %101, i64 %idx.ext14.i, !dbg !1115
  %117 = load float, float* %arrayidx19.i, align 4, !dbg !1115, !tbaa !775
  %mul20.i = fmul float %116, %117, !dbg !1126
  %sub25.i = fsub float %114, %mul20.i, !dbg !1122
  store float %sub25.i, float* %arrayidx5.i, align 4, !dbg !1122, !tbaa !775
  %indvars.iv.next.i = add nuw nsw i64 %indvars.iv.i, 1, !dbg !1123
  %118 = trunc i64 %indvars.iv.next.i to i32, !dbg !1127
  %sub13.i.1 = sub i32 %sub12.i, %118, !dbg !1127
  %idx.ext14.i.1 = sext i32 %sub13.i.1 to i64, !dbg !1114
  %add.ptr15.i.1 = getelementptr inbounds float, float* %110, i64 %idx.ext14.i.1, !dbg !1114
  %119 = load float, float* %add.ptr15.i.1, align 4, !dbg !1125, !tbaa !775
  %arrayidx19.i.1 = getelementptr inbounds float, float* %101, i64 %idx.ext14.i.1, !dbg !1115
  %120 = load float, float* %arrayidx19.i.1, align 4, !dbg !1115, !tbaa !775
  %mul20.i.1 = fmul float %119, %120, !dbg !1126
  %sub25.i.1 = fsub float %sub25.i, %mul20.i.1, !dbg !1122
  store float %sub25.i.1, float* %arrayidx5.i, align 4, !dbg !1122, !tbaa !775
  %indvars.iv.next.i.1 = add nsw i64 %indvars.iv.i, 2, !dbg !1123
  %exitcond.i.1 = icmp eq i64 %indvars.iv.next.i.1, %indvars.iv, !dbg !1123
  br i1 %exitcond.i.1, label %for.end.i.loopexit.unr-lcssa, label %for.body8.i, !dbg !1123, !llvm.loop !1077

for.end.i.loopexit.unr-lcssa:                     ; preds = %for.body8.i
  br label %for.end.i.loopexit, !dbg !1124

for.end.i.loopexit:                               ; preds = %for.body8.i.prol.loopexit, %for.end.i.loopexit.unr-lcssa
  %sub25.i.lcssa = phi float [ %sub25.i.lcssa.unr.ph, %for.body8.i.prol.loopexit ], [ %sub25.i.1, %for.end.i.loopexit.unr-lcssa ]
  br label %for.end.i, !dbg !1124

for.end.i:                                        ; preds = %for.end.i.loopexit, %for.body.i
  %.lcssa.i = phi float [ %.cast.i, %for.body.i ], [ %sub25.i.lcssa, %for.end.i.loopexit ], !dbg !1063
  %121 = getelementptr inbounds float, float* %103, i64 %109, !dbg !1124
  %add.ptr38.i = getelementptr inbounds float, float* %121, i64 %105, !dbg !1128
  %122 = load float, float* %add.ptr38.i, align 4, !dbg !1129, !tbaa !775
  %div.i = fdiv float %.lcssa.i, %122, !dbg !1130
  store float %div.i, float* %arrayidx5.i, align 4, !dbg !1131, !tbaa !775
  %indvars.iv.next = add nuw nsw i64 %indvars.iv, 1, !dbg !1110
  %exitcond = icmp eq i64 %indvars.iv.next, %wide.trip.count, !dbg !1110
  br i1 %exitcond, label %if.end79.loopexit, label %for.body.i, !dbg !1110, !llvm.loop !1083

if.end79.loopexit:                                ; preds = %for.end.i
  br label %if.end79, !dbg !1132

if.end79:                                         ; preds = %if.end79.loopexit, %if.end79.critedge, %_Z8PrintAryPfi.exit223
  %conv80 = uitofp i32 %conv70 to double, !dbg !1132
  %mul81 = fmul double %conv80, 1.000000e-06, !dbg !1133
  %call82 = tail call i32 (i8*, ...) @printf(i8* getelementptr inbounds ([49 x i8], [49 x i8]* @.str.27, i64 0, i64 0), double %mul81), !dbg !1134
  %123 = load i32, i32* @totalKernelTime, align 4, !dbg !1135, !tbaa !859
  %conv83 = uitofp i32 %123 to double, !dbg !1135
  %mul84 = fmul double %conv83, 1.000000e-06, !dbg !1136
  %call85 = tail call i32 (i8*, ...) @printf(i8* getelementptr inbounds ([31 x i8], [31 x i8]* @.str.28, i64 0, i64 0), double %mul84), !dbg !1137
  %124 = load i8*, i8** bitcast (float** @m to i8**), align 8, !dbg !1138, !tbaa !841
  tail call void @free(i8* %124) #8, !dbg !1139
  %125 = load i8*, i8** bitcast (float** @a to i8**), align 8, !dbg !1140, !tbaa !841
  tail call void @free(i8* %125) #8, !dbg !1141
  %126 = load i8*, i8** bitcast (float** @b to i8**), align 8, !dbg !1142, !tbaa !841
  tail call void @free(i8* %126) #8, !dbg !1143
  call void @llvm.lifetime.end(i64 16, i8* %58) #8, !dbg !1144
  call void @llvm.lifetime.end(i64 16, i8* %57) #8, !dbg !1144
  ret i32 0, !dbg !1144
}

; Function Attrs: nounwind
declare i32 @printf(i8* nocapture readonly, ...) local_unnamed_addr #3

; Function Attrs: noreturn nounwind
declare void @exit(i32) local_unnamed_addr #5

; Function Attrs: nounwind
declare noalias i8* @malloc(i64) local_unnamed_addr #3

; Function Attrs: nounwind uwtable
define void @_Z15InitProblemOncePc(i8* nocapture readonly %filename) local_unnamed_addr #0 !dbg !1145 {
entry:
  tail call void @llvm.dbg.value(metadata i8* %filename, i64 0, metadata !1149, metadata !732), !dbg !1150
  %call = tail call %struct._IO_FILE* @fopen(i8* %filename, i8* getelementptr inbounds ([2 x i8], [2 x i8]* @.str.49, i64 0, i64 0)), !dbg !1151
  store %struct._IO_FILE* %call, %struct._IO_FILE** @fp, align 8, !dbg !1152, !tbaa !841
  %call1 = tail call i32 (%struct._IO_FILE*, i8*, ...) @fscanf(%struct._IO_FILE* %call, i8* getelementptr inbounds ([3 x i8], [3 x i8]* @.str.50, i64 0, i64 0), i32* nonnull @Size), !dbg !1153
  %0 = load i32, i32* @Size, align 4, !dbg !1154, !tbaa !859
  %mul = mul nsw i32 %0, %0, !dbg !1155
  %conv11 = zext i32 %mul to i64, !dbg !1154
  %mul2 = shl nuw nsw i64 %conv11, 2, !dbg !1156
  %call3 = tail call noalias i8* @malloc(i64 %mul2) #8, !dbg !1157
  %1 = bitcast i8* %call3 to float*, !dbg !1158
  store i8* %call3, i8** bitcast (float** @a to i8**), align 8, !dbg !1159, !tbaa !841
  tail call void @llvm.dbg.value(metadata float* %1, i64 0, metadata !1160, metadata !732) #8, !dbg !1167
  tail call void @llvm.dbg.value(metadata i32 %0, i64 0, metadata !1163, metadata !732) #8, !dbg !1169
  tail call void @llvm.dbg.value(metadata i32 %0, i64 0, metadata !1164, metadata !732) #8, !dbg !1170
  tail call void @llvm.dbg.value(metadata i32 0, i64 0, metadata !1165, metadata !732) #8, !dbg !1171
  %cmp17.i = icmp sgt i32 %0, 0, !dbg !1172
  br i1 %cmp17.i, label %for.cond1.preheader.us.preheader.i, label %_Z7InitMatPfii.exit, !dbg !1176

for.cond1.preheader.us.preheader.i:               ; preds = %entry
  %wide.trip.count.i = zext i32 %0 to i64, !dbg !1177
  br label %for.cond1.preheader.us.i, !dbg !1182

for.cond1.preheader.us.i:                         ; preds = %for.cond1.for.inc6_crit_edge.us.i, %for.cond1.preheader.us.preheader.i
  %inc7.sink18.us.i = phi i32 [ %inc7.us.i, %for.cond1.for.inc6_crit_edge.us.i ], [ 0, %for.cond1.preheader.us.preheader.i ], !dbg !1183
  tail call void @llvm.dbg.value(metadata i32 0, i64 0, metadata !1166, metadata !732) #8, !dbg !1182
  br label %for.body3.us.i, !dbg !1177

for.body3.us.i:                                   ; preds = %for.body3.us.i, %for.cond1.preheader.us.i
  %indvars.iv.i = phi i64 [ 0, %for.cond1.preheader.us.i ], [ %indvars.iv.next.i, %for.body3.us.i ], !dbg !1183
  %2 = load %struct._IO_FILE*, %struct._IO_FILE** @fp, align 8, !dbg !1184, !tbaa !841
  %3 = load i32, i32* @Size, align 4, !dbg !1186, !tbaa !859
  %mul.us.i = mul nsw i32 %3, %inc7.sink18.us.i, !dbg !1187
  %idx.ext.us.i = sext i32 %mul.us.i to i64, !dbg !1188
  %add.ptr.us.i = getelementptr inbounds float, float* %1, i64 %idx.ext.us.i, !dbg !1188
  %add.ptr5.us.i = getelementptr inbounds float, float* %add.ptr.us.i, i64 %indvars.iv.i, !dbg !1189
  %call.us.i = tail call i32 (%struct._IO_FILE*, i8*, ...) @fscanf(%struct._IO_FILE* %2, i8* getelementptr inbounds ([3 x i8], [3 x i8]* @.str.52, i64 0, i64 0), float* %add.ptr5.us.i) #8, !dbg !1190
  %indvars.iv.next.i = add nuw nsw i64 %indvars.iv.i, 1, !dbg !1177
  %exitcond.i = icmp eq i64 %indvars.iv.next.i, %wide.trip.count.i, !dbg !1177
  br i1 %exitcond.i, label %for.cond1.for.inc6_crit_edge.us.i, label %for.body3.us.i, !dbg !1177, !llvm.loop !1191

for.cond1.for.inc6_crit_edge.us.i:                ; preds = %for.body3.us.i
  %inc7.us.i = add nuw nsw i32 %inc7.sink18.us.i, 1, !dbg !1193
  tail call void @llvm.dbg.value(metadata i32 %inc7.us.i, i64 0, metadata !1165, metadata !732) #8, !dbg !1171
  %exitcond21.i = icmp eq i32 %inc7.us.i, %0, !dbg !1176
  br i1 %exitcond21.i, label %_Z7InitMatPfii.exitthread-pre-split, label %for.cond1.preheader.us.i, !dbg !1176, !llvm.loop !1195

_Z7InitMatPfii.exitthread-pre-split:              ; preds = %for.cond1.for.inc6_crit_edge.us.i
  %.pr = load i32, i32* @Size, align 4, !dbg !1197, !tbaa !859
  br label %_Z7InitMatPfii.exit, !dbg !1197

_Z7InitMatPfii.exit:                              ; preds = %_Z7InitMatPfii.exitthread-pre-split, %entry
  %4 = phi i32 [ %.pr, %_Z7InitMatPfii.exitthread-pre-split ], [ %0, %entry ], !dbg !1197
  %conv4 = sext i32 %4 to i64, !dbg !1197
  %mul5 = shl nsw i64 %conv4, 2, !dbg !1198
  %call6 = tail call noalias i8* @malloc(i64 %mul5) #8, !dbg !1199
  %5 = bitcast i8* %call6 to float*, !dbg !1200
  store i8* %call6, i8** bitcast (float** @b to i8**), align 8, !dbg !1201, !tbaa !841
  tail call void @llvm.dbg.value(metadata float* %5, i64 0, metadata !1202, metadata !732) #8, !dbg !1207
  tail call void @llvm.dbg.value(metadata i32 %4, i64 0, metadata !1205, metadata !732) #8, !dbg !1209
  tail call void @llvm.dbg.value(metadata i32 0, i64 0, metadata !1206, metadata !732) #8, !dbg !1210
  %cmp4.i = icmp sgt i32 %4, 0, !dbg !1211
  br i1 %cmp4.i, label %for.body.preheader.i, label %_Z7InitAryPfi.exit, !dbg !1215

for.body.preheader.i:                             ; preds = %_Z7InitMatPfii.exit
  %wide.trip.count.i13 = zext i32 %4 to i64, !dbg !1215
  br label %for.body.i, !dbg !1216

for.body.i:                                       ; preds = %for.body.i, %for.body.preheader.i
  %indvars.iv.i14 = phi i64 [ %indvars.iv.next.i15, %for.body.i ], [ 0, %for.body.preheader.i ], !dbg !1218
  %6 = load %struct._IO_FILE*, %struct._IO_FILE** @fp, align 8, !dbg !1216, !tbaa !841
  %arrayidx.i = getelementptr inbounds float, float* %5, i64 %indvars.iv.i14, !dbg !1219
  %call.i = tail call i32 (%struct._IO_FILE*, i8*, ...) @fscanf(%struct._IO_FILE* %6, i8* getelementptr inbounds ([3 x i8], [3 x i8]* @.str.52, i64 0, i64 0), float* %arrayidx.i) #8, !dbg !1220
  %indvars.iv.next.i15 = add nuw nsw i64 %indvars.iv.i14, 1, !dbg !1215
  %exitcond.i16 = icmp eq i64 %indvars.iv.next.i15, %wide.trip.count.i13, !dbg !1215
  br i1 %exitcond.i16, label %_Z7InitAryPfi.exit.loopexit, label %for.body.i, !dbg !1215, !llvm.loop !1221

_Z7InitAryPfi.exit.loopexit:                      ; preds = %for.body.i
  %.pre = load i32, i32* @Size, align 4, !dbg !1223, !tbaa !859
  br label %_Z7InitAryPfi.exit, !dbg !1223

_Z7InitAryPfi.exit:                               ; preds = %_Z7InitAryPfi.exit.loopexit, %_Z7InitMatPfii.exit
  %7 = phi i32 [ %.pre, %_Z7InitAryPfi.exit.loopexit ], [ %4, %_Z7InitMatPfii.exit ], !dbg !1223
  %mul7 = mul nsw i32 %7, %7, !dbg !1224
  %conv812 = zext i32 %mul7 to i64, !dbg !1223
  %mul9 = shl nuw nsw i64 %conv812, 2, !dbg !1225
  %call10 = tail call noalias i8* @malloc(i64 %mul9) #8, !dbg !1226
  store i8* %call10, i8** bitcast (float** @m to i8**), align 8, !dbg !1227, !tbaa !841
  ret void, !dbg !1228
}

; Function Attrs: nounwind uwtable
define void @_Z10InitPerRunv() local_unnamed_addr #0 !dbg !910 {
entry:
  tail call void @llvm.dbg.value(metadata i32 0, i64 0, metadata !909, metadata !732), !dbg !1229
  %0 = load i32, i32* @Size, align 4, !dbg !1230, !tbaa !859
  %mul4 = mul nsw i32 %0, %0, !dbg !1231
  %cmp5 = icmp eq i32 %mul4, 0, !dbg !1232
  br i1 %cmp5, label %for.end, label %for.body.lr.ph, !dbg !1233

for.body.lr.ph:                                   ; preds = %entry
  %1 = load i8*, i8** bitcast (float** @m to i8**), align 8, !dbg !1234, !tbaa !841
  %2 = add nsw i32 %mul4, -1, !dbg !1233
  %3 = zext i32 %2 to i64, !dbg !1233
  %4 = shl nuw nsw i64 %3, 2, !dbg !1233
  %5 = add nuw nsw i64 %4, 4, !dbg !1233
  call void @llvm.memset.p0i8.i64(i8* %1, i8 0, i64 %5, i32 4, i1 false), !dbg !1235
  br label %for.end, !dbg !1236

for.end:                                          ; preds = %for.body.lr.ph, %entry
  ret void, !dbg !1236
}

; Function Attrs: nounwind
declare i32 @gettimeofday(%struct.timeval* nocapture, %struct.timezone* nocapture) local_unnamed_addr #3

; Function Attrs: uwtable
define void @_Z10ForwardSubv() local_unnamed_addr #6 !dbg !1237 {
entry:
  %m_cuda = alloca float*, align 8
  %a_cuda = alloca float*, align 8
  %b_cuda = alloca float*, align 8
  %time_start = alloca %struct.timeval, align 8
  %time_end = alloca %struct.timeval, align 8
  %0 = bitcast float** %m_cuda to i8*, !dbg !1276
  call void @llvm.lifetime.start(i64 8, i8* %0) #8, !dbg !1276
  %1 = bitcast float** %a_cuda to i8*, !dbg !1276
  call void @llvm.lifetime.start(i64 8, i8* %1) #8, !dbg !1276
  %2 = bitcast float** %b_cuda to i8*, !dbg !1276
  call void @llvm.lifetime.start(i64 8, i8* %2) #8, !dbg !1276
  %3 = bitcast float** %m_cuda to i8**, !dbg !1277
  %4 = load i32, i32* @Size, align 4, !dbg !1278, !tbaa !859
  %mul = mul nsw i32 %4, %4, !dbg !1279
  %conv87 = zext i32 %mul to i64, !dbg !1278
  %mul1 = shl nuw nsw i64 %conv87, 2, !dbg !1280
  %call = call i32 @cudaMalloc(i8** %3, i64 %mul1), !dbg !1281
  %5 = bitcast float** %a_cuda to i8**, !dbg !1282
  %6 = load i32, i32* @Size, align 4, !dbg !1283, !tbaa !859
  %mul2 = mul nsw i32 %6, %6, !dbg !1284
  %conv388 = zext i32 %mul2 to i64, !dbg !1283
  %mul4 = shl nuw nsw i64 %conv388, 2, !dbg !1285
  %call5 = call i32 @cudaMalloc(i8** %5, i64 %mul4), !dbg !1286
  %7 = bitcast float** %b_cuda to i8**, !dbg !1287
  %8 = load i32, i32* @Size, align 4, !dbg !1288, !tbaa !859
  %conv6 = sext i32 %8 to i64, !dbg !1288
  %mul7 = shl nsw i64 %conv6, 2, !dbg !1289
  %call8 = call i32 @cudaMalloc(i8** %7, i64 %mul7), !dbg !1290
  %9 = load i8*, i8** %3, align 8, !dbg !1291, !tbaa !841
  %10 = load i8*, i8** bitcast (float** @m to i8**), align 8, !dbg !1292, !tbaa !841
  %11 = load i32, i32* @Size, align 4, !dbg !1293, !tbaa !859
  %mul9 = mul nsw i32 %11, %11, !dbg !1294
  %conv1089 = zext i32 %mul9 to i64, !dbg !1293
  %mul11 = shl nuw nsw i64 %conv1089, 2, !dbg !1295
  %call12 = call i32 @cudaMemcpy(i8* %9, i8* %10, i64 %mul11, i32 1), !dbg !1296
  %12 = load i8*, i8** %5, align 8, !dbg !1297, !tbaa !841
  %13 = load i8*, i8** bitcast (float** @a to i8**), align 8, !dbg !1298, !tbaa !841
  %14 = load i32, i32* @Size, align 4, !dbg !1299, !tbaa !859
  %mul13 = mul nsw i32 %14, %14, !dbg !1300
  %conv1490 = zext i32 %mul13 to i64, !dbg !1299
  %mul15 = shl nuw nsw i64 %conv1490, 2, !dbg !1301
  %call16 = call i32 @cudaMemcpy(i8* %12, i8* %13, i64 %mul15, i32 1), !dbg !1302
  %15 = load i8*, i8** %7, align 8, !dbg !1303, !tbaa !841
  %16 = load i8*, i8** bitcast (float** @b to i8**), align 8, !dbg !1304, !tbaa !841
  %17 = load i32, i32* @Size, align 4, !dbg !1305, !tbaa !859
  %conv17 = sext i32 %17 to i64, !dbg !1305
  %mul18 = shl nsw i64 %conv17, 2, !dbg !1306
  %call19 = call i32 @cudaMemcpy(i8* %15, i8* %16, i64 %mul18, i32 1), !dbg !1307
  call void @llvm.dbg.value(metadata i32 512, i64 0, metadata !1243, metadata !732), !dbg !1308
  %18 = load i32, i32* @Size, align 4, !dbg !1309, !tbaa !859
  call void @llvm.dbg.value(metadata i32 %add, i64 0, metadata !1244, metadata !732), !dbg !1310
  call void @llvm.dbg.value(metadata %struct.dim3* undef, i64 0, metadata !1245, metadata !739), !dbg !1311
  call void @llvm.dbg.value(metadata %struct.dim3* undef, i64 0, metadata !1269, metadata !739), !dbg !1312
  call void @llvm.dbg.value(metadata i32 4, i64 0, metadata !1270, metadata !732), !dbg !1313
  call void @llvm.dbg.value(metadata i32 %add27, i64 0, metadata !1271, metadata !732), !dbg !1314
  call void @llvm.dbg.value(metadata %struct.dim3* undef, i64 0, metadata !1272, metadata !739), !dbg !1315
  call void @llvm.dbg.value(metadata %struct.dim3* undef, i64 0, metadata !1273, metadata !739), !dbg !1316
  %19 = bitcast %struct.timeval* %time_start to i8*, !dbg !1317
  call void @llvm.lifetime.start(i64 16, i8* %19) #8, !dbg !1317
  call void @llvm.dbg.value(metadata %struct.timeval* %time_start, i64 0, metadata !1274, metadata !739), !dbg !1318
  %call28 = call i32 @gettimeofday(%struct.timeval* nonnull %time_start, %struct.timezone* null) #8, !dbg !1319
  call void @llvm.dbg.value(metadata i32 0, i64 0, metadata !1239, metadata !732), !dbg !1320
  %20 = load i32, i32* @Size, align 4, !dbg !1321, !tbaa !859
  %cmp122 = icmp sgt i32 %20, 1, !dbg !1325
  br i1 %cmp122, label %for.body.lr.ph, label %for.end, !dbg !1326

for.body.lr.ph:                                   ; preds = %entry
  %rem2192 = and i32 %18, 3, !dbg !1327
  %lnot25 = icmp ne i32 %rem2192, 0, !dbg !1328
  %conv26 = zext i1 %lnot25 to i32, !dbg !1329
  %div20 = sdiv i32 %18, 4, !dbg !1330
  %add27 = add nsw i32 %conv26, %div20, !dbg !1331
  %rem91 = and i32 %18, 511, !dbg !1332
  %not.lnot = icmp ne i32 %rem91, 0, !dbg !1333
  %cond = zext i1 %not.lnot to i32, !dbg !1333
  %div = sdiv i32 %18, 512, !dbg !1334
  %add = add nsw i32 %cond, %div, !dbg !1335
  %dimGrid.sroa.0.sroa.0.0.insert.ext = zext i32 %add to i64, !dbg !1336
  %dimGrid.sroa.0.sroa.0.0.insert.insert = or i64 %dimGrid.sroa.0.sroa.0.0.insert.ext, 4294967296, !dbg !1336
  %dimGridXY.sroa.0.sroa.4.0.insert.ext = zext i32 %add27 to i64, !dbg !1338
  %dimGridXY.sroa.0.sroa.4.0.insert.shift = shl nuw i64 %dimGridXY.sroa.0.sroa.4.0.insert.ext, 32, !dbg !1338
  %dimGridXY.sroa.0.sroa.0.0.insert.insert = or i64 %dimGridXY.sroa.0.sroa.4.0.insert.shift, %dimGridXY.sroa.0.sroa.4.0.insert.ext, !dbg !1338
  br label %for.body, !dbg !1326

for.cond:                                         ; preds = %kcall.end39
  call void @llvm.dbg.value(metadata i32 %inc, i64 0, metadata !1239, metadata !732), !dbg !1320
  %21 = load i32, i32* @Size, align 4, !dbg !1321, !tbaa !859
  %sub = add nsw i32 %21, -1, !dbg !1339
  %cmp = icmp slt i32 %inc, %sub, !dbg !1325
  br i1 %cmp, label %for.body, label %for.end.loopexit, !dbg !1326, !llvm.loop !1340

for.body:                                         ; preds = %for.body.lr.ph, %for.cond
  %inc.sink123 = phi i32 [ 0, %for.body.lr.ph ], [ %inc, %for.cond ]
  %call30 = call i32 @cudaConfigureCall(i64 %dimGrid.sroa.0.sroa.0.0.insert.insert, i32 1, i64 4294967808, i32 1, i64 0, %struct.CUstream_st* null), !dbg !1342
  %tobool31 = icmp eq i32 %call30, 0, !dbg !1342
  br i1 %tobool31, label %kcall.configok, label %kcall.end, !dbg !1343

kcall.configok:                                   ; preds = %for.body
  %22 = load float*, float** %m_cuda, align 8, !dbg !1344, !tbaa !841
  call void @llvm.dbg.value(metadata float* %22, i64 0, metadata !1240, metadata !732), !dbg !1346
  %23 = load float*, float** %a_cuda, align 8, !dbg !1347, !tbaa !841
  call void @llvm.dbg.value(metadata float* %23, i64 0, metadata !1241, metadata !732), !dbg !1348
  %24 = load i32, i32* @Size, align 4, !dbg !1349, !tbaa !859
  call void @_Z4Fan1PfS_ii(float* %22, float* %23, i32 %24, i32 %inc.sink123), !dbg !1350
  br label %kcall.end, !dbg !1350

kcall.end:                                        ; preds = %for.body, %kcall.configok
  %call32 = call i32 @cudaThreadSynchronize(), !dbg !1351
  %call35 = call i32 @cudaConfigureCall(i64 %dimGridXY.sroa.0.sroa.0.0.insert.insert, i32 1, i64 17179869188, i32 1, i64 0, %struct.CUstream_st* null), !dbg !1352
  %tobool36 = icmp eq i32 %call35, 0, !dbg !1352
  br i1 %tobool36, label %kcall.configok37, label %kcall.end39, !dbg !1353

kcall.configok37:                                 ; preds = %kcall.end
  %25 = load float*, float** %m_cuda, align 8, !dbg !1354, !tbaa !841
  call void @llvm.dbg.value(metadata float* %25, i64 0, metadata !1240, metadata !732), !dbg !1346
  %26 = load float*, float** %a_cuda, align 8, !dbg !1355, !tbaa !841
  call void @llvm.dbg.value(metadata float* %26, i64 0, metadata !1241, metadata !732), !dbg !1348
  %27 = load float*, float** %b_cuda, align 8, !dbg !1356, !tbaa !841
  call void @llvm.dbg.value(metadata float* %27, i64 0, metadata !1242, metadata !732), !dbg !1357
  %28 = load i32, i32* @Size, align 4, !dbg !1358, !tbaa !859
  %sub38 = sub nsw i32 %28, %inc.sink123, !dbg !1359
  call void @_Z4Fan2PfS_S_iii(float* %25, float* %26, float* %27, i32 %28, i32 %sub38, i32 %inc.sink123), !dbg !1360
  br label %kcall.end39, !dbg !1360

kcall.end39:                                      ; preds = %kcall.end, %kcall.configok37
  %call40 = call i32 @cudaThreadSynchronize(), !dbg !1361
  call void @llvm.dbg.value(metadata i8* getelementptr inbounds ([5 x i8], [5 x i8]* @.str.51, i64 0, i64 0), i64 0, metadata !1362, metadata !732), !dbg !1369
  %call.i = call i32 @cudaGetLastError(), !dbg !1371
  call void @llvm.dbg.value(metadata i32 %call.i, i64 0, metadata !1367, metadata !732), !dbg !1372
  %cmp.i = icmp eq i32 %call.i, 0, !dbg !1373
  %inc = add nuw nsw i32 %inc.sink123, 1, !dbg !1375
  br i1 %cmp.i, label %for.cond, label %if.then.i, !dbg !1377

if.then.i:                                        ; preds = %kcall.end39
  %29 = load %struct._IO_FILE*, %struct._IO_FILE** @stderr, align 8, !dbg !1378, !tbaa !841
  %call1.i = call i8* @cudaGetErrorString(i32 %call.i), !dbg !1380
  %call2.i = call i32 (%struct._IO_FILE*, i8*, ...) @fprintf(%struct._IO_FILE* %29, i8* getelementptr inbounds ([21 x i8], [21 x i8]* @.str.56, i64 0, i64 0), i8* getelementptr inbounds ([5 x i8], [5 x i8]* @.str.51, i64 0, i64 0), i8* %call1.i) #10, !dbg !1381
  call void @exit(i32 1) #9, !dbg !1382
  unreachable, !dbg !1382

for.end.loopexit:                                 ; preds = %for.cond
  br label %for.end, !dbg !1383

for.end:                                          ; preds = %for.end.loopexit, %entry
  %30 = bitcast %struct.timeval* %time_end to i8*, !dbg !1383
  call void @llvm.lifetime.start(i64 16, i8* %30) #8, !dbg !1383
  call void @llvm.dbg.value(metadata %struct.timeval* %time_end, i64 0, metadata !1275, metadata !739), !dbg !1384
  %call41 = call i32 @gettimeofday(%struct.timeval* nonnull %time_end, %struct.timezone* null) #8, !dbg !1385
  %tv_sec = getelementptr inbounds %struct.timeval, %struct.timeval* %time_end, i64 0, i32 0, !dbg !1386
  %31 = load i64, i64* %tv_sec, align 8, !dbg !1386, !tbaa !932
  %tv_usec = getelementptr inbounds %struct.timeval, %struct.timeval* %time_end, i64 0, i32 1, !dbg !1387
  %32 = load i64, i64* %tv_usec, align 8, !dbg !1387, !tbaa !936
  %tv_sec44 = getelementptr inbounds %struct.timeval, %struct.timeval* %time_start, i64 0, i32 0, !dbg !1388
  %33 = load i64, i64* %tv_sec44, align 8, !dbg !1388, !tbaa !932
  %tv_usec46 = getelementptr inbounds %struct.timeval, %struct.timeval* %time_start, i64 0, i32 1, !dbg !1389
  %34 = load i64, i64* %tv_usec46, align 8, !dbg !1389, !tbaa !936
  %tmp = sub i64 %31, %33
  %tmp120 = mul i64 %tmp, 1000000
  %add43 = sub i64 %32, %34, !dbg !1390
  %sub48 = add i64 %add43, %tmp120, !dbg !1391
  %conv49 = trunc i64 %sub48 to i32, !dbg !1392
  store i32 %conv49, i32* @totalKernelTime, align 4, !dbg !1393, !tbaa !859
  %35 = load i8*, i8** bitcast (float** @m to i8**), align 8, !dbg !1394, !tbaa !841
  %36 = load i8*, i8** %3, align 8, !dbg !1395, !tbaa !841
  %37 = load i32, i32* @Size, align 4, !dbg !1396, !tbaa !859
  %mul50 = mul nsw i32 %37, %37, !dbg !1397
  %conv5193 = zext i32 %mul50 to i64, !dbg !1396
  %mul52 = shl nuw nsw i64 %conv5193, 2, !dbg !1398
  %call53 = call i32 @cudaMemcpy(i8* %35, i8* %36, i64 %mul52, i32 2), !dbg !1399
  %38 = load i8*, i8** bitcast (float** @a to i8**), align 8, !dbg !1400, !tbaa !841
  %39 = load i8*, i8** %5, align 8, !dbg !1401, !tbaa !841
  %40 = load i32, i32* @Size, align 4, !dbg !1402, !tbaa !859
  %mul54 = mul nsw i32 %40, %40, !dbg !1403
  %conv5594 = zext i32 %mul54 to i64, !dbg !1402
  %mul56 = shl nuw nsw i64 %conv5594, 2, !dbg !1404
  %call57 = call i32 @cudaMemcpy(i8* %38, i8* %39, i64 %mul56, i32 2), !dbg !1405
  %41 = load i8*, i8** bitcast (float** @b to i8**), align 8, !dbg !1406, !tbaa !841
  %42 = load i8*, i8** %7, align 8, !dbg !1407, !tbaa !841
  %43 = load i32, i32* @Size, align 4, !dbg !1408, !tbaa !859
  %conv58 = sext i32 %43 to i64, !dbg !1408
  %mul59 = shl nsw i64 %conv58, 2, !dbg !1409
  %call60 = call i32 @cudaMemcpy(i8* %41, i8* %42, i64 %mul59, i32 2), !dbg !1410
  %44 = load i8*, i8** %3, align 8, !dbg !1411, !tbaa !841
  %call61 = call i32 @cudaFree(i8* %44), !dbg !1412
  %45 = load i8*, i8** %5, align 8, !dbg !1413, !tbaa !841
  %call62 = call i32 @cudaFree(i8* %45), !dbg !1414
  %46 = load i8*, i8** %7, align 8, !dbg !1415, !tbaa !841
  %call63 = call i32 @cudaFree(i8* %46), !dbg !1416
  call void @llvm.lifetime.end(i64 16, i8* %30) #8, !dbg !1417
  call void @llvm.lifetime.end(i64 16, i8* %19) #8, !dbg !1417
  call void @llvm.lifetime.end(i64 8, i8* %2) #8, !dbg !1417
  call void @llvm.lifetime.end(i64 8, i8* %1) #8, !dbg !1417
  call void @llvm.lifetime.end(i64 8, i8* %0) #8, !dbg !1417
  ret void, !dbg !1417
}

; Function Attrs: uwtable
define void @_Z8PrintMatPfii(float* nocapture readonly %ary, i32 %nrow, i32 %ncol) local_unnamed_addr #6 !dbg !951 {
entry:
  tail call void @llvm.dbg.value(metadata float* %ary, i64 0, metadata !950, metadata !732), !dbg !1418
  tail call void @llvm.dbg.value(metadata i32 %nrow, i64 0, metadata !955, metadata !732), !dbg !1419
  tail call void @llvm.dbg.value(metadata i32 %ncol, i64 0, metadata !956, metadata !732), !dbg !1420
  tail call void @llvm.dbg.value(metadata i32 0, i64 0, metadata !957, metadata !732), !dbg !1421
  %cmp20 = icmp sgt i32 %nrow, 0, !dbg !1422
  br i1 %cmp20, label %for.cond1.preheader.lr.ph, label %for.end9, !dbg !1423

for.cond1.preheader.lr.ph:                        ; preds = %entry
  %cmp218 = icmp sgt i32 %ncol, 0, !dbg !1424
  br i1 %cmp218, label %for.cond1.preheader.us.preheader, label %for.cond1.preheader.preheader, !dbg !1425

for.cond1.preheader.preheader:                    ; preds = %for.cond1.preheader.lr.ph
  br label %for.cond1.preheader, !dbg !1426

for.cond1.preheader.us.preheader:                 ; preds = %for.cond1.preheader.lr.ph
  %wide.trip.count = zext i32 %ncol to i64, !dbg !1425
  br label %for.cond1.preheader.us, !dbg !1426

for.cond1.preheader.us:                           ; preds = %for.cond1.preheader.us.preheader, %for.cond1.for.end_crit_edge.us
  %inc8.sink21.us = phi i32 [ %inc8.us, %for.cond1.for.end_crit_edge.us ], [ 0, %for.cond1.preheader.us.preheader ]
  tail call void @llvm.dbg.value(metadata i32 0, i64 0, metadata !958, metadata !732), !dbg !1426
  br label %for.body3.us, !dbg !1425

for.body3.us:                                     ; preds = %for.body3.us, %for.cond1.preheader.us
  %indvars.iv = phi i64 [ 0, %for.cond1.preheader.us ], [ %indvars.iv.next, %for.body3.us ]
  %0 = load i32, i32* @Size, align 4, !dbg !1427, !tbaa !859
  %mul.us = mul nsw i32 %0, %inc8.sink21.us, !dbg !1428
  %idx.ext.us = sext i32 %mul.us to i64, !dbg !1429
  %add.ptr.us = getelementptr inbounds float, float* %ary, i64 %idx.ext.us, !dbg !1429
  %add.ptr5.us = getelementptr inbounds float, float* %add.ptr.us, i64 %indvars.iv, !dbg !1430
  %1 = load float, float* %add.ptr5.us, align 4, !dbg !1431, !tbaa !775
  %conv.us = fpext float %1 to double, !dbg !1431
  %call.us = tail call i32 (i8*, ...) @printf(i8* getelementptr inbounds ([7 x i8], [7 x i8]* @.str.53, i64 0, i64 0), double %conv.us), !dbg !1432
  %indvars.iv.next = add nuw nsw i64 %indvars.iv, 1, !dbg !1425
  %exitcond = icmp eq i64 %indvars.iv.next, %wide.trip.count, !dbg !1425
  br i1 %exitcond, label %for.cond1.for.end_crit_edge.us, label %for.body3.us, !dbg !1425, !llvm.loop !983

for.cond1.for.end_crit_edge.us:                   ; preds = %for.body3.us
  %putchar17.us = tail call i32 @putchar(i32 10), !dbg !1433
  %inc8.us = add nuw nsw i32 %inc8.sink21.us, 1, !dbg !1434
  tail call void @llvm.dbg.value(metadata i32 %inc8.us, i64 0, metadata !957, metadata !732), !dbg !1421
  %exitcond24 = icmp eq i32 %inc8.us, %nrow, !dbg !1423
  br i1 %exitcond24, label %for.end9.loopexit, label %for.cond1.preheader.us, !dbg !1423, !llvm.loop !988

for.cond1.preheader:                              ; preds = %for.cond1.preheader.preheader, %for.cond1.preheader
  %inc8.sink21 = phi i32 [ %inc8, %for.cond1.preheader ], [ 0, %for.cond1.preheader.preheader ]
  tail call void @llvm.dbg.value(metadata i32 0, i64 0, metadata !958, metadata !732), !dbg !1426
  %putchar17 = tail call i32 @putchar(i32 10), !dbg !1433
  %inc8 = add nuw nsw i32 %inc8.sink21, 1, !dbg !1434
  tail call void @llvm.dbg.value(metadata i32 %inc8, i64 0, metadata !957, metadata !732), !dbg !1421
  %exitcond25 = icmp eq i32 %inc8, %nrow, !dbg !1423
  br i1 %exitcond25, label %for.end9.loopexit28, label %for.cond1.preheader, !dbg !1423, !llvm.loop !988

for.end9.loopexit:                                ; preds = %for.cond1.for.end_crit_edge.us
  br label %for.end9, !dbg !1435

for.end9.loopexit28:                              ; preds = %for.cond1.preheader
  br label %for.end9, !dbg !1435

for.end9:                                         ; preds = %for.end9.loopexit28, %for.end9.loopexit, %entry
  %putchar = tail call i32 @putchar(i32 10), !dbg !1435
  ret void, !dbg !1436
}

; Function Attrs: nounwind uwtable
define void @_Z8PrintAryPfi(float* nocapture readonly %ary, i32 %ary_size) local_unnamed_addr #0 !dbg !1017 {
entry:
  tail call void @llvm.dbg.value(metadata float* %ary, i64 0, metadata !1016, metadata !732), !dbg !1437
  tail call void @llvm.dbg.value(metadata i32 %ary_size, i64 0, metadata !1019, metadata !732), !dbg !1438
  tail call void @llvm.dbg.value(metadata i32 0, i64 0, metadata !1020, metadata !732), !dbg !1439
  %cmp5 = icmp sgt i32 %ary_size, 0, !dbg !1440
  br i1 %cmp5, label %for.body.preheader, label %for.end, !dbg !1441

for.body.preheader:                               ; preds = %entry
  %wide.trip.count = zext i32 %ary_size to i64, !dbg !1441
  br label %for.body, !dbg !1442

for.body:                                         ; preds = %for.body.preheader, %for.body
  %indvars.iv = phi i64 [ %indvars.iv.next, %for.body ], [ 0, %for.body.preheader ]
  %arrayidx = getelementptr inbounds float, float* %ary, i64 %indvars.iv, !dbg !1442
  %0 = load float, float* %arrayidx, align 4, !dbg !1442, !tbaa !775
  %conv = fpext float %0 to double, !dbg !1442
  %call = tail call i32 (i8*, ...) @printf(i8* getelementptr inbounds ([6 x i8], [6 x i8]* @.str.54, i64 0, i64 0), double %conv), !dbg !1443
  %indvars.iv.next = add nuw nsw i64 %indvars.iv, 1, !dbg !1441
  %exitcond = icmp eq i64 %indvars.iv.next, %wide.trip.count, !dbg !1441
  br i1 %exitcond, label %for.end.loopexit, label %for.body, !dbg !1441, !llvm.loop !1034

for.end.loopexit:                                 ; preds = %for.body
  br label %for.end, !dbg !1444

for.end:                                          ; preds = %for.end.loopexit, %entry
  %puts = tail call i32 @puts(i8* getelementptr inbounds ([2 x i8], [2 x i8]* @str.77, i64 0, i64 0)), !dbg !1444
  ret void, !dbg !1445
}

; Function Attrs: nounwind uwtable
define void @_Z7BackSubv() local_unnamed_addr #0 !dbg !1041 {
entry:
  %0 = load i32, i32* @Size, align 4, !dbg !1446, !tbaa !859
  %conv = sext i32 %0 to i64, !dbg !1447
  %mul = shl nsw i64 %conv, 2, !dbg !1448
  %call = tail call noalias i8* @malloc(i64 %mul) #8, !dbg !1449
  store i8* %call, i8** bitcast (float** @finalVec to i8**), align 8, !dbg !1450, !tbaa !841
  tail call void @llvm.dbg.value(metadata i32 0, i64 0, metadata !1043, metadata !732), !dbg !1451
  %cmp66 = icmp sgt i32 %0, 0, !dbg !1452
  %1 = bitcast i8* %call to float*, !dbg !1453
  br i1 %cmp66, label %for.body.lr.ph, label %for.end45, !dbg !1454

for.body.lr.ph:                                   ; preds = %entry
  %2 = load float*, float** @b, align 8, !dbg !1455, !tbaa !841
  %3 = load float*, float** @a, align 8, !dbg !1456
  %sub12 = add i32 %0, -1, !dbg !1457
  %idx.ext14.prol = sext i32 %sub12 to i64, !dbg !1458
  %arrayidx19.prol = getelementptr inbounds float, float* %1, i64 %idx.ext14.prol, !dbg !1459
  br label %for.body, !dbg !1454

for.body:                                         ; preds = %for.body.lr.ph, %for.end
  %indvars.iv71 = phi i64 [ 0, %for.body.lr.ph ], [ %indvars.iv.next72, %for.end ]
  %indvars.iv69 = phi i32 [ 0, %for.body.lr.ph ], [ %indvars.iv.next70, %for.end ]
  %sub = sub nsw i32 %0, %indvars.iv69, !dbg !1460
  %sub1 = add nsw i32 %sub, -1, !dbg !1461
  %idxprom = sext i32 %sub1 to i64, !dbg !1455
  %arrayidx = getelementptr inbounds float, float* %2, i64 %idxprom, !dbg !1455
  %4 = bitcast float* %arrayidx to i32*, !dbg !1455
  %5 = load i32, i32* %4, align 4, !dbg !1455, !tbaa !775
  %arrayidx5 = getelementptr inbounds float, float* %1, i64 %idxprom, !dbg !1453
  %6 = bitcast float* %arrayidx5 to i32*, !dbg !1462
  store i32 %5, i32* %6, align 4, !dbg !1462, !tbaa !775
  tail call void @llvm.dbg.value(metadata i32 0, i64 0, metadata !1044, metadata !732), !dbg !1463
  %cmp761 = icmp sgt i32 %indvars.iv69, 0, !dbg !1464
  %mul11 = mul nsw i32 %sub1, %0, !dbg !1465
  %idx.ext = sext i32 %mul11 to i64, !dbg !1466
  %.cast = bitcast i32 %5 to float, !dbg !1467
  br i1 %cmp761, label %for.body8.lr.ph, label %for.end, !dbg !1468

for.body8.lr.ph:                                  ; preds = %for.body
  %7 = getelementptr inbounds float, float* %3, i64 %idx.ext, !dbg !1466
  %xtraiter = and i64 %indvars.iv71, 1, !dbg !1468
  %lcmp.mod = icmp eq i64 %xtraiter, 0, !dbg !1468
  br i1 %lcmp.mod, label %for.body8.prol.loopexit.unr-lcssa, label %for.body8.prol.preheader, !dbg !1468

for.body8.prol.preheader:                         ; preds = %for.body8.lr.ph
  br label %for.body8.prol, !dbg !1468

for.body8.prol:                                   ; preds = %for.body8.prol.preheader
  %add.ptr15.prol = getelementptr inbounds float, float* %7, i64 %idx.ext14.prol, !dbg !1458
  %8 = load float, float* %add.ptr15.prol, align 4, !dbg !1469, !tbaa !775
  %9 = load float, float* %arrayidx19.prol, align 4, !dbg !1459, !tbaa !775
  %mul20.prol = fmul float %8, %9, !dbg !1470
  %sub25.prol = fsub float %.cast, %mul20.prol, !dbg !1467
  store float %sub25.prol, float* %arrayidx5, align 4, !dbg !1467, !tbaa !775
  br label %for.body8.prol.loopexit.unr-lcssa, !dbg !1468

for.body8.prol.loopexit.unr-lcssa:                ; preds = %for.body8.lr.ph, %for.body8.prol
  %sub25.lcssa.unr.ph = phi float [ %sub25.prol, %for.body8.prol ], [ undef, %for.body8.lr.ph ]
  %indvars.iv.unr.ph = phi i64 [ 1, %for.body8.prol ], [ 0, %for.body8.lr.ph ]
  %.unr.ph = phi float [ %sub25.prol, %for.body8.prol ], [ %.cast, %for.body8.lr.ph ]
  br label %for.body8.prol.loopexit, !dbg !1468

for.body8.prol.loopexit:                          ; preds = %for.body8.prol.loopexit.unr-lcssa
  %10 = icmp eq i64 %indvars.iv71, 1, !dbg !1468
  br i1 %10, label %for.end.loopexit, label %for.body8.lr.ph.new, !dbg !1468

for.body8.lr.ph.new:                              ; preds = %for.body8.prol.loopexit
  br label %for.body8, !dbg !1468

for.body8:                                        ; preds = %for.body8, %for.body8.lr.ph.new
  %indvars.iv = phi i64 [ %indvars.iv.unr.ph, %for.body8.lr.ph.new ], [ %indvars.iv.next.1, %for.body8 ]
  %11 = phi float [ %.unr.ph, %for.body8.lr.ph.new ], [ %sub25.1, %for.body8 ]
  %12 = trunc i64 %indvars.iv to i32, !dbg !1471
  %sub13 = sub i32 %sub12, %12, !dbg !1471
  %idx.ext14 = sext i32 %sub13 to i64, !dbg !1458
  %add.ptr15 = getelementptr inbounds float, float* %7, i64 %idx.ext14, !dbg !1458
  %13 = load float, float* %add.ptr15, align 4, !dbg !1469, !tbaa !775
  %arrayidx19 = getelementptr inbounds float, float* %1, i64 %idx.ext14, !dbg !1459
  %14 = load float, float* %arrayidx19, align 4, !dbg !1459, !tbaa !775
  %mul20 = fmul float %13, %14, !dbg !1470
  %sub25 = fsub float %11, %mul20, !dbg !1467
  store float %sub25, float* %arrayidx5, align 4, !dbg !1467, !tbaa !775
  %indvars.iv.next = add nuw nsw i64 %indvars.iv, 1, !dbg !1468
  %15 = trunc i64 %indvars.iv.next to i32, !dbg !1471
  %sub13.1 = sub i32 %sub12, %15, !dbg !1471
  %idx.ext14.1 = sext i32 %sub13.1 to i64, !dbg !1458
  %add.ptr15.1 = getelementptr inbounds float, float* %7, i64 %idx.ext14.1, !dbg !1458
  %16 = load float, float* %add.ptr15.1, align 4, !dbg !1469, !tbaa !775
  %arrayidx19.1 = getelementptr inbounds float, float* %1, i64 %idx.ext14.1, !dbg !1459
  %17 = load float, float* %arrayidx19.1, align 4, !dbg !1459, !tbaa !775
  %mul20.1 = fmul float %16, %17, !dbg !1470
  %sub25.1 = fsub float %sub25, %mul20.1, !dbg !1467
  store float %sub25.1, float* %arrayidx5, align 4, !dbg !1467, !tbaa !775
  %indvars.iv.next.1 = add nsw i64 %indvars.iv, 2, !dbg !1468
  %exitcond.1 = icmp eq i64 %indvars.iv.next.1, %indvars.iv71, !dbg !1468
  br i1 %exitcond.1, label %for.end.loopexit.unr-lcssa, label %for.body8, !dbg !1468, !llvm.loop !1077

for.end.loopexit.unr-lcssa:                       ; preds = %for.body8
  br label %for.end.loopexit, !dbg !1466

for.end.loopexit:                                 ; preds = %for.body8.prol.loopexit, %for.end.loopexit.unr-lcssa
  %sub25.lcssa = phi float [ %sub25.lcssa.unr.ph, %for.body8.prol.loopexit ], [ %sub25.1, %for.end.loopexit.unr-lcssa ]
  br label %for.end, !dbg !1466

for.end:                                          ; preds = %for.end.loopexit, %for.body
  %.lcssa = phi float [ %.cast, %for.body ], [ %sub25.lcssa, %for.end.loopexit ]
  %18 = getelementptr inbounds float, float* %3, i64 %idx.ext, !dbg !1466
  %add.ptr38 = getelementptr inbounds float, float* %18, i64 %idxprom, !dbg !1472
  %19 = load float, float* %add.ptr38, align 4, !dbg !1473, !tbaa !775
  %div = fdiv float %.lcssa, %19, !dbg !1474
  store float %div, float* %arrayidx5, align 4, !dbg !1475, !tbaa !775
  %indvars.iv.next70 = add nuw nsw i32 %indvars.iv69, 1, !dbg !1454
  tail call void @llvm.dbg.value(metadata i32 %indvars.iv.next70, i64 0, metadata !1043, metadata !732), !dbg !1451
  %cmp = icmp sgt i32 %0, %indvars.iv.next70, !dbg !1452
  %indvars.iv.next72 = add nuw nsw i64 %indvars.iv71, 1, !dbg !1454
  br i1 %cmp, label %for.body, label %for.end45.loopexit, !dbg !1454, !llvm.loop !1083

for.end45.loopexit:                               ; preds = %for.end
  br label %for.end45, !dbg !1476

for.end45:                                        ; preds = %for.end45.loopexit, %entry
  ret void, !dbg !1476
}

; Function Attrs: nounwind
declare void @free(i8* nocapture) local_unnamed_addr #3

; Function Attrs: uwtable
define void @_Z21PrintDevicePropertiesv() local_unnamed_addr #6 !dbg !1477 {
entry:
  %deviceProp = alloca %struct.cudaDeviceProp, align 8
  %nDevCount = alloca i32, align 4
  %0 = getelementptr inbounds %struct.cudaDeviceProp, %struct.cudaDeviceProp* %deviceProp, i64 0, i32 0, i64 0, !dbg !1556
  call void @llvm.lifetime.start(i64 632, i8* %0) #8, !dbg !1556
  %1 = bitcast i32* %nDevCount to i8*, !dbg !1557
  call void @llvm.lifetime.start(i64 4, i8* %1) #8, !dbg !1557
  tail call void @llvm.dbg.value(metadata i32 0, i64 0, metadata !1553, metadata !732), !dbg !1558
  store i32 0, i32* %nDevCount, align 4, !dbg !1558, !tbaa !859
  tail call void @llvm.dbg.value(metadata i32* %nDevCount, i64 0, metadata !1553, metadata !739), !dbg !1558
  %call = call i32 @cudaGetDeviceCount(i32* nonnull %nDevCount), !dbg !1559
  %2 = load i32, i32* %nDevCount, align 4, !dbg !1560, !tbaa !859
  call void @llvm.dbg.value(metadata i32 %2, i64 0, metadata !1553, metadata !732), !dbg !1558
  %call1 = call i32 (i8*, ...) @printf(i8* getelementptr inbounds ([23 x i8], [23 x i8]* @.str.29, i64 0, i64 0), i32 %2), !dbg !1561
  call void @llvm.dbg.value(metadata i32 0, i64 0, metadata !1554, metadata !732), !dbg !1562
  %3 = load i32, i32* %nDevCount, align 4, !dbg !1563, !tbaa !859
  call void @llvm.dbg.value(metadata i32 %3, i64 0, metadata !1553, metadata !732), !dbg !1558
  %cmp36 = icmp sgt i32 %3, 0, !dbg !1566
  br i1 %cmp36, label %for.body.lr.ph, label %for.cond.cleanup, !dbg !1567

for.body.lr.ph:                                   ; preds = %entry
  %totalGlobalMem = getelementptr inbounds %struct.cudaDeviceProp, %struct.cudaDeviceProp* %deviceProp, i64 0, i32 1, !dbg !1568
  %sharedMemPerBlock = getelementptr inbounds %struct.cudaDeviceProp, %struct.cudaDeviceProp* %deviceProp, i64 0, i32 2, !dbg !1572
  %regsPerBlock = getelementptr inbounds %struct.cudaDeviceProp, %struct.cudaDeviceProp* %deviceProp, i64 0, i32 3, !dbg !1573
  %warpSize = getelementptr inbounds %struct.cudaDeviceProp, %struct.cudaDeviceProp* %deviceProp, i64 0, i32 4, !dbg !1574
  %memPitch = getelementptr inbounds %struct.cudaDeviceProp, %struct.cudaDeviceProp* %deviceProp, i64 0, i32 5, !dbg !1575
  %maxThreadsPerBlock = getelementptr inbounds %struct.cudaDeviceProp, %struct.cudaDeviceProp* %deviceProp, i64 0, i32 6, !dbg !1576
  %arrayidx = getelementptr inbounds %struct.cudaDeviceProp, %struct.cudaDeviceProp* %deviceProp, i64 0, i32 7, i64 0, !dbg !1577
  %arrayidx14 = getelementptr inbounds %struct.cudaDeviceProp, %struct.cudaDeviceProp* %deviceProp, i64 0, i32 7, i64 1, !dbg !1578
  %arrayidx16 = getelementptr inbounds %struct.cudaDeviceProp, %struct.cudaDeviceProp* %deviceProp, i64 0, i32 7, i64 2, !dbg !1579
  %arrayidx18 = getelementptr inbounds %struct.cudaDeviceProp, %struct.cudaDeviceProp* %deviceProp, i64 0, i32 8, i64 0, !dbg !1580
  %arrayidx22 = getelementptr inbounds %struct.cudaDeviceProp, %struct.cudaDeviceProp* %deviceProp, i64 0, i32 8, i64 2, !dbg !1581
  %totalConstMem = getelementptr inbounds %struct.cudaDeviceProp, %struct.cudaDeviceProp* %deviceProp, i64 0, i32 10, !dbg !1582
  %major = getelementptr inbounds %struct.cudaDeviceProp, %struct.cudaDeviceProp* %deviceProp, i64 0, i32 11, !dbg !1583
  %clockRate = getelementptr inbounds %struct.cudaDeviceProp, %struct.cudaDeviceProp* %deviceProp, i64 0, i32 9, !dbg !1584
  %textureAlignment = getelementptr inbounds %struct.cudaDeviceProp, %struct.cudaDeviceProp* %deviceProp, i64 0, i32 13, !dbg !1585
  %deviceOverlap = getelementptr inbounds %struct.cudaDeviceProp, %struct.cudaDeviceProp* %deviceProp, i64 0, i32 15, !dbg !1586
  %multiProcessorCount = getelementptr inbounds %struct.cudaDeviceProp, %struct.cudaDeviceProp* %deviceProp, i64 0, i32 16, !dbg !1587
  %4 = bitcast i32* %arrayidx18 to i64*, !dbg !1580
  %5 = bitcast i32* %major to i64*, !dbg !1583
  br label %for.body, !dbg !1567

for.cond.cleanup.loopexit:                        ; preds = %for.inc
  br label %for.cond.cleanup, !dbg !1588

for.cond.cleanup:                                 ; preds = %for.cond.cleanup.loopexit, %entry
  call void @llvm.lifetime.end(i64 4, i8* nonnull %1) #8, !dbg !1588
  call void @llvm.lifetime.end(i64 632, i8* %0) #8, !dbg !1588
  ret void, !dbg !1588

for.body:                                         ; preds = %for.body.lr.ph, %for.inc
  %inc.sink37 = phi i32 [ 0, %for.body.lr.ph ], [ %inc, %for.inc ]
  call void @llvm.memset.p0i8.i64(i8* %0, i8 0, i64 632, i32 8, i1 false), !dbg !1589
  call void @llvm.dbg.value(metadata %struct.cudaDeviceProp* %deviceProp, i64 0, metadata !1479, metadata !739), !dbg !1590
  %call2 = call i32 @cudaGetDeviceProperties(%struct.cudaDeviceProp* nonnull %deviceProp, i32 %inc.sink37), !dbg !1591
  %cmp3 = icmp eq i32 %call2, 0, !dbg !1592
  br i1 %cmp3, label %if.then, label %if.else, !dbg !1593

if.then:                                          ; preds = %for.body
  %call4 = call i32 (i8*, ...) @printf(i8* getelementptr inbounds ([22 x i8], [22 x i8]* @.str.30, i64 0, i64 0), i8* nonnull %0), !dbg !1594
  %call5 = call i32 (i8*, ...) @printf(i8* getelementptr inbounds ([40 x i8], [40 x i8]* @.str.31, i64 0, i64 0)), !dbg !1595
  %6 = load i64, i64* %totalGlobalMem, align 8, !dbg !1568, !tbaa !1596
  %div = lshr i64 %6, 10, !dbg !1598
  %call6 = call i32 (i8*, ...) @printf(i8* getelementptr inbounds ([33 x i8], [33 x i8]* @.str.32, i64 0, i64 0), i64 %div), !dbg !1599
  %7 = load i64, i64* %sharedMemPerBlock, align 8, !dbg !1572, !tbaa !1600
  %div7 = lshr i64 %7, 10, !dbg !1601
  %call8 = call i32 (i8*, ...) @printf(i8* getelementptr inbounds ([46 x i8], [46 x i8]* @.str.33, i64 0, i64 0), i64 %div7), !dbg !1602
  %8 = load i32, i32* %regsPerBlock, align 8, !dbg !1573, !tbaa !1603
  %call9 = call i32 (i8*, ...) @printf(i8* getelementptr inbounds ([45 x i8], [45 x i8]* @.str.34, i64 0, i64 0), i32 %8), !dbg !1604
  %9 = load i32, i32* %warpSize, align 4, !dbg !1574, !tbaa !1605
  %call10 = call i32 (i8*, ...) @printf(i8* getelementptr inbounds ([31 x i8], [31 x i8]* @.str.35, i64 0, i64 0), i32 %9), !dbg !1606
  %10 = load i64, i64* %memPitch, align 8, !dbg !1575, !tbaa !1607
  %call11 = call i32 (i8*, ...) @printf(i8* getelementptr inbounds ([31 x i8], [31 x i8]* @.str.36, i64 0, i64 0), i64 %10), !dbg !1608
  %11 = load i32, i32* %maxThreadsPerBlock, align 8, !dbg !1576, !tbaa !1609
  %call12 = call i32 (i8*, ...) @printf(i8* getelementptr inbounds ([35 x i8], [35 x i8]* @.str.37, i64 0, i64 0), i32 %11), !dbg !1610
  %12 = load i32, i32* %arrayidx, align 4, !dbg !1577, !tbaa !859
  %13 = load i32, i32* %arrayidx14, align 4, !dbg !1578, !tbaa !859
  %14 = load i32, i32* %arrayidx16, align 4, !dbg !1579, !tbaa !859
  %call17 = call i32 (i8*, ...) @printf(i8* getelementptr inbounds ([47 x i8], [47 x i8]* @.str.38, i64 0, i64 0), i32 %12, i32 %13, i32 %14), !dbg !1611
  %15 = load i64, i64* %4, align 8, !dbg !1580
  %16 = trunc i64 %15 to i32, !dbg !1580
  %17 = lshr i64 %15, 32, !dbg !1612
  %18 = trunc i64 %17 to i32, !dbg !1612
  %19 = load i32, i32* %arrayidx22, align 8, !dbg !1581, !tbaa !859
  %call23 = call i32 (i8*, ...) @printf(i8* getelementptr inbounds ([46 x i8], [46 x i8]* @.str.39, i64 0, i64 0), i32 %16, i32 %18, i32 %19), !dbg !1613
  %20 = load i64, i64* %totalConstMem, align 8, !dbg !1582, !tbaa !1614
  %call24 = call i32 (i8*, ...) @printf(i8* getelementptr inbounds ([39 x i8], [39 x i8]* @.str.40, i64 0, i64 0), i64 %20), !dbg !1615
  %21 = load i64, i64* %5, align 8, !dbg !1583
  %22 = trunc i64 %21 to i32, !dbg !1583
  %23 = lshr i64 %21, 32, !dbg !1616
  %24 = trunc i64 %23 to i32, !dbg !1616
  %call25 = call i32 (i8*, ...) @printf(i8* getelementptr inbounds ([23 x i8], [23 x i8]* @.str.41, i64 0, i64 0), i32 %22, i32 %24), !dbg !1617
  %25 = load i32, i32* %clockRate, align 4, !dbg !1584, !tbaa !1618
  %call26 = call i32 (i8*, ...) @printf(i8* getelementptr inbounds ([26 x i8], [26 x i8]* @.str.42, i64 0, i64 0), i32 %25), !dbg !1619
  %26 = load i64, i64* %textureAlignment, align 8, !dbg !1585, !tbaa !1620
  %call27 = call i32 (i8*, ...) @printf(i8* getelementptr inbounds ([35 x i8], [35 x i8]* @.str.43, i64 0, i64 0), i64 %26), !dbg !1621
  %27 = load i32, i32* %deviceOverlap, align 8, !dbg !1586, !tbaa !1622
  %tobool = icmp ne i32 %27, 0, !dbg !1623
  %cond = select i1 %tobool, i8* getelementptr inbounds ([8 x i8], [8 x i8]* @.str.45, i64 0, i64 0), i8* getelementptr inbounds ([12 x i8], [12 x i8]* @.str.46, i64 0, i64 0), !dbg !1623
  %call28 = call i32 (i8*, ...) @printf(i8* getelementptr inbounds ([26 x i8], [26 x i8]* @.str.44, i64 0, i64 0), i8* %cond), !dbg !1624
  %28 = load i32, i32* %multiProcessorCount, align 4, !dbg !1587, !tbaa !1625
  %call29 = call i32 (i8*, ...) @printf(i8* getelementptr inbounds ([38 x i8], [38 x i8]* @.str.47, i64 0, i64 0), i32 %28), !dbg !1626
  br label %for.inc, !dbg !1627

if.else:                                          ; preds = %for.body
  %call30 = call i32 @cudaGetLastError(), !dbg !1628
  %call31 = call i8* @cudaGetErrorString(i32 %call30), !dbg !1629
  %call32 = call i32 (i8*, ...) @printf(i8* getelementptr inbounds ([4 x i8], [4 x i8]* @.str.48, i64 0, i64 0), i8* %call31), !dbg !1631
  br label %for.inc

for.inc:                                          ; preds = %if.then, %if.else
  %inc = add nuw nsw i32 %inc.sink37, 1, !dbg !1633
  call void @llvm.dbg.value(metadata i32 %inc, i64 0, metadata !1554, metadata !732), !dbg !1562
  %29 = load i32, i32* %nDevCount, align 4, !dbg !1563, !tbaa !859
  call void @llvm.dbg.value(metadata i32 %29, i64 0, metadata !1553, metadata !732), !dbg !1558
  %cmp = icmp slt i32 %inc, %29, !dbg !1566
  br i1 %cmp, label %for.body, label %for.cond.cleanup.loopexit, !dbg !1567, !llvm.loop !1635
}

declare i32 @cudaGetDeviceCount(i32*) local_unnamed_addr #7

; Function Attrs: argmemonly nounwind
declare void @llvm.memset.p0i8.i64(i8* nocapture writeonly, i8, i64, i32, i1) #2

declare i32 @cudaGetDeviceProperties(%struct.cudaDeviceProp*, i32) local_unnamed_addr #7

declare i8* @cudaGetErrorString(i32) local_unnamed_addr #7

declare i32 @cudaGetLastError() local_unnamed_addr #7

; Function Attrs: nounwind
declare noalias %struct._IO_FILE* @fopen(i8* nocapture readonly, i8* nocapture readonly) local_unnamed_addr #3

; Function Attrs: nounwind
declare i32 @fscanf(%struct._IO_FILE* nocapture, i8* nocapture readonly, ...) local_unnamed_addr #3

; Function Attrs: nounwind uwtable
define void @_Z7InitMatPfii(float* %ary, i32 %nrow, i32 %ncol) local_unnamed_addr #0 !dbg !1161 {
entry:
  tail call void @llvm.dbg.value(metadata float* %ary, i64 0, metadata !1160, metadata !732), !dbg !1637
  tail call void @llvm.dbg.value(metadata i32 %nrow, i64 0, metadata !1163, metadata !732), !dbg !1638
  tail call void @llvm.dbg.value(metadata i32 %ncol, i64 0, metadata !1164, metadata !732), !dbg !1639
  tail call void @llvm.dbg.value(metadata i32 0, i64 0, metadata !1165, metadata !732), !dbg !1640
  %cmp17 = icmp sgt i32 %nrow, 0, !dbg !1641
  %cmp215 = icmp sgt i32 %ncol, 0, !dbg !1642
  %or.cond = and i1 %cmp17, %cmp215, !dbg !1643
  br i1 %or.cond, label %for.cond1.preheader.us.preheader, label %for.end8, !dbg !1643

for.cond1.preheader.us.preheader:                 ; preds = %entry
  %wide.trip.count = zext i32 %ncol to i64, !dbg !1644
  br label %for.cond1.preheader.us, !dbg !1645

for.cond1.preheader.us:                           ; preds = %for.cond1.preheader.us.preheader, %for.cond1.for.inc6_crit_edge.us
  %inc7.sink18.us = phi i32 [ %inc7.us, %for.cond1.for.inc6_crit_edge.us ], [ 0, %for.cond1.preheader.us.preheader ]
  tail call void @llvm.dbg.value(metadata i32 0, i64 0, metadata !1166, metadata !732), !dbg !1645
  br label %for.body3.us, !dbg !1644

for.body3.us:                                     ; preds = %for.body3.us, %for.cond1.preheader.us
  %indvars.iv = phi i64 [ 0, %for.cond1.preheader.us ], [ %indvars.iv.next, %for.body3.us ]
  %0 = load %struct._IO_FILE*, %struct._IO_FILE** @fp, align 8, !dbg !1646, !tbaa !841
  %1 = load i32, i32* @Size, align 4, !dbg !1647, !tbaa !859
  %mul.us = mul nsw i32 %1, %inc7.sink18.us, !dbg !1648
  %idx.ext.us = sext i32 %mul.us to i64, !dbg !1649
  %add.ptr.us = getelementptr inbounds float, float* %ary, i64 %idx.ext.us, !dbg !1649
  %add.ptr5.us = getelementptr inbounds float, float* %add.ptr.us, i64 %indvars.iv, !dbg !1650
  %call.us = tail call i32 (%struct._IO_FILE*, i8*, ...) @fscanf(%struct._IO_FILE* %0, i8* getelementptr inbounds ([3 x i8], [3 x i8]* @.str.52, i64 0, i64 0), float* %add.ptr5.us), !dbg !1651
  %indvars.iv.next = add nuw nsw i64 %indvars.iv, 1, !dbg !1644
  %exitcond = icmp eq i64 %indvars.iv.next, %wide.trip.count, !dbg !1644
  br i1 %exitcond, label %for.cond1.for.inc6_crit_edge.us, label %for.body3.us, !dbg !1644, !llvm.loop !1191

for.cond1.for.inc6_crit_edge.us:                  ; preds = %for.body3.us
  %inc7.us = add nuw nsw i32 %inc7.sink18.us, 1, !dbg !1652
  tail call void @llvm.dbg.value(metadata i32 %inc7.us, i64 0, metadata !1165, metadata !732), !dbg !1640
  %exitcond21 = icmp eq i32 %inc7.us, %nrow, !dbg !1643
  br i1 %exitcond21, label %for.end8.loopexit, label %for.cond1.preheader.us, !dbg !1643, !llvm.loop !1195

for.end8.loopexit:                                ; preds = %for.cond1.for.inc6_crit_edge.us
  br label %for.end8, !dbg !1653

for.end8:                                         ; preds = %for.end8.loopexit, %entry
  ret void, !dbg !1653
}

; Function Attrs: nounwind uwtable
define void @_Z7InitAryPfi(float* %ary, i32 %ary_size) local_unnamed_addr #0 !dbg !1203 {
entry:
  tail call void @llvm.dbg.value(metadata float* %ary, i64 0, metadata !1202, metadata !732), !dbg !1654
  tail call void @llvm.dbg.value(metadata i32 %ary_size, i64 0, metadata !1205, metadata !732), !dbg !1655
  tail call void @llvm.dbg.value(metadata i32 0, i64 0, metadata !1206, metadata !732), !dbg !1656
  %cmp4 = icmp sgt i32 %ary_size, 0, !dbg !1657
  br i1 %cmp4, label %for.body.preheader, label %for.end, !dbg !1658

for.body.preheader:                               ; preds = %entry
  %wide.trip.count = zext i32 %ary_size to i64, !dbg !1658
  br label %for.body, !dbg !1659

for.body:                                         ; preds = %for.body.preheader, %for.body
  %indvars.iv = phi i64 [ %indvars.iv.next, %for.body ], [ 0, %for.body.preheader ]
  %0 = load %struct._IO_FILE*, %struct._IO_FILE** @fp, align 8, !dbg !1659, !tbaa !841
  %arrayidx = getelementptr inbounds float, float* %ary, i64 %indvars.iv, !dbg !1660
  %call = tail call i32 (%struct._IO_FILE*, i8*, ...) @fscanf(%struct._IO_FILE* %0, i8* getelementptr inbounds ([3 x i8], [3 x i8]* @.str.52, i64 0, i64 0), float* %arrayidx), !dbg !1661
  %indvars.iv.next = add nuw nsw i64 %indvars.iv, 1, !dbg !1658
  %exitcond = icmp eq i64 %indvars.iv.next, %wide.trip.count, !dbg !1658
  br i1 %exitcond, label %for.end.loopexit, label %for.body, !dbg !1658, !llvm.loop !1221

for.end.loopexit:                                 ; preds = %for.body
  br label %for.end, !dbg !1662

for.end:                                          ; preds = %for.end.loopexit, %entry
  ret void, !dbg !1662
}

; Function Attrs: uwtable
define void @_Z4Fan1PfS_ii(float* %m_cuda, float* %a_cuda, i32 %Size, i32 %t) #6 !dbg !1663 {
entry:
  %m_cuda.addr = alloca float*, align 8
  %a_cuda.addr = alloca float*, align 8
  %Size.addr = alloca i32, align 4
  %t.addr = alloca i32, align 4
  tail call void @llvm.dbg.value(metadata float* %m_cuda, i64 0, metadata !1667, metadata !732), !dbg !1671
  store float* %m_cuda, float** %m_cuda.addr, align 8, !tbaa !841
  tail call void @llvm.dbg.value(metadata float* %a_cuda, i64 0, metadata !1668, metadata !732), !dbg !1672
  store float* %a_cuda, float** %a_cuda.addr, align 8, !tbaa !841
  tail call void @llvm.dbg.value(metadata i32 %Size, i64 0, metadata !1669, metadata !732), !dbg !1673
  store i32 %Size, i32* %Size.addr, align 4, !tbaa !859
  tail call void @llvm.dbg.value(metadata i32 %t, i64 0, metadata !1670, metadata !732), !dbg !1674
  store i32 %t, i32* %t.addr, align 4, !tbaa !859
  %0 = bitcast float** %m_cuda.addr to i8*, !dbg !1675
  %1 = call i32 @cudaSetupArgument(i8* %0, i64 8, i64 0), !dbg !1675
  %2 = icmp eq i32 %1, 0, !dbg !1675
  br i1 %2, label %setup.next, label %setup.end, !dbg !1675

setup.next:                                       ; preds = %entry
  %3 = bitcast float** %a_cuda.addr to i8*, !dbg !1676
  %4 = call i32 @cudaSetupArgument(i8* %3, i64 8, i64 8), !dbg !1676
  %5 = icmp eq i32 %4, 0, !dbg !1676
  br i1 %5, label %setup.next1, label %setup.end, !dbg !1676

setup.next1:                                      ; preds = %setup.next
  %6 = bitcast i32* %Size.addr to i8*, !dbg !1678
  %7 = call i32 @cudaSetupArgument(i8* %6, i64 4, i64 16), !dbg !1678
  %8 = icmp eq i32 %7, 0, !dbg !1678
  br i1 %8, label %setup.next2, label %setup.end, !dbg !1678

setup.next2:                                      ; preds = %setup.next1
  %9 = bitcast i32* %t.addr to i8*, !dbg !1680
  %10 = call i32 @cudaSetupArgument(i8* %9, i64 4, i64 20), !dbg !1680
  %11 = icmp eq i32 %10, 0, !dbg !1680
  br i1 %11, label %setup.next3, label %setup.end, !dbg !1680

setup.next3:                                      ; preds = %setup.next2
  %12 = call i32 @cudaLaunch(i8* bitcast (void (float*, float*, i32, i32)* @_Z4Fan1PfS_ii to i8*)), !dbg !1682
  br label %setup.end, !dbg !1682

setup.end:                                        ; preds = %setup.next3, %setup.next2, %setup.next1, %setup.next, %entry
  ret void, !dbg !1684
}

declare i32 @cudaSetupArgument(i8*, i64, i64) local_unnamed_addr

declare i32 @cudaLaunch(i8*) local_unnamed_addr

; Function Attrs: uwtable
define void @_Z4Fan2PfS_S_iii(float* %m_cuda, float* %a_cuda, float* %b_cuda, i32 %Size, i32 %j1, i32 %t) #6 !dbg !1685 {
entry:
  %m_cuda.addr = alloca float*, align 8
  %a_cuda.addr = alloca float*, align 8
  %b_cuda.addr = alloca float*, align 8
  %Size.addr = alloca i32, align 4
  %j1.addr = alloca i32, align 4
  %t.addr = alloca i32, align 4
  tail call void @llvm.dbg.value(metadata float* %m_cuda, i64 0, metadata !1689, metadata !732), !dbg !1695
  store float* %m_cuda, float** %m_cuda.addr, align 8, !tbaa !841
  tail call void @llvm.dbg.value(metadata float* %a_cuda, i64 0, metadata !1690, metadata !732), !dbg !1696
  store float* %a_cuda, float** %a_cuda.addr, align 8, !tbaa !841
  tail call void @llvm.dbg.value(metadata float* %b_cuda, i64 0, metadata !1691, metadata !732), !dbg !1697
  store float* %b_cuda, float** %b_cuda.addr, align 8, !tbaa !841
  tail call void @llvm.dbg.value(metadata i32 %Size, i64 0, metadata !1692, metadata !732), !dbg !1698
  store i32 %Size, i32* %Size.addr, align 4, !tbaa !859
  tail call void @llvm.dbg.value(metadata i32 %j1, i64 0, metadata !1693, metadata !732), !dbg !1699
  store i32 %j1, i32* %j1.addr, align 4, !tbaa !859
  tail call void @llvm.dbg.value(metadata i32 %t, i64 0, metadata !1694, metadata !732), !dbg !1700
  store i32 %t, i32* %t.addr, align 4, !tbaa !859
  %0 = bitcast float** %m_cuda.addr to i8*, !dbg !1701
  %1 = call i32 @cudaSetupArgument(i8* %0, i64 8, i64 0), !dbg !1701
  %2 = icmp eq i32 %1, 0, !dbg !1701
  br i1 %2, label %setup.next, label %setup.end, !dbg !1701

setup.next:                                       ; preds = %entry
  %3 = bitcast float** %a_cuda.addr to i8*, !dbg !1702
  %4 = call i32 @cudaSetupArgument(i8* %3, i64 8, i64 8), !dbg !1702
  %5 = icmp eq i32 %4, 0, !dbg !1702
  br i1 %5, label %setup.next1, label %setup.end, !dbg !1702

setup.next1:                                      ; preds = %setup.next
  %6 = bitcast float** %b_cuda.addr to i8*, !dbg !1704
  %7 = call i32 @cudaSetupArgument(i8* %6, i64 8, i64 16), !dbg !1704
  %8 = icmp eq i32 %7, 0, !dbg !1704
  br i1 %8, label %setup.next2, label %setup.end, !dbg !1704

setup.next2:                                      ; preds = %setup.next1
  %9 = bitcast i32* %Size.addr to i8*, !dbg !1706
  %10 = call i32 @cudaSetupArgument(i8* %9, i64 4, i64 24), !dbg !1706
  %11 = icmp eq i32 %10, 0, !dbg !1706
  br i1 %11, label %setup.next3, label %setup.end, !dbg !1706

setup.next3:                                      ; preds = %setup.next2
  %12 = bitcast i32* %j1.addr to i8*, !dbg !1708
  %13 = call i32 @cudaSetupArgument(i8* %12, i64 4, i64 28), !dbg !1708
  %14 = icmp eq i32 %13, 0, !dbg !1708
  br i1 %14, label %setup.next4, label %setup.end, !dbg !1708

setup.next4:                                      ; preds = %setup.next3
  %15 = bitcast i32* %t.addr to i8*, !dbg !1710
  %16 = call i32 @cudaSetupArgument(i8* %15, i64 4, i64 32), !dbg !1710
  %17 = icmp eq i32 %16, 0, !dbg !1710
  br i1 %17, label %setup.next5, label %setup.end, !dbg !1710

setup.next5:                                      ; preds = %setup.next4
  %18 = call i32 @cudaLaunch(i8* bitcast (void (float*, float*, float*, i32, i32, i32)* @_Z4Fan2PfS_S_iii to i8*)), !dbg !1712
  br label %setup.end, !dbg !1712

setup.end:                                        ; preds = %setup.next5, %setup.next4, %setup.next3, %setup.next2, %setup.next1, %setup.next, %entry
  ret void, !dbg !1714
}

declare i32 @cudaMalloc(i8**, i64) local_unnamed_addr #7

declare i32 @cudaMemcpy(i8*, i8*, i64, i32) local_unnamed_addr #7

declare i32 @cudaConfigureCall(i64, i32, i64, i32, i64, %struct.CUstream_st*) local_unnamed_addr #7

; Function Attrs: argmemonly nounwind
declare void @llvm.memcpy.p0i8.p0i8.i64(i8* nocapture writeonly, i8* nocapture readonly, i64, i32, i1) #2

declare i32 @cudaThreadSynchronize() local_unnamed_addr #7

; Function Attrs: uwtable
define void @_Z14checkCUDAErrorPKc(i8* %msg) local_unnamed_addr #6 !dbg !1363 {
entry:
  tail call void @llvm.dbg.value(metadata i8* %msg, i64 0, metadata !1362, metadata !732), !dbg !1715
  %call = tail call i32 @cudaGetLastError(), !dbg !1716
  tail call void @llvm.dbg.value(metadata i32 %call, i64 0, metadata !1367, metadata !732), !dbg !1717
  %cmp = icmp eq i32 %call, 0, !dbg !1718
  br i1 %cmp, label %if.end, label %if.then, !dbg !1719

if.then:                                          ; preds = %entry
  %0 = load %struct._IO_FILE*, %struct._IO_FILE** @stderr, align 8, !dbg !1720, !tbaa !841
  %call1 = tail call i8* @cudaGetErrorString(i32 %call), !dbg !1721
  %call2 = tail call i32 (%struct._IO_FILE*, i8*, ...) @fprintf(%struct._IO_FILE* %0, i8* getelementptr inbounds ([21 x i8], [21 x i8]* @.str.56, i64 0, i64 0), i8* %msg, i8* %call1) #10, !dbg !1722
  tail call void @exit(i32 1) #9, !dbg !1723
  unreachable, !dbg !1723

if.end:                                           ; preds = %entry
  ret void, !dbg !1724
}

declare i32 @cudaFree(i8*) local_unnamed_addr #7

; Function Attrs: nounwind
declare i32 @fprintf(%struct._IO_FILE* nocapture, i8* nocapture readonly, ...) local_unnamed_addr #3

; Function Attrs: nounwind
declare i64 @strtol(i8* readonly, i8** nocapture, i32) local_unnamed_addr #3

; Function Attrs: nounwind readnone
declare void @llvm.dbg.value(metadata, i64, metadata, metadata) #1

; Function Attrs: nounwind
declare i32 @puts(i8* nocapture readonly) #8

declare i32 @putchar(i32)

attributes #0 = { nounwind uwtable "correctly-rounded-divide-sqrt-fp-math"="false" "disable-tail-calls"="false" "less-precise-fpmad"="false" "no-frame-pointer-elim"="false" "no-infs-fp-math"="false" "no-jump-tables"="false" "no-nans-fp-math"="false" "no-signed-zeros-fp-math"="false" "stack-protector-buffer-size"="8" "target-cpu"="x86-64" "target-features"="+fxsr,+mmx,+sse,+sse2,+x87" "unsafe-fp-math"="false" "use-soft-float"="false" }
attributes #1 = { nounwind readnone }
attributes #2 = { argmemonly nounwind }
attributes #3 = { nounwind "correctly-rounded-divide-sqrt-fp-math"="false" "disable-tail-calls"="false" "less-precise-fpmad"="false" "no-frame-pointer-elim"="false" "no-infs-fp-math"="false" "no-nans-fp-math"="false" "no-signed-zeros-fp-math"="false" "stack-protector-buffer-size"="8" "target-cpu"="x86-64" "target-features"="+fxsr,+mmx,+sse,+sse2,+x87" "unsafe-fp-math"="false" "use-soft-float"="false" }
attributes #4 = { norecurse uwtable "correctly-rounded-divide-sqrt-fp-math"="false" "disable-tail-calls"="false" "less-precise-fpmad"="false" "no-frame-pointer-elim"="false" "no-infs-fp-math"="false" "no-jump-tables"="false" "no-nans-fp-math"="false" "no-signed-zeros-fp-math"="false" "stack-protector-buffer-size"="8" "target-cpu"="x86-64" "target-features"="+fxsr,+mmx,+sse,+sse2,+x87" "unsafe-fp-math"="false" "use-soft-float"="false" }
attributes #5 = { noreturn nounwind "correctly-rounded-divide-sqrt-fp-math"="false" "disable-tail-calls"="false" "less-precise-fpmad"="false" "no-frame-pointer-elim"="false" "no-infs-fp-math"="false" "no-nans-fp-math"="false" "no-signed-zeros-fp-math"="false" "stack-protector-buffer-size"="8" "target-cpu"="x86-64" "target-features"="+fxsr,+mmx,+sse,+sse2,+x87" "unsafe-fp-math"="false" "use-soft-float"="false" }
attributes #6 = { uwtable "correctly-rounded-divide-sqrt-fp-math"="false" "disable-tail-calls"="false" "less-precise-fpmad"="false" "no-frame-pointer-elim"="false" "no-infs-fp-math"="false" "no-jump-tables"="false" "no-nans-fp-math"="false" "no-signed-zeros-fp-math"="false" "stack-protector-buffer-size"="8" "target-cpu"="x86-64" "target-features"="+fxsr,+mmx,+sse,+sse2,+x87" "unsafe-fp-math"="false" "use-soft-float"="false" }
attributes #7 = { "correctly-rounded-divide-sqrt-fp-math"="false" "disable-tail-calls"="false" "less-precise-fpmad"="false" "no-frame-pointer-elim"="false" "no-infs-fp-math"="false" "no-nans-fp-math"="false" "no-signed-zeros-fp-math"="false" "stack-protector-buffer-size"="8" "target-cpu"="x86-64" "target-features"="+fxsr,+mmx,+sse,+sse2,+x87" "unsafe-fp-math"="false" "use-soft-float"="false" }
attributes #8 = { nounwind }
attributes #9 = { noreturn nounwind }
attributes #10 = { cold }

!llvm.dbg.cu = !{!0}
!llvm.module.flags = !{!715, !716}
!llvm.ident = !{!717}

!0 = distinct !DICompileUnit(language: DW_LANG_C_plus_plus, file: !1, producer: "clang version 4.0.0 (trunk 279478) (llvm/trunk 279476)", isOptimized: true, runtimeVersion: 0, emissionKind: FullDebug, enums: !2, retainedTypes: !93, globals: !102, imports: !166)
!1 = !DIFile(filename: "Results/gaussian/gaussian.cu", directory: "/home/ec2-user/DynamicAnalyis")
!2 = !{!3, !86}
!3 = !DICompositeType(tag: DW_TAG_enumeration_type, name: "cudaError", file: !4, line: 151, size: 32, align: 32, elements: !5, identifier: "_ZTS9cudaError")
!4 = !DIFile(filename: "/usr/local/cuda/include/driver_types.h", directory: "/home/ec2-user/DynamicAnalyis")
!5 = !{!6, !7, !8, !9, !10, !11, !12, !13, !14, !15, !16, !17, !18, !19, !20, !21, !22, !23, !24, !25, !26, !27, !28, !29, !30, !31, !32, !33, !34, !35, !36, !37, !38, !39, !40, !41, !42, !43, !44, !45, !46, !47, !48, !49, !50, !51, !52, !53, !54, !55, !56, !57, !58, !59, !60, !61, !62, !63, !64, !65, !66, !67, !68, !69, !70, !71, !72, !73, !74, !75, !76, !77, !78, !79, !80, !81, !82, !83, !84, !85}
!6 = !DIEnumerator(name: "cudaSuccess", value: 0)
!7 = !DIEnumerator(name: "cudaErrorMissingConfiguration", value: 1)
!8 = !DIEnumerator(name: "cudaErrorMemoryAllocation", value: 2)
!9 = !DIEnumerator(name: "cudaErrorInitializationError", value: 3)
!10 = !DIEnumerator(name: "cudaErrorLaunchFailure", value: 4)
!11 = !DIEnumerator(name: "cudaErrorPriorLaunchFailure", value: 5)
!12 = !DIEnumerator(name: "cudaErrorLaunchTimeout", value: 6)
!13 = !DIEnumerator(name: "cudaErrorLaunchOutOfResources", value: 7)
!14 = !DIEnumerator(name: "cudaErrorInvalidDeviceFunction", value: 8)
!15 = !DIEnumerator(name: "cudaErrorInvalidConfiguration", value: 9)
!16 = !DIEnumerator(name: "cudaErrorInvalidDevice", value: 10)
!17 = !DIEnumerator(name: "cudaErrorInvalidValue", value: 11)
!18 = !DIEnumerator(name: "cudaErrorInvalidPitchValue", value: 12)
!19 = !DIEnumerator(name: "cudaErrorInvalidSymbol", value: 13)
!20 = !DIEnumerator(name: "cudaErrorMapBufferObjectFailed", value: 14)
!21 = !DIEnumerator(name: "cudaErrorUnmapBufferObjectFailed", value: 15)
!22 = !DIEnumerator(name: "cudaErrorInvalidHostPointer", value: 16)
!23 = !DIEnumerator(name: "cudaErrorInvalidDevicePointer", value: 17)
!24 = !DIEnumerator(name: "cudaErrorInvalidTexture", value: 18)
!25 = !DIEnumerator(name: "cudaErrorInvalidTextureBinding", value: 19)
!26 = !DIEnumerator(name: "cudaErrorInvalidChannelDescriptor", value: 20)
!27 = !DIEnumerator(name: "cudaErrorInvalidMemcpyDirection", value: 21)
!28 = !DIEnumerator(name: "cudaErrorAddressOfConstant", value: 22)
!29 = !DIEnumerator(name: "cudaErrorTextureFetchFailed", value: 23)
!30 = !DIEnumerator(name: "cudaErrorTextureNotBound", value: 24)
!31 = !DIEnumerator(name: "cudaErrorSynchronizationError", value: 25)
!32 = !DIEnumerator(name: "cudaErrorInvalidFilterSetting", value: 26)
!33 = !DIEnumerator(name: "cudaErrorInvalidNormSetting", value: 27)
!34 = !DIEnumerator(name: "cudaErrorMixedDeviceExecution", value: 28)
!35 = !DIEnumerator(name: "cudaErrorCudartUnloading", value: 29)
!36 = !DIEnumerator(name: "cudaErrorUnknown", value: 30)
!37 = !DIEnumerator(name: "cudaErrorNotYetImplemented", value: 31)
!38 = !DIEnumerator(name: "cudaErrorMemoryValueTooLarge", value: 32)
!39 = !DIEnumerator(name: "cudaErrorInvalidResourceHandle", value: 33)
!40 = !DIEnumerator(name: "cudaErrorNotReady", value: 34)
!41 = !DIEnumerator(name: "cudaErrorInsufficientDriver", value: 35)
!42 = !DIEnumerator(name: "cudaErrorSetOnActiveProcess", value: 36)
!43 = !DIEnumerator(name: "cudaErrorInvalidSurface", value: 37)
!44 = !DIEnumerator(name: "cudaErrorNoDevice", value: 38)
!45 = !DIEnumerator(name: "cudaErrorECCUncorrectable", value: 39)
!46 = !DIEnumerator(name: "cudaErrorSharedObjectSymbolNotFound", value: 40)
!47 = !DIEnumerator(name: "cudaErrorSharedObjectInitFailed", value: 41)
!48 = !DIEnumerator(name: "cudaErrorUnsupportedLimit", value: 42)
!49 = !DIEnumerator(name: "cudaErrorDuplicateVariableName", value: 43)
!50 = !DIEnumerator(name: "cudaErrorDuplicateTextureName", value: 44)
!51 = !DIEnumerator(name: "cudaErrorDuplicateSurfaceName", value: 45)
!52 = !DIEnumerator(name: "cudaErrorDevicesUnavailable", value: 46)
!53 = !DIEnumerator(name: "cudaErrorInvalidKernelImage", value: 47)
!54 = !DIEnumerator(name: "cudaErrorNoKernelImageForDevice", value: 48)
!55 = !DIEnumerator(name: "cudaErrorIncompatibleDriverContext", value: 49)
!56 = !DIEnumerator(name: "cudaErrorPeerAccessAlreadyEnabled", value: 50)
!57 = !DIEnumerator(name: "cudaErrorPeerAccessNotEnabled", value: 51)
!58 = !DIEnumerator(name: "cudaErrorDeviceAlreadyInUse", value: 54)
!59 = !DIEnumerator(name: "cudaErrorProfilerDisabled", value: 55)
!60 = !DIEnumerator(name: "cudaErrorProfilerNotInitialized", value: 56)
!61 = !DIEnumerator(name: "cudaErrorProfilerAlreadyStarted", value: 57)
!62 = !DIEnumerator(name: "cudaErrorProfilerAlreadyStopped", value: 58)
!63 = !DIEnumerator(name: "cudaErrorAssert", value: 59)
!64 = !DIEnumerator(name: "cudaErrorTooManyPeers", value: 60)
!65 = !DIEnumerator(name: "cudaErrorHostMemoryAlreadyRegistered", value: 61)
!66 = !DIEnumerator(name: "cudaErrorHostMemoryNotRegistered", value: 62)
!67 = !DIEnumerator(name: "cudaErrorOperatingSystem", value: 63)
!68 = !DIEnumerator(name: "cudaErrorPeerAccessUnsupported", value: 64)
!69 = !DIEnumerator(name: "cudaErrorLaunchMaxDepthExceeded", value: 65)
!70 = !DIEnumerator(name: "cudaErrorLaunchFileScopedTex", value: 66)
!71 = !DIEnumerator(name: "cudaErrorLaunchFileScopedSurf", value: 67)
!72 = !DIEnumerator(name: "cudaErrorSyncDepthExceeded", value: 68)
!73 = !DIEnumerator(name: "cudaErrorLaunchPendingCountExceeded", value: 69)
!74 = !DIEnumerator(name: "cudaErrorNotPermitted", value: 70)
!75 = !DIEnumerator(name: "cudaErrorNotSupported", value: 71)
!76 = !DIEnumerator(name: "cudaErrorHardwareStackError", value: 72)
!77 = !DIEnumerator(name: "cudaErrorIllegalInstruction", value: 73)
!78 = !DIEnumerator(name: "cudaErrorMisalignedAddress", value: 74)
!79 = !DIEnumerator(name: "cudaErrorInvalidAddressSpace", value: 75)
!80 = !DIEnumerator(name: "cudaErrorInvalidPc", value: 76)
!81 = !DIEnumerator(name: "cudaErrorIllegalAddress", value: 77)
!82 = !DIEnumerator(name: "cudaErrorInvalidPtx", value: 78)
!83 = !DIEnumerator(name: "cudaErrorInvalidGraphicsContext", value: 79)
!84 = !DIEnumerator(name: "cudaErrorStartupFailure", value: 127)
!85 = !DIEnumerator(name: "cudaErrorApiFailureBase", value: 10000)
!86 = !DICompositeType(tag: DW_TAG_enumeration_type, name: "cudaMemcpyKind", file: !4, line: 797, size: 32, align: 32, elements: !87, identifier: "_ZTS14cudaMemcpyKind")
!87 = !{!88, !89, !90, !91, !92}
!88 = !DIEnumerator(name: "cudaMemcpyHostToHost", value: 0)
!89 = !DIEnumerator(name: "cudaMemcpyHostToDevice", value: 1)
!90 = !DIEnumerator(name: "cudaMemcpyDeviceToHost", value: 2)
!91 = !DIEnumerator(name: "cudaMemcpyDeviceToDevice", value: 3)
!92 = !DIEnumerator(name: "cudaMemcpyDefault", value: 4)
!93 = !{!94, !96, !98, !99}
!94 = !DIDerivedType(tag: DW_TAG_pointer_type, baseType: !95, size: 64, align: 64)
!95 = !DIBasicType(name: "float", size: 32, align: 32, encoding: DW_ATE_float)
!96 = !DIDerivedType(tag: DW_TAG_pointer_type, baseType: !97, size: 64, align: 64)
!97 = !DIDerivedType(tag: DW_TAG_pointer_type, baseType: null, size: 64, align: 64)
!98 = !DIBasicType(name: "int", size: 32, align: 32, encoding: DW_ATE_signed)
!99 = !DIDerivedType(tag: DW_TAG_pointer_type, baseType: !100, size: 64, align: 64)
!100 = !DIDerivedType(tag: DW_TAG_pointer_type, baseType: !101, size: 64, align: 64)
!101 = !DIBasicType(name: "char", size: 8, align: 8, encoding: DW_ATE_signed_char)
!102 = !{!103, !104, !105, !106, !107, !108, !164}
!103 = distinct !DIGlobalVariable(name: "Size", scope: !0, file: !1, line: 43, type: !98, isLocal: false, isDefinition: true, variable: i32* @Size)
!104 = distinct !DIGlobalVariable(name: "a", scope: !0, file: !1, line: 44, type: !94, isLocal: false, isDefinition: true, variable: float** @a)
!105 = distinct !DIGlobalVariable(name: "b", scope: !0, file: !1, line: 44, type: !94, isLocal: false, isDefinition: true, variable: float** @b)
!106 = distinct !DIGlobalVariable(name: "finalVec", scope: !0, file: !1, line: 44, type: !94, isLocal: false, isDefinition: true, variable: float** @finalVec)
!107 = distinct !DIGlobalVariable(name: "m", scope: !0, file: !1, line: 45, type: !94, isLocal: false, isDefinition: true, variable: float** @m)
!108 = distinct !DIGlobalVariable(name: "fp", scope: !0, file: !1, line: 47, type: !109, isLocal: false, isDefinition: true, variable: %struct._IO_FILE** @fp)
!109 = !DIDerivedType(tag: DW_TAG_pointer_type, baseType: !110, size: 64, align: 64)
!110 = !DIDerivedType(tag: DW_TAG_typedef, name: "FILE", file: !111, line: 48, baseType: !112)
!111 = !DIFile(filename: "/usr/include/stdio.h", directory: "/home/ec2-user/DynamicAnalyis")
!112 = distinct !DICompositeType(tag: DW_TAG_structure_type, name: "_IO_FILE", file: !113, line: 246, size: 1728, align: 64, elements: !114, identifier: "_ZTS8_IO_FILE")
!113 = !DIFile(filename: "/usr/include/libio.h", directory: "/home/ec2-user/DynamicAnalyis")
!114 = !{!115, !116, !117, !118, !119, !120, !121, !122, !123, !124, !125, !126, !127, !130, !132, !133, !134, !138, !140, !142, !146, !149, !151, !152, !153, !154, !155, !159, !160}
!115 = !DIDerivedType(tag: DW_TAG_member, name: "_flags", scope: !112, file: !113, line: 247, baseType: !98, size: 32, align: 32)
!116 = !DIDerivedType(tag: DW_TAG_member, name: "_IO_read_ptr", scope: !112, file: !113, line: 252, baseType: !100, size: 64, align: 64, offset: 64)
!117 = !DIDerivedType(tag: DW_TAG_member, name: "_IO_read_end", scope: !112, file: !113, line: 253, baseType: !100, size: 64, align: 64, offset: 128)
!118 = !DIDerivedType(tag: DW_TAG_member, name: "_IO_read_base", scope: !112, file: !113, line: 254, baseType: !100, size: 64, align: 64, offset: 192)
!119 = !DIDerivedType(tag: DW_TAG_member, name: "_IO_write_base", scope: !112, file: !113, line: 255, baseType: !100, size: 64, align: 64, offset: 256)
!120 = !DIDerivedType(tag: DW_TAG_member, name: "_IO_write_ptr", scope: !112, file: !113, line: 256, baseType: !100, size: 64, align: 64, offset: 320)
!121 = !DIDerivedType(tag: DW_TAG_member, name: "_IO_write_end", scope: !112, file: !113, line: 257, baseType: !100, size: 64, align: 64, offset: 384)
!122 = !DIDerivedType(tag: DW_TAG_member, name: "_IO_buf_base", scope: !112, file: !113, line: 258, baseType: !100, size: 64, align: 64, offset: 448)
!123 = !DIDerivedType(tag: DW_TAG_member, name: "_IO_buf_end", scope: !112, file: !113, line: 259, baseType: !100, size: 64, align: 64, offset: 512)
!124 = !DIDerivedType(tag: DW_TAG_member, name: "_IO_save_base", scope: !112, file: !113, line: 261, baseType: !100, size: 64, align: 64, offset: 576)
!125 = !DIDerivedType(tag: DW_TAG_member, name: "_IO_backup_base", scope: !112, file: !113, line: 262, baseType: !100, size: 64, align: 64, offset: 640)
!126 = !DIDerivedType(tag: DW_TAG_member, name: "_IO_save_end", scope: !112, file: !113, line: 263, baseType: !100, size: 64, align: 64, offset: 704)
!127 = !DIDerivedType(tag: DW_TAG_member, name: "_markers", scope: !112, file: !113, line: 265, baseType: !128, size: 64, align: 64, offset: 768)
!128 = !DIDerivedType(tag: DW_TAG_pointer_type, baseType: !129, size: 64, align: 64)
!129 = !DICompositeType(tag: DW_TAG_structure_type, name: "_IO_marker", file: !113, line: 161, size: 192, align: 64, flags: DIFlagFwdDecl, identifier: "_ZTS10_IO_marker")
!130 = !DIDerivedType(tag: DW_TAG_member, name: "_chain", scope: !112, file: !113, line: 267, baseType: !131, size: 64, align: 64, offset: 832)
!131 = !DIDerivedType(tag: DW_TAG_pointer_type, baseType: !112, size: 64, align: 64)
!132 = !DIDerivedType(tag: DW_TAG_member, name: "_fileno", scope: !112, file: !113, line: 269, baseType: !98, size: 32, align: 32, offset: 896)
!133 = !DIDerivedType(tag: DW_TAG_member, name: "_flags2", scope: !112, file: !113, line: 273, baseType: !98, size: 32, align: 32, offset: 928)
!134 = !DIDerivedType(tag: DW_TAG_member, name: "_old_offset", scope: !112, file: !113, line: 275, baseType: !135, size: 64, align: 64, offset: 960)
!135 = !DIDerivedType(tag: DW_TAG_typedef, name: "__off_t", file: !136, line: 140, baseType: !137)
!136 = !DIFile(filename: "/usr/include/bits/types.h", directory: "/home/ec2-user/DynamicAnalyis")
!137 = !DIBasicType(name: "long int", size: 64, align: 64, encoding: DW_ATE_signed)
!138 = !DIDerivedType(tag: DW_TAG_member, name: "_cur_column", scope: !112, file: !113, line: 279, baseType: !139, size: 16, align: 16, offset: 1024)
!139 = !DIBasicType(name: "unsigned short", size: 16, align: 16, encoding: DW_ATE_unsigned)
!140 = !DIDerivedType(tag: DW_TAG_member, name: "_vtable_offset", scope: !112, file: !113, line: 280, baseType: !141, size: 8, align: 8, offset: 1040)
!141 = !DIBasicType(name: "signed char", size: 8, align: 8, encoding: DW_ATE_signed_char)
!142 = !DIDerivedType(tag: DW_TAG_member, name: "_shortbuf", scope: !112, file: !113, line: 281, baseType: !143, size: 8, align: 8, offset: 1048)
!143 = !DICompositeType(tag: DW_TAG_array_type, baseType: !101, size: 8, align: 8, elements: !144)
!144 = !{!145}
!145 = !DISubrange(count: 1)
!146 = !DIDerivedType(tag: DW_TAG_member, name: "_lock", scope: !112, file: !113, line: 285, baseType: !147, size: 64, align: 64, offset: 1088)
!147 = !DIDerivedType(tag: DW_TAG_pointer_type, baseType: !148, size: 64, align: 64)
!148 = !DIDerivedType(tag: DW_TAG_typedef, name: "_IO_lock_t", file: !113, line: 155, baseType: null)
!149 = !DIDerivedType(tag: DW_TAG_member, name: "_offset", scope: !112, file: !113, line: 294, baseType: !150, size: 64, align: 64, offset: 1152)
!150 = !DIDerivedType(tag: DW_TAG_typedef, name: "__off64_t", file: !136, line: 141, baseType: !137)
!151 = !DIDerivedType(tag: DW_TAG_member, name: "__pad1", scope: !112, file: !113, line: 303, baseType: !97, size: 64, align: 64, offset: 1216)
!152 = !DIDerivedType(tag: DW_TAG_member, name: "__pad2", scope: !112, file: !113, line: 304, baseType: !97, size: 64, align: 64, offset: 1280)
!153 = !DIDerivedType(tag: DW_TAG_member, name: "__pad3", scope: !112, file: !113, line: 305, baseType: !97, size: 64, align: 64, offset: 1344)
!154 = !DIDerivedType(tag: DW_TAG_member, name: "__pad4", scope: !112, file: !113, line: 306, baseType: !97, size: 64, align: 64, offset: 1408)
!155 = !DIDerivedType(tag: DW_TAG_member, name: "__pad5", scope: !112, file: !113, line: 307, baseType: !156, size: 64, align: 64, offset: 1472)
!156 = !DIDerivedType(tag: DW_TAG_typedef, name: "size_t", file: !157, line: 62, baseType: !158)
!157 = !DIFile(filename: "/usr/local/bin/../lib/clang/4.0.0/include/stddef.h", directory: "/home/ec2-user/DynamicAnalyis")
!158 = !DIBasicType(name: "long unsigned int", size: 64, align: 64, encoding: DW_ATE_unsigned)
!159 = !DIDerivedType(tag: DW_TAG_member, name: "_mode", scope: !112, file: !113, line: 309, baseType: !98, size: 32, align: 32, offset: 1536)
!160 = !DIDerivedType(tag: DW_TAG_member, name: "_unused2", scope: !112, file: !113, line: 311, baseType: !161, size: 160, align: 8, offset: 1568)
!161 = !DICompositeType(tag: DW_TAG_array_type, baseType: !101, size: 160, align: 8, elements: !162)
!162 = !{!163}
!163 = !DISubrange(count: 20)
!164 = distinct !DIGlobalVariable(name: "totalKernelTime", scope: !0, file: !1, line: 62, type: !165, isLocal: false, isDefinition: true, variable: i32* @totalKernelTime)
!165 = !DIBasicType(name: "unsigned int", size: 32, align: 32, encoding: DW_ATE_unsigned)
!166 = !{!167, !174, !178, !180, !182, !184, !186, !190, !192, !194, !196, !198, !200, !202, !204, !206, !208, !210, !212, !214, !216, !218, !222, !224, !226, !228, !232, !237, !239, !241, !246, !250, !252, !254, !256, !258, !260, !262, !264, !266, !270, !274, !276, !278, !282, !284, !286, !288, !290, !292, !296, !298, !300, !304, !311, !315, !317, !319, !323, !325, !327, !331, !333, !335, !339, !341, !343, !345, !347, !349, !351, !353, !355, !357, !362, !364, !366, !370, !372, !374, !376, !378, !380, !382, !384, !388, !392, !394, !396, !401, !403, !405, !407, !409, !411, !413, !417, !423, !427, !431, !436, !439, !445, !449, !459, !463, !467, !471, !475, !479, !481, !485, !489, !493, !501, !505, !509, !513, !517, !521, !526, !530, !534, !536, !544, !548, !556, !558, !560, !564, !568, !572, !577, !581, !586, !587, !588, !589, !592, !593, !594, !595, !596, !597, !598, !601, !603, !605, !607, !609, !611, !613, !615, !618, !620, !622, !624, !626, !628, !630, !632, !634, !636, !638, !640, !642, !644, !646, !648, !650, !652, !654, !656, !658, !660, !662, !664, !666, !668, !670, !672, !674, !676, !678, !680, !682, !686, !687, !689, !691, !693, !695, !697, !699, !701, !703, !705, !707, !709, !711, !713}
!167 = !DIImportedEntity(tag: DW_TAG_imported_declaration, scope: !168, entity: !170, line: 189)
!168 = !DINamespace(name: "std", scope: null, file: !169, line: 188)
!169 = !DIFile(filename: "/usr/local/bin/../lib/clang/4.0.0/include/__clang_cuda_math_forward_declares.h", directory: "/home/ec2-user/DynamicAnalyis")
!170 = !DISubprogram(name: "abs", linkageName: "_ZL3absx", scope: !169, file: !169, line: 44, type: !171, isLocal: true, isDefinition: false, flags: DIFlagPrototyped, isOptimized: true)
!171 = !DISubroutineType(types: !172)
!172 = !{!173, !173}
!173 = !DIBasicType(name: "long long int", size: 64, align: 64, encoding: DW_ATE_signed)
!174 = !DIImportedEntity(tag: DW_TAG_imported_declaration, scope: !168, entity: !175, line: 190)
!175 = !DISubprogram(name: "acos", linkageName: "_ZL4acosf", scope: !169, file: !169, line: 46, type: !176, isLocal: true, isDefinition: false, flags: DIFlagPrototyped, isOptimized: true)
!176 = !DISubroutineType(types: !177)
!177 = !{!95, !95}
!178 = !DIImportedEntity(tag: DW_TAG_imported_declaration, scope: !168, entity: !179, line: 191)
!179 = !DISubprogram(name: "acosh", linkageName: "_ZL5acoshf", scope: !169, file: !169, line: 48, type: !176, isLocal: true, isDefinition: false, flags: DIFlagPrototyped, isOptimized: true)
!180 = !DIImportedEntity(tag: DW_TAG_imported_declaration, scope: !168, entity: !181, line: 192)
!181 = !DISubprogram(name: "asin", linkageName: "_ZL4asinf", scope: !169, file: !169, line: 50, type: !176, isLocal: true, isDefinition: false, flags: DIFlagPrototyped, isOptimized: true)
!182 = !DIImportedEntity(tag: DW_TAG_imported_declaration, scope: !168, entity: !183, line: 193)
!183 = !DISubprogram(name: "asinh", linkageName: "_ZL5asinhf", scope: !169, file: !169, line: 52, type: !176, isLocal: true, isDefinition: false, flags: DIFlagPrototyped, isOptimized: true)
!184 = !DIImportedEntity(tag: DW_TAG_imported_declaration, scope: !168, entity: !185, line: 194)
!185 = !DISubprogram(name: "atan", linkageName: "_ZL4atanf", scope: !169, file: !169, line: 56, type: !176, isLocal: true, isDefinition: false, flags: DIFlagPrototyped, isOptimized: true)
!186 = !DIImportedEntity(tag: DW_TAG_imported_declaration, scope: !168, entity: !187, line: 195)
!187 = !DISubprogram(name: "atan2", linkageName: "_ZL5atan2ff", scope: !169, file: !169, line: 54, type: !188, isLocal: true, isDefinition: false, flags: DIFlagPrototyped, isOptimized: true)
!188 = !DISubroutineType(types: !189)
!189 = !{!95, !95, !95}
!190 = !DIImportedEntity(tag: DW_TAG_imported_declaration, scope: !168, entity: !191, line: 196)
!191 = !DISubprogram(name: "atanh", linkageName: "_ZL5atanhf", scope: !169, file: !169, line: 58, type: !176, isLocal: true, isDefinition: false, flags: DIFlagPrototyped, isOptimized: true)
!192 = !DIImportedEntity(tag: DW_TAG_imported_declaration, scope: !168, entity: !193, line: 197)
!193 = !DISubprogram(name: "cbrt", linkageName: "_ZL4cbrtf", scope: !169, file: !169, line: 60, type: !176, isLocal: true, isDefinition: false, flags: DIFlagPrototyped, isOptimized: true)
!194 = !DIImportedEntity(tag: DW_TAG_imported_declaration, scope: !168, entity: !195, line: 198)
!195 = !DISubprogram(name: "ceil", linkageName: "_ZL4ceilf", scope: !169, file: !169, line: 62, type: !176, isLocal: true, isDefinition: false, flags: DIFlagPrototyped, isOptimized: true)
!196 = !DIImportedEntity(tag: DW_TAG_imported_declaration, scope: !168, entity: !197, line: 199)
!197 = !DISubprogram(name: "copysign", linkageName: "_ZL8copysignff", scope: !169, file: !169, line: 64, type: !188, isLocal: true, isDefinition: false, flags: DIFlagPrototyped, isOptimized: true)
!198 = !DIImportedEntity(tag: DW_TAG_imported_declaration, scope: !168, entity: !199, line: 200)
!199 = !DISubprogram(name: "cos", linkageName: "_ZL3cosf", scope: !169, file: !169, line: 66, type: !176, isLocal: true, isDefinition: false, flags: DIFlagPrototyped, isOptimized: true)
!200 = !DIImportedEntity(tag: DW_TAG_imported_declaration, scope: !168, entity: !201, line: 201)
!201 = !DISubprogram(name: "cosh", linkageName: "_ZL4coshf", scope: !169, file: !169, line: 68, type: !176, isLocal: true, isDefinition: false, flags: DIFlagPrototyped, isOptimized: true)
!202 = !DIImportedEntity(tag: DW_TAG_imported_declaration, scope: !168, entity: !203, line: 202)
!203 = !DISubprogram(name: "erf", linkageName: "_ZL3erff", scope: !169, file: !169, line: 72, type: !176, isLocal: true, isDefinition: false, flags: DIFlagPrototyped, isOptimized: true)
!204 = !DIImportedEntity(tag: DW_TAG_imported_declaration, scope: !168, entity: !205, line: 203)
!205 = !DISubprogram(name: "erfc", linkageName: "_ZL4erfcf", scope: !169, file: !169, line: 70, type: !176, isLocal: true, isDefinition: false, flags: DIFlagPrototyped, isOptimized: true)
!206 = !DIImportedEntity(tag: DW_TAG_imported_declaration, scope: !168, entity: !207, line: 204)
!207 = !DISubprogram(name: "exp", linkageName: "_ZL3expf", scope: !169, file: !169, line: 76, type: !176, isLocal: true, isDefinition: false, flags: DIFlagPrototyped, isOptimized: true)
!208 = !DIImportedEntity(tag: DW_TAG_imported_declaration, scope: !168, entity: !209, line: 205)
!209 = !DISubprogram(name: "exp2", linkageName: "_ZL4exp2f", scope: !169, file: !169, line: 74, type: !176, isLocal: true, isDefinition: false, flags: DIFlagPrototyped, isOptimized: true)
!210 = !DIImportedEntity(tag: DW_TAG_imported_declaration, scope: !168, entity: !211, line: 206)
!211 = !DISubprogram(name: "expm1", linkageName: "_ZL5expm1f", scope: !169, file: !169, line: 78, type: !176, isLocal: true, isDefinition: false, flags: DIFlagPrototyped, isOptimized: true)
!212 = !DIImportedEntity(tag: DW_TAG_imported_declaration, scope: !168, entity: !213, line: 207)
!213 = !DISubprogram(name: "fabs", linkageName: "_ZL4fabsf", scope: !169, file: !169, line: 80, type: !176, isLocal: true, isDefinition: false, flags: DIFlagPrototyped, isOptimized: true)
!214 = !DIImportedEntity(tag: DW_TAG_imported_declaration, scope: !168, entity: !215, line: 208)
!215 = !DISubprogram(name: "fdim", linkageName: "_ZL4fdimff", scope: !169, file: !169, line: 82, type: !188, isLocal: true, isDefinition: false, flags: DIFlagPrototyped, isOptimized: true)
!216 = !DIImportedEntity(tag: DW_TAG_imported_declaration, scope: !168, entity: !217, line: 209)
!217 = !DISubprogram(name: "floor", linkageName: "_ZL5floorf", scope: !169, file: !169, line: 84, type: !176, isLocal: true, isDefinition: false, flags: DIFlagPrototyped, isOptimized: true)
!218 = !DIImportedEntity(tag: DW_TAG_imported_declaration, scope: !168, entity: !219, line: 210)
!219 = !DISubprogram(name: "fma", linkageName: "_ZL3fmafff", scope: !169, file: !169, line: 86, type: !220, isLocal: true, isDefinition: false, flags: DIFlagPrototyped, isOptimized: true)
!220 = !DISubroutineType(types: !221)
!221 = !{!95, !95, !95, !95}
!222 = !DIImportedEntity(tag: DW_TAG_imported_declaration, scope: !168, entity: !223, line: 211)
!223 = !DISubprogram(name: "fmax", linkageName: "_ZL4fmaxff", scope: !169, file: !169, line: 88, type: !188, isLocal: true, isDefinition: false, flags: DIFlagPrototyped, isOptimized: true)
!224 = !DIImportedEntity(tag: DW_TAG_imported_declaration, scope: !168, entity: !225, line: 212)
!225 = !DISubprogram(name: "fmin", linkageName: "_ZL4fminff", scope: !169, file: !169, line: 90, type: !188, isLocal: true, isDefinition: false, flags: DIFlagPrototyped, isOptimized: true)
!226 = !DIImportedEntity(tag: DW_TAG_imported_declaration, scope: !168, entity: !227, line: 213)
!227 = !DISubprogram(name: "fmod", linkageName: "_ZL4fmodff", scope: !169, file: !169, line: 92, type: !188, isLocal: true, isDefinition: false, flags: DIFlagPrototyped, isOptimized: true)
!228 = !DIImportedEntity(tag: DW_TAG_imported_declaration, scope: !168, entity: !229, line: 214)
!229 = !DISubprogram(name: "fpclassify", linkageName: "_ZL10fpclassifyf", scope: !169, file: !169, line: 94, type: !230, isLocal: true, isDefinition: false, flags: DIFlagPrototyped, isOptimized: true)
!230 = !DISubroutineType(types: !231)
!231 = !{!98, !95}
!232 = !DIImportedEntity(tag: DW_TAG_imported_declaration, scope: !168, entity: !233, line: 215)
!233 = !DISubprogram(name: "frexp", linkageName: "_ZL5frexpfPi", scope: !169, file: !169, line: 96, type: !234, isLocal: true, isDefinition: false, flags: DIFlagPrototyped, isOptimized: true)
!234 = !DISubroutineType(types: !235)
!235 = !{!95, !95, !236}
!236 = !DIDerivedType(tag: DW_TAG_pointer_type, baseType: !98, size: 64, align: 64)
!237 = !DIImportedEntity(tag: DW_TAG_imported_declaration, scope: !168, entity: !238, line: 216)
!238 = !DISubprogram(name: "hypot", linkageName: "_ZL5hypotff", scope: !169, file: !169, line: 98, type: !188, isLocal: true, isDefinition: false, flags: DIFlagPrototyped, isOptimized: true)
!239 = !DIImportedEntity(tag: DW_TAG_imported_declaration, scope: !168, entity: !240, line: 217)
!240 = !DISubprogram(name: "ilogb", linkageName: "_ZL5ilogbf", scope: !169, file: !169, line: 100, type: !230, isLocal: true, isDefinition: false, flags: DIFlagPrototyped, isOptimized: true)
!241 = !DIImportedEntity(tag: DW_TAG_imported_declaration, scope: !168, entity: !242, line: 218)
!242 = !DISubprogram(name: "isfinite", linkageName: "_ZL8isfinitef", scope: !169, file: !169, line: 102, type: !243, isLocal: true, isDefinition: false, flags: DIFlagPrototyped, isOptimized: true)
!243 = !DISubroutineType(types: !244)
!244 = !{!245, !95}
!245 = !DIBasicType(name: "bool", size: 8, align: 8, encoding: DW_ATE_boolean)
!246 = !DIImportedEntity(tag: DW_TAG_imported_declaration, scope: !168, entity: !247, line: 219)
!247 = !DISubprogram(name: "isgreater", linkageName: "_ZL9isgreaterff", scope: !169, file: !169, line: 106, type: !248, isLocal: true, isDefinition: false, flags: DIFlagPrototyped, isOptimized: true)
!248 = !DISubroutineType(types: !249)
!249 = !{!245, !95, !95}
!250 = !DIImportedEntity(tag: DW_TAG_imported_declaration, scope: !168, entity: !251, line: 220)
!251 = !DISubprogram(name: "isgreaterequal", linkageName: "_ZL14isgreaterequalff", scope: !169, file: !169, line: 105, type: !248, isLocal: true, isDefinition: false, flags: DIFlagPrototyped, isOptimized: true)
!252 = !DIImportedEntity(tag: DW_TAG_imported_declaration, scope: !168, entity: !253, line: 221)
!253 = !DISubprogram(name: "isinf", linkageName: "_ZL5isinff", scope: !169, file: !169, line: 108, type: !243, isLocal: true, isDefinition: false, flags: DIFlagPrototyped, isOptimized: true)
!254 = !DIImportedEntity(tag: DW_TAG_imported_declaration, scope: !168, entity: !255, line: 222)
!255 = !DISubprogram(name: "isless", linkageName: "_ZL6islessff", scope: !169, file: !169, line: 112, type: !248, isLocal: true, isDefinition: false, flags: DIFlagPrototyped, isOptimized: true)
!256 = !DIImportedEntity(tag: DW_TAG_imported_declaration, scope: !168, entity: !257, line: 223)
!257 = !DISubprogram(name: "islessequal", linkageName: "_ZL11islessequalff", scope: !169, file: !169, line: 111, type: !248, isLocal: true, isDefinition: false, flags: DIFlagPrototyped, isOptimized: true)
!258 = !DIImportedEntity(tag: DW_TAG_imported_declaration, scope: !168, entity: !259, line: 224)
!259 = !DISubprogram(name: "islessgreater", linkageName: "_ZL13islessgreaterff", scope: !169, file: !169, line: 114, type: !248, isLocal: true, isDefinition: false, flags: DIFlagPrototyped, isOptimized: true)
!260 = !DIImportedEntity(tag: DW_TAG_imported_declaration, scope: !168, entity: !261, line: 225)
!261 = !DISubprogram(name: "isnan", linkageName: "_ZL5isnanf", scope: !169, file: !169, line: 116, type: !243, isLocal: true, isDefinition: false, flags: DIFlagPrototyped, isOptimized: true)
!262 = !DIImportedEntity(tag: DW_TAG_imported_declaration, scope: !168, entity: !263, line: 226)
!263 = !DISubprogram(name: "isnormal", linkageName: "_ZL8isnormalf", scope: !169, file: !169, line: 118, type: !243, isLocal: true, isDefinition: false, flags: DIFlagPrototyped, isOptimized: true)
!264 = !DIImportedEntity(tag: DW_TAG_imported_declaration, scope: !168, entity: !265, line: 227)
!265 = !DISubprogram(name: "isunordered", linkageName: "_ZL11isunorderedff", scope: !169, file: !169, line: 120, type: !248, isLocal: true, isDefinition: false, flags: DIFlagPrototyped, isOptimized: true)
!266 = !DIImportedEntity(tag: DW_TAG_imported_declaration, scope: !168, entity: !267, line: 228)
!267 = !DISubprogram(name: "labs", linkageName: "_ZL4labsl", scope: !169, file: !169, line: 121, type: !268, isLocal: true, isDefinition: false, flags: DIFlagPrototyped, isOptimized: true)
!268 = !DISubroutineType(types: !269)
!269 = !{!137, !137}
!270 = !DIImportedEntity(tag: DW_TAG_imported_declaration, scope: !168, entity: !271, line: 229)
!271 = !DISubprogram(name: "ldexp", linkageName: "_ZL5ldexpfi", scope: !169, file: !169, line: 123, type: !272, isLocal: true, isDefinition: false, flags: DIFlagPrototyped, isOptimized: true)
!272 = !DISubroutineType(types: !273)
!273 = !{!95, !95, !98}
!274 = !DIImportedEntity(tag: DW_TAG_imported_declaration, scope: !168, entity: !275, line: 230)
!275 = !DISubprogram(name: "lgamma", linkageName: "_ZL6lgammaf", scope: !169, file: !169, line: 125, type: !176, isLocal: true, isDefinition: false, flags: DIFlagPrototyped, isOptimized: true)
!276 = !DIImportedEntity(tag: DW_TAG_imported_declaration, scope: !168, entity: !277, line: 231)
!277 = !DISubprogram(name: "llabs", linkageName: "_ZL5llabsx", scope: !169, file: !169, line: 126, type: !171, isLocal: true, isDefinition: false, flags: DIFlagPrototyped, isOptimized: true)
!278 = !DIImportedEntity(tag: DW_TAG_imported_declaration, scope: !168, entity: !279, line: 232)
!279 = !DISubprogram(name: "llrint", linkageName: "_ZL6llrintf", scope: !169, file: !169, line: 128, type: !280, isLocal: true, isDefinition: false, flags: DIFlagPrototyped, isOptimized: true)
!280 = !DISubroutineType(types: !281)
!281 = !{!173, !95}
!282 = !DIImportedEntity(tag: DW_TAG_imported_declaration, scope: !168, entity: !283, line: 233)
!283 = !DISubprogram(name: "log", linkageName: "_ZL3logf", scope: !169, file: !169, line: 138, type: !176, isLocal: true, isDefinition: false, flags: DIFlagPrototyped, isOptimized: true)
!284 = !DIImportedEntity(tag: DW_TAG_imported_declaration, scope: !168, entity: !285, line: 234)
!285 = !DISubprogram(name: "log10", linkageName: "_ZL5log10f", scope: !169, file: !169, line: 130, type: !176, isLocal: true, isDefinition: false, flags: DIFlagPrototyped, isOptimized: true)
!286 = !DIImportedEntity(tag: DW_TAG_imported_declaration, scope: !168, entity: !287, line: 235)
!287 = !DISubprogram(name: "log1p", linkageName: "_ZL5log1pf", scope: !169, file: !169, line: 132, type: !176, isLocal: true, isDefinition: false, flags: DIFlagPrototyped, isOptimized: true)
!288 = !DIImportedEntity(tag: DW_TAG_imported_declaration, scope: !168, entity: !289, line: 236)
!289 = !DISubprogram(name: "log2", linkageName: "_ZL4log2f", scope: !169, file: !169, line: 134, type: !176, isLocal: true, isDefinition: false, flags: DIFlagPrototyped, isOptimized: true)
!290 = !DIImportedEntity(tag: DW_TAG_imported_declaration, scope: !168, entity: !291, line: 237)
!291 = !DISubprogram(name: "logb", linkageName: "_ZL4logbf", scope: !169, file: !169, line: 136, type: !176, isLocal: true, isDefinition: false, flags: DIFlagPrototyped, isOptimized: true)
!292 = !DIImportedEntity(tag: DW_TAG_imported_declaration, scope: !168, entity: !293, line: 238)
!293 = !DISubprogram(name: "lrint", linkageName: "_ZL5lrintf", scope: !169, file: !169, line: 140, type: !294, isLocal: true, isDefinition: false, flags: DIFlagPrototyped, isOptimized: true)
!294 = !DISubroutineType(types: !295)
!295 = !{!137, !95}
!296 = !DIImportedEntity(tag: DW_TAG_imported_declaration, scope: !168, entity: !297, line: 239)
!297 = !DISubprogram(name: "lround", linkageName: "_ZL6lroundf", scope: !169, file: !169, line: 142, type: !294, isLocal: true, isDefinition: false, flags: DIFlagPrototyped, isOptimized: true)
!298 = !DIImportedEntity(tag: DW_TAG_imported_declaration, scope: !168, entity: !299, line: 240)
!299 = !DISubprogram(name: "llround", linkageName: "_ZL7llroundf", scope: !169, file: !169, line: 143, type: !280, isLocal: true, isDefinition: false, flags: DIFlagPrototyped, isOptimized: true)
!300 = !DIImportedEntity(tag: DW_TAG_imported_declaration, scope: !168, entity: !301, line: 241)
!301 = !DISubprogram(name: "modf", linkageName: "_ZL4modffPf", scope: !169, file: !169, line: 145, type: !302, isLocal: true, isDefinition: false, flags: DIFlagPrototyped, isOptimized: true)
!302 = !DISubroutineType(types: !303)
!303 = !{!95, !95, !94}
!304 = !DIImportedEntity(tag: DW_TAG_imported_declaration, scope: !168, entity: !305, line: 242)
!305 = !DISubprogram(name: "nan", linkageName: "_ZL3nanPKc", scope: !169, file: !169, line: 146, type: !306, isLocal: true, isDefinition: false, flags: DIFlagPrototyped, isOptimized: true)
!306 = !DISubroutineType(types: !307)
!307 = !{!308, !309}
!308 = !DIBasicType(name: "double", size: 64, align: 64, encoding: DW_ATE_float)
!309 = !DIDerivedType(tag: DW_TAG_pointer_type, baseType: !310, size: 64, align: 64)
!310 = !DIDerivedType(tag: DW_TAG_const_type, baseType: !101)
!311 = !DIImportedEntity(tag: DW_TAG_imported_declaration, scope: !168, entity: !312, line: 243)
!312 = !DISubprogram(name: "nanf", linkageName: "_ZL4nanfPKc", scope: !169, file: !169, line: 147, type: !313, isLocal: true, isDefinition: false, flags: DIFlagPrototyped, isOptimized: true)
!313 = !DISubroutineType(types: !314)
!314 = !{!95, !309}
!315 = !DIImportedEntity(tag: DW_TAG_imported_declaration, scope: !168, entity: !316, line: 244)
!316 = !DISubprogram(name: "nearbyint", linkageName: "_ZL9nearbyintf", scope: !169, file: !169, line: 149, type: !176, isLocal: true, isDefinition: false, flags: DIFlagPrototyped, isOptimized: true)
!317 = !DIImportedEntity(tag: DW_TAG_imported_declaration, scope: !168, entity: !318, line: 245)
!318 = !DISubprogram(name: "nextafter", linkageName: "_ZL9nextafterff", scope: !169, file: !169, line: 151, type: !188, isLocal: true, isDefinition: false, flags: DIFlagPrototyped, isOptimized: true)
!319 = !DIImportedEntity(tag: DW_TAG_imported_declaration, scope: !168, entity: !320, line: 246)
!320 = !DISubprogram(name: "nexttoward", linkageName: "_ZL10nexttowardfd", scope: !169, file: !169, line: 153, type: !321, isLocal: true, isDefinition: false, flags: DIFlagPrototyped, isOptimized: true)
!321 = !DISubroutineType(types: !322)
!322 = !{!95, !95, !308}
!323 = !DIImportedEntity(tag: DW_TAG_imported_declaration, scope: !168, entity: !324, line: 247)
!324 = !DISubprogram(name: "pow", linkageName: "_ZL3powfi", scope: !169, file: !169, line: 158, type: !272, isLocal: true, isDefinition: false, flags: DIFlagPrototyped, isOptimized: true)
!325 = !DIImportedEntity(tag: DW_TAG_imported_declaration, scope: !168, entity: !326, line: 248)
!326 = !DISubprogram(name: "remainder", linkageName: "_ZL9remainderff", scope: !169, file: !169, line: 160, type: !188, isLocal: true, isDefinition: false, flags: DIFlagPrototyped, isOptimized: true)
!327 = !DIImportedEntity(tag: DW_TAG_imported_declaration, scope: !168, entity: !328, line: 249)
!328 = !DISubprogram(name: "remquo", linkageName: "_ZL6remquoffPi", scope: !169, file: !169, line: 162, type: !329, isLocal: true, isDefinition: false, flags: DIFlagPrototyped, isOptimized: true)
!329 = !DISubroutineType(types: !330)
!330 = !{!95, !95, !95, !236}
!331 = !DIImportedEntity(tag: DW_TAG_imported_declaration, scope: !168, entity: !332, line: 250)
!332 = !DISubprogram(name: "rint", linkageName: "_ZL4rintf", scope: !169, file: !169, line: 164, type: !176, isLocal: true, isDefinition: false, flags: DIFlagPrototyped, isOptimized: true)
!333 = !DIImportedEntity(tag: DW_TAG_imported_declaration, scope: !168, entity: !334, line: 251)
!334 = !DISubprogram(name: "round", linkageName: "_ZL5roundf", scope: !169, file: !169, line: 166, type: !176, isLocal: true, isDefinition: false, flags: DIFlagPrototyped, isOptimized: true)
!335 = !DIImportedEntity(tag: DW_TAG_imported_declaration, scope: !168, entity: !336, line: 252)
!336 = !DISubprogram(name: "scalbln", linkageName: "_ZL7scalblnfl", scope: !169, file: !169, line: 168, type: !337, isLocal: true, isDefinition: false, flags: DIFlagPrototyped, isOptimized: true)
!337 = !DISubroutineType(types: !338)
!338 = !{!95, !95, !137}
!339 = !DIImportedEntity(tag: DW_TAG_imported_declaration, scope: !168, entity: !340, line: 253)
!340 = !DISubprogram(name: "scalbn", linkageName: "_ZL6scalbnfi", scope: !169, file: !169, line: 170, type: !272, isLocal: true, isDefinition: false, flags: DIFlagPrototyped, isOptimized: true)
!341 = !DIImportedEntity(tag: DW_TAG_imported_declaration, scope: !168, entity: !342, line: 254)
!342 = !DISubprogram(name: "signbit", linkageName: "_ZL7signbitf", scope: !169, file: !169, line: 172, type: !243, isLocal: true, isDefinition: false, flags: DIFlagPrototyped, isOptimized: true)
!343 = !DIImportedEntity(tag: DW_TAG_imported_declaration, scope: !168, entity: !344, line: 255)
!344 = !DISubprogram(name: "sin", linkageName: "_ZL3sinf", scope: !169, file: !169, line: 174, type: !176, isLocal: true, isDefinition: false, flags: DIFlagPrototyped, isOptimized: true)
!345 = !DIImportedEntity(tag: DW_TAG_imported_declaration, scope: !168, entity: !346, line: 256)
!346 = !DISubprogram(name: "sinh", linkageName: "_ZL4sinhf", scope: !169, file: !169, line: 176, type: !176, isLocal: true, isDefinition: false, flags: DIFlagPrototyped, isOptimized: true)
!347 = !DIImportedEntity(tag: DW_TAG_imported_declaration, scope: !168, entity: !348, line: 257)
!348 = !DISubprogram(name: "sqrt", linkageName: "_ZL4sqrtf", scope: !169, file: !169, line: 178, type: !176, isLocal: true, isDefinition: false, flags: DIFlagPrototyped, isOptimized: true)
!349 = !DIImportedEntity(tag: DW_TAG_imported_declaration, scope: !168, entity: !350, line: 258)
!350 = !DISubprogram(name: "tan", linkageName: "_ZL3tanf", scope: !169, file: !169, line: 180, type: !176, isLocal: true, isDefinition: false, flags: DIFlagPrototyped, isOptimized: true)
!351 = !DIImportedEntity(tag: DW_TAG_imported_declaration, scope: !168, entity: !352, line: 259)
!352 = !DISubprogram(name: "tanh", linkageName: "_ZL4tanhf", scope: !169, file: !169, line: 182, type: !176, isLocal: true, isDefinition: false, flags: DIFlagPrototyped, isOptimized: true)
!353 = !DIImportedEntity(tag: DW_TAG_imported_declaration, scope: !168, entity: !354, line: 260)
!354 = !DISubprogram(name: "tgamma", linkageName: "_ZL6tgammaf", scope: !169, file: !169, line: 184, type: !176, isLocal: true, isDefinition: false, flags: DIFlagPrototyped, isOptimized: true)
!355 = !DIImportedEntity(tag: DW_TAG_imported_declaration, scope: !168, entity: !356, line: 261)
!356 = !DISubprogram(name: "trunc", linkageName: "_ZL5truncf", scope: !169, file: !169, line: 186, type: !176, isLocal: true, isDefinition: false, flags: DIFlagPrototyped, isOptimized: true)
!357 = !DIImportedEntity(tag: DW_TAG_imported_declaration, scope: !168, entity: !358, line: 102)
!358 = !DISubprogram(name: "acos", scope: !359, file: !359, line: 54, type: !360, isLocal: false, isDefinition: false, flags: DIFlagPrototyped, isOptimized: true)
!359 = !DIFile(filename: "/usr/include/bits/mathcalls.h", directory: "/home/ec2-user/DynamicAnalyis")
!360 = !DISubroutineType(types: !361)
!361 = !{!308, !308}
!362 = !DIImportedEntity(tag: DW_TAG_imported_declaration, scope: !168, entity: !363, line: 121)
!363 = !DISubprogram(name: "asin", scope: !359, file: !359, line: 56, type: !360, isLocal: false, isDefinition: false, flags: DIFlagPrototyped, isOptimized: true)
!364 = !DIImportedEntity(tag: DW_TAG_imported_declaration, scope: !168, entity: !365, line: 140)
!365 = !DISubprogram(name: "atan", scope: !359, file: !359, line: 58, type: !360, isLocal: false, isDefinition: false, flags: DIFlagPrototyped, isOptimized: true)
!366 = !DIImportedEntity(tag: DW_TAG_imported_declaration, scope: !168, entity: !367, line: 159)
!367 = !DISubprogram(name: "atan2", scope: !359, file: !359, line: 60, type: !368, isLocal: false, isDefinition: false, flags: DIFlagPrototyped, isOptimized: true)
!368 = !DISubroutineType(types: !369)
!369 = !{!308, !308, !308}
!370 = !DIImportedEntity(tag: DW_TAG_imported_declaration, scope: !168, entity: !371, line: 180)
!371 = !DISubprogram(name: "ceil", scope: !359, file: !359, line: 179, type: !360, isLocal: false, isDefinition: false, flags: DIFlagPrototyped, isOptimized: true)
!372 = !DIImportedEntity(tag: DW_TAG_imported_declaration, scope: !168, entity: !373, line: 199)
!373 = !DISubprogram(name: "cos", scope: !359, file: !359, line: 63, type: !360, isLocal: false, isDefinition: false, flags: DIFlagPrototyped, isOptimized: true)
!374 = !DIImportedEntity(tag: DW_TAG_imported_declaration, scope: !168, entity: !375, line: 218)
!375 = !DISubprogram(name: "cosh", scope: !359, file: !359, line: 72, type: !360, isLocal: false, isDefinition: false, flags: DIFlagPrototyped, isOptimized: true)
!376 = !DIImportedEntity(tag: DW_TAG_imported_declaration, scope: !168, entity: !377, line: 237)
!377 = !DISubprogram(name: "exp", scope: !359, file: !359, line: 100, type: !360, isLocal: false, isDefinition: false, flags: DIFlagPrototyped, isOptimized: true)
!378 = !DIImportedEntity(tag: DW_TAG_imported_declaration, scope: !168, entity: !379, line: 256)
!379 = !DISubprogram(name: "fabs", scope: !359, file: !359, line: 182, type: !360, isLocal: false, isDefinition: false, flags: DIFlagPrototyped, isOptimized: true)
!380 = !DIImportedEntity(tag: DW_TAG_imported_declaration, scope: !168, entity: !381, line: 275)
!381 = !DISubprogram(name: "floor", scope: !359, file: !359, line: 185, type: !360, isLocal: false, isDefinition: false, flags: DIFlagPrototyped, isOptimized: true)
!382 = !DIImportedEntity(tag: DW_TAG_imported_declaration, scope: !168, entity: !383, line: 294)
!383 = !DISubprogram(name: "fmod", scope: !359, file: !359, line: 188, type: !368, isLocal: false, isDefinition: false, flags: DIFlagPrototyped, isOptimized: true)
!384 = !DIImportedEntity(tag: DW_TAG_imported_declaration, scope: !168, entity: !385, line: 315)
!385 = !DISubprogram(name: "frexp", scope: !359, file: !359, line: 103, type: !386, isLocal: false, isDefinition: false, flags: DIFlagPrototyped, isOptimized: true)
!386 = !DISubroutineType(types: !387)
!387 = !{!308, !308, !236}
!388 = !DIImportedEntity(tag: DW_TAG_imported_declaration, scope: !168, entity: !389, line: 334)
!389 = !DISubprogram(name: "ldexp", scope: !359, file: !359, line: 106, type: !390, isLocal: false, isDefinition: false, flags: DIFlagPrototyped, isOptimized: true)
!390 = !DISubroutineType(types: !391)
!391 = !{!308, !308, !98}
!392 = !DIImportedEntity(tag: DW_TAG_imported_declaration, scope: !168, entity: !393, line: 353)
!393 = !DISubprogram(name: "log", scope: !359, file: !359, line: 109, type: !360, isLocal: false, isDefinition: false, flags: DIFlagPrototyped, isOptimized: true)
!394 = !DIImportedEntity(tag: DW_TAG_imported_declaration, scope: !168, entity: !395, line: 372)
!395 = !DISubprogram(name: "log10", scope: !359, file: !359, line: 112, type: !360, isLocal: false, isDefinition: false, flags: DIFlagPrototyped, isOptimized: true)
!396 = !DIImportedEntity(tag: DW_TAG_imported_declaration, scope: !168, entity: !397, line: 391)
!397 = !DISubprogram(name: "modf", scope: !359, file: !359, line: 115, type: !398, isLocal: false, isDefinition: false, flags: DIFlagPrototyped, isOptimized: true)
!398 = !DISubroutineType(types: !399)
!399 = !{!308, !308, !400}
!400 = !DIDerivedType(tag: DW_TAG_pointer_type, baseType: !308, size: 64, align: 64)
!401 = !DIImportedEntity(tag: DW_TAG_imported_declaration, scope: !168, entity: !402, line: 403)
!402 = !DISubprogram(name: "pow", scope: !359, file: !359, line: 154, type: !368, isLocal: false, isDefinition: false, flags: DIFlagPrototyped, isOptimized: true)
!403 = !DIImportedEntity(tag: DW_TAG_imported_declaration, scope: !168, entity: !404, line: 440)
!404 = !DISubprogram(name: "sin", scope: !359, file: !359, line: 65, type: !360, isLocal: false, isDefinition: false, flags: DIFlagPrototyped, isOptimized: true)
!405 = !DIImportedEntity(tag: DW_TAG_imported_declaration, scope: !168, entity: !406, line: 459)
!406 = !DISubprogram(name: "sinh", scope: !359, file: !359, line: 74, type: !360, isLocal: false, isDefinition: false, flags: DIFlagPrototyped, isOptimized: true)
!407 = !DIImportedEntity(tag: DW_TAG_imported_declaration, scope: !168, entity: !408, line: 478)
!408 = !DISubprogram(name: "sqrt", scope: !359, file: !359, line: 157, type: !360, isLocal: false, isDefinition: false, flags: DIFlagPrototyped, isOptimized: true)
!409 = !DIImportedEntity(tag: DW_TAG_imported_declaration, scope: !168, entity: !410, line: 497)
!410 = !DISubprogram(name: "tan", scope: !359, file: !359, line: 67, type: !360, isLocal: false, isDefinition: false, flags: DIFlagPrototyped, isOptimized: true)
!411 = !DIImportedEntity(tag: DW_TAG_imported_declaration, scope: !168, entity: !412, line: 516)
!412 = !DISubprogram(name: "tanh", scope: !359, file: !359, line: 76, type: !360, isLocal: false, isDefinition: false, flags: DIFlagPrototyped, isOptimized: true)
!413 = !DIImportedEntity(tag: DW_TAG_imported_declaration, scope: !168, entity: !414, line: 118)
!414 = !DIDerivedType(tag: DW_TAG_typedef, name: "div_t", file: !415, line: 101, baseType: !416)
!415 = !DIFile(filename: "/usr/include/stdlib.h", directory: "/home/ec2-user/DynamicAnalyis")
!416 = !DICompositeType(tag: DW_TAG_structure_type, file: !415, line: 97, size: 64, align: 32, flags: DIFlagFwdDecl, identifier: "_ZTS5div_t")
!417 = !DIImportedEntity(tag: DW_TAG_imported_declaration, scope: !168, entity: !418, line: 119)
!418 = !DIDerivedType(tag: DW_TAG_typedef, name: "ldiv_t", file: !415, line: 109, baseType: !419)
!419 = distinct !DICompositeType(tag: DW_TAG_structure_type, file: !415, line: 105, size: 128, align: 64, elements: !420, identifier: "_ZTS6ldiv_t")
!420 = !{!421, !422}
!421 = !DIDerivedType(tag: DW_TAG_member, name: "quot", scope: !419, file: !415, line: 107, baseType: !137, size: 64, align: 64)
!422 = !DIDerivedType(tag: DW_TAG_member, name: "rem", scope: !419, file: !415, line: 108, baseType: !137, size: 64, align: 64, offset: 64)
!423 = !DIImportedEntity(tag: DW_TAG_imported_declaration, scope: !168, entity: !424, line: 121)
!424 = !DISubprogram(name: "abort", scope: !415, file: !415, line: 514, type: !425, isLocal: false, isDefinition: false, flags: DIFlagPrototyped | DIFlagNoReturn, isOptimized: true)
!425 = !DISubroutineType(types: !426)
!426 = !{null}
!427 = !DIImportedEntity(tag: DW_TAG_imported_declaration, scope: !168, entity: !428, line: 122)
!428 = !DISubprogram(name: "abs", scope: !415, file: !415, line: 770, type: !429, isLocal: false, isDefinition: false, flags: DIFlagPrototyped, isOptimized: true)
!429 = !DISubroutineType(types: !430)
!430 = !{!98, !98}
!431 = !DIImportedEntity(tag: DW_TAG_imported_declaration, scope: !168, entity: !432, line: 123)
!432 = !DISubprogram(name: "atexit", scope: !415, file: !415, line: 518, type: !433, isLocal: false, isDefinition: false, flags: DIFlagPrototyped, isOptimized: true)
!433 = !DISubroutineType(types: !434)
!434 = !{!98, !435}
!435 = !DIDerivedType(tag: DW_TAG_pointer_type, baseType: !425, size: 64, align: 64)
!436 = !DIImportedEntity(tag: DW_TAG_imported_declaration, scope: !168, entity: !437, line: 129)
!437 = !DISubprogram(name: "atof", scope: !438, file: !438, line: 26, type: !306, isLocal: false, isDefinition: false, flags: DIFlagPrototyped, isOptimized: true)
!438 = !DIFile(filename: "/usr/include/bits/stdlib-float.h", directory: "/home/ec2-user/DynamicAnalyis")
!439 = !DIImportedEntity(tag: DW_TAG_imported_declaration, scope: !168, entity: !440, line: 130)
!440 = distinct !DISubprogram(name: "atoi", scope: !415, file: !415, line: 278, type: !441, isLocal: false, isDefinition: true, scopeLine: 279, flags: DIFlagPrototyped, isOptimized: true, unit: !0, variables: !443)
!441 = !DISubroutineType(types: !442)
!442 = !{!98, !309}
!443 = !{!444}
!444 = !DILocalVariable(name: "__nptr", arg: 1, scope: !440, file: !415, line: 278, type: !309)
!445 = !DIImportedEntity(tag: DW_TAG_imported_declaration, scope: !168, entity: !446, line: 131)
!446 = !DISubprogram(name: "atol", scope: !415, file: !415, line: 283, type: !447, isLocal: false, isDefinition: false, flags: DIFlagPrototyped, isOptimized: true)
!447 = !DISubroutineType(types: !448)
!448 = !{!137, !309}
!449 = !DIImportedEntity(tag: DW_TAG_imported_declaration, scope: !168, entity: !450, line: 132)
!450 = !DISubprogram(name: "bsearch", scope: !415, file: !415, line: 754, type: !451, isLocal: false, isDefinition: false, flags: DIFlagPrototyped, isOptimized: true)
!451 = !DISubroutineType(types: !452)
!452 = !{!97, !453, !453, !156, !156, !455}
!453 = !DIDerivedType(tag: DW_TAG_pointer_type, baseType: !454, size: 64, align: 64)
!454 = !DIDerivedType(tag: DW_TAG_const_type, baseType: null)
!455 = !DIDerivedType(tag: DW_TAG_typedef, name: "__compar_fn_t", file: !415, line: 741, baseType: !456)
!456 = !DIDerivedType(tag: DW_TAG_pointer_type, baseType: !457, size: 64, align: 64)
!457 = !DISubroutineType(types: !458)
!458 = !{!98, !453, !453}
!459 = !DIImportedEntity(tag: DW_TAG_imported_declaration, scope: !168, entity: !460, line: 133)
!460 = !DISubprogram(name: "calloc", scope: !415, file: !415, line: 467, type: !461, isLocal: false, isDefinition: false, flags: DIFlagPrototyped, isOptimized: true)
!461 = !DISubroutineType(types: !462)
!462 = !{!97, !156, !156}
!463 = !DIImportedEntity(tag: DW_TAG_imported_declaration, scope: !168, entity: !464, line: 134)
!464 = !DISubprogram(name: "div", scope: !415, file: !415, line: 784, type: !465, isLocal: false, isDefinition: false, flags: DIFlagPrototyped, isOptimized: true)
!465 = !DISubroutineType(types: !466)
!466 = !{!414, !98, !98}
!467 = !DIImportedEntity(tag: DW_TAG_imported_declaration, scope: !168, entity: !468, line: 135)
!468 = !DISubprogram(name: "exit", scope: !415, file: !415, line: 542, type: !469, isLocal: false, isDefinition: false, flags: DIFlagPrototyped | DIFlagNoReturn, isOptimized: true)
!469 = !DISubroutineType(types: !470)
!470 = !{null, !98}
!471 = !DIImportedEntity(tag: DW_TAG_imported_declaration, scope: !168, entity: !472, line: 136)
!472 = !DISubprogram(name: "free", scope: !415, file: !415, line: 482, type: !473, isLocal: false, isDefinition: false, flags: DIFlagPrototyped, isOptimized: true)
!473 = !DISubroutineType(types: !474)
!474 = !{null, !97}
!475 = !DIImportedEntity(tag: DW_TAG_imported_declaration, scope: !168, entity: !476, line: 137)
!476 = !DISubprogram(name: "getenv", scope: !415, file: !415, line: 563, type: !477, isLocal: false, isDefinition: false, flags: DIFlagPrototyped, isOptimized: true)
!477 = !DISubroutineType(types: !478)
!478 = !{!100, !309}
!479 = !DIImportedEntity(tag: DW_TAG_imported_declaration, scope: !168, entity: !480, line: 138)
!480 = !DISubprogram(name: "labs", scope: !415, file: !415, line: 771, type: !268, isLocal: false, isDefinition: false, flags: DIFlagPrototyped, isOptimized: true)
!481 = !DIImportedEntity(tag: DW_TAG_imported_declaration, scope: !168, entity: !482, line: 139)
!482 = !DISubprogram(name: "ldiv", scope: !415, file: !415, line: 786, type: !483, isLocal: false, isDefinition: false, flags: DIFlagPrototyped, isOptimized: true)
!483 = !DISubroutineType(types: !484)
!484 = !{!418, !137, !137}
!485 = !DIImportedEntity(tag: DW_TAG_imported_declaration, scope: !168, entity: !486, line: 140)
!486 = !DISubprogram(name: "malloc", scope: !415, file: !415, line: 465, type: !487, isLocal: false, isDefinition: false, flags: DIFlagPrototyped, isOptimized: true)
!487 = !DISubroutineType(types: !488)
!488 = !{!97, !156}
!489 = !DIImportedEntity(tag: DW_TAG_imported_declaration, scope: !168, entity: !490, line: 142)
!490 = !DISubprogram(name: "mblen", scope: !415, file: !415, line: 859, type: !491, isLocal: false, isDefinition: false, flags: DIFlagPrototyped, isOptimized: true)
!491 = !DISubroutineType(types: !492)
!492 = !{!98, !309, !156}
!493 = !DIImportedEntity(tag: DW_TAG_imported_declaration, scope: !168, entity: !494, line: 143)
!494 = !DISubprogram(name: "mbstowcs", scope: !415, file: !415, line: 870, type: !495, isLocal: false, isDefinition: false, flags: DIFlagPrototyped, isOptimized: true)
!495 = !DISubroutineType(types: !496)
!496 = !{!156, !497, !500, !156}
!497 = !DIDerivedType(tag: DW_TAG_restrict_type, baseType: !498)
!498 = !DIDerivedType(tag: DW_TAG_pointer_type, baseType: !499, size: 64, align: 64)
!499 = !DIBasicType(name: "wchar_t", size: 32, align: 32, encoding: DW_ATE_signed)
!500 = !DIDerivedType(tag: DW_TAG_restrict_type, baseType: !309)
!501 = !DIImportedEntity(tag: DW_TAG_imported_declaration, scope: !168, entity: !502, line: 144)
!502 = !DISubprogram(name: "mbtowc", scope: !415, file: !415, line: 862, type: !503, isLocal: false, isDefinition: false, flags: DIFlagPrototyped, isOptimized: true)
!503 = !DISubroutineType(types: !504)
!504 = !{!98, !497, !500, !156}
!505 = !DIImportedEntity(tag: DW_TAG_imported_declaration, scope: !168, entity: !506, line: 146)
!506 = !DISubprogram(name: "qsort", scope: !415, file: !415, line: 760, type: !507, isLocal: false, isDefinition: false, flags: DIFlagPrototyped, isOptimized: true)
!507 = !DISubroutineType(types: !508)
!508 = !{null, !97, !156, !156, !455}
!509 = !DIImportedEntity(tag: DW_TAG_imported_declaration, scope: !168, entity: !510, line: 152)
!510 = !DISubprogram(name: "rand", scope: !415, file: !415, line: 374, type: !511, isLocal: false, isDefinition: false, flags: DIFlagPrototyped, isOptimized: true)
!511 = !DISubroutineType(types: !512)
!512 = !{!98}
!513 = !DIImportedEntity(tag: DW_TAG_imported_declaration, scope: !168, entity: !514, line: 153)
!514 = !DISubprogram(name: "realloc", scope: !415, file: !415, line: 479, type: !515, isLocal: false, isDefinition: false, flags: DIFlagPrototyped, isOptimized: true)
!515 = !DISubroutineType(types: !516)
!516 = !{!97, !97, !156}
!517 = !DIImportedEntity(tag: DW_TAG_imported_declaration, scope: !168, entity: !518, line: 154)
!518 = !DISubprogram(name: "srand", scope: !415, file: !415, line: 376, type: !519, isLocal: false, isDefinition: false, flags: DIFlagPrototyped, isOptimized: true)
!519 = !DISubroutineType(types: !520)
!520 = !{null, !165}
!521 = !DIImportedEntity(tag: DW_TAG_imported_declaration, scope: !168, entity: !522, line: 155)
!522 = !DISubprogram(name: "strtod", scope: !415, file: !415, line: 164, type: !523, isLocal: false, isDefinition: false, flags: DIFlagPrototyped, isOptimized: true)
!523 = !DISubroutineType(types: !524)
!524 = !{!308, !500, !525}
!525 = !DIDerivedType(tag: DW_TAG_restrict_type, baseType: !99)
!526 = !DIImportedEntity(tag: DW_TAG_imported_declaration, scope: !168, entity: !527, line: 156)
!527 = !DISubprogram(name: "strtol", scope: !415, file: !415, line: 183, type: !528, isLocal: false, isDefinition: false, flags: DIFlagPrototyped, isOptimized: true)
!528 = !DISubroutineType(types: !529)
!529 = !{!137, !500, !525, !98}
!530 = !DIImportedEntity(tag: DW_TAG_imported_declaration, scope: !168, entity: !531, line: 157)
!531 = !DISubprogram(name: "strtoul", scope: !415, file: !415, line: 187, type: !532, isLocal: false, isDefinition: false, flags: DIFlagPrototyped, isOptimized: true)
!532 = !DISubroutineType(types: !533)
!533 = !{!158, !500, !525, !98}
!534 = !DIImportedEntity(tag: DW_TAG_imported_declaration, scope: !168, entity: !535, line: 158)
!535 = !DISubprogram(name: "system", scope: !415, file: !415, line: 716, type: !441, isLocal: false, isDefinition: false, flags: DIFlagPrototyped, isOptimized: true)
!536 = !DIImportedEntity(tag: DW_TAG_imported_declaration, scope: !168, entity: !537, line: 160)
!537 = !DISubprogram(name: "wcstombs", scope: !415, file: !415, line: 873, type: !538, isLocal: false, isDefinition: false, flags: DIFlagPrototyped, isOptimized: true)
!538 = !DISubroutineType(types: !539)
!539 = !{!156, !540, !541, !156}
!540 = !DIDerivedType(tag: DW_TAG_restrict_type, baseType: !100)
!541 = !DIDerivedType(tag: DW_TAG_restrict_type, baseType: !542)
!542 = !DIDerivedType(tag: DW_TAG_pointer_type, baseType: !543, size: 64, align: 64)
!543 = !DIDerivedType(tag: DW_TAG_const_type, baseType: !499)
!544 = !DIImportedEntity(tag: DW_TAG_imported_declaration, scope: !168, entity: !545, line: 161)
!545 = !DISubprogram(name: "wctomb", scope: !415, file: !415, line: 866, type: !546, isLocal: false, isDefinition: false, flags: DIFlagPrototyped, isOptimized: true)
!546 = !DISubroutineType(types: !547)
!547 = !{!98, !100, !499}
!548 = !DIImportedEntity(tag: DW_TAG_imported_declaration, scope: !549, entity: !551, line: 201)
!549 = !DINamespace(name: "__gnu_cxx", scope: null, file: !550, line: 68)
!550 = !DIFile(filename: "/usr/include/c++/4.8.3/bits/cpp_type_traits.h", directory: "/home/ec2-user/DynamicAnalyis")
!551 = !DIDerivedType(tag: DW_TAG_typedef, name: "lldiv_t", file: !415, line: 121, baseType: !552)
!552 = distinct !DICompositeType(tag: DW_TAG_structure_type, file: !415, line: 117, size: 128, align: 64, elements: !553, identifier: "_ZTS7lldiv_t")
!553 = !{!554, !555}
!554 = !DIDerivedType(tag: DW_TAG_member, name: "quot", scope: !552, file: !415, line: 119, baseType: !173, size: 64, align: 64)
!555 = !DIDerivedType(tag: DW_TAG_member, name: "rem", scope: !552, file: !415, line: 120, baseType: !173, size: 64, align: 64, offset: 64)
!556 = !DIImportedEntity(tag: DW_TAG_imported_declaration, scope: !549, entity: !557, line: 207)
!557 = !DISubprogram(name: "_Exit", scope: !415, file: !415, line: 556, type: !469, isLocal: false, isDefinition: false, flags: DIFlagPrototyped | DIFlagNoReturn, isOptimized: true)
!558 = !DIImportedEntity(tag: DW_TAG_imported_declaration, scope: !549, entity: !559, line: 211)
!559 = !DISubprogram(name: "llabs", scope: !415, file: !415, line: 775, type: !171, isLocal: false, isDefinition: false, flags: DIFlagPrototyped, isOptimized: true)
!560 = !DIImportedEntity(tag: DW_TAG_imported_declaration, scope: !549, entity: !561, line: 217)
!561 = !DISubprogram(name: "lldiv", scope: !415, file: !415, line: 792, type: !562, isLocal: false, isDefinition: false, flags: DIFlagPrototyped, isOptimized: true)
!562 = !DISubroutineType(types: !563)
!563 = !{!551, !173, !173}
!564 = !DIImportedEntity(tag: DW_TAG_imported_declaration, scope: !549, entity: !565, line: 228)
!565 = !DISubprogram(name: "atoll", scope: !415, file: !415, line: 292, type: !566, isLocal: false, isDefinition: false, flags: DIFlagPrototyped, isOptimized: true)
!566 = !DISubroutineType(types: !567)
!567 = !{!173, !309}
!568 = !DIImportedEntity(tag: DW_TAG_imported_declaration, scope: !549, entity: !569, line: 229)
!569 = !DISubprogram(name: "strtoll", scope: !415, file: !415, line: 209, type: !570, isLocal: false, isDefinition: false, flags: DIFlagPrototyped, isOptimized: true)
!570 = !DISubroutineType(types: !571)
!571 = !{!173, !500, !525, !98}
!572 = !DIImportedEntity(tag: DW_TAG_imported_declaration, scope: !549, entity: !573, line: 230)
!573 = !DISubprogram(name: "strtoull", scope: !415, file: !415, line: 214, type: !574, isLocal: false, isDefinition: false, flags: DIFlagPrototyped, isOptimized: true)
!574 = !DISubroutineType(types: !575)
!575 = !{!576, !500, !525, !98}
!576 = !DIBasicType(name: "long long unsigned int", size: 64, align: 64, encoding: DW_ATE_unsigned)
!577 = !DIImportedEntity(tag: DW_TAG_imported_declaration, scope: !549, entity: !578, line: 232)
!578 = !DISubprogram(name: "strtof", scope: !415, file: !415, line: 172, type: !579, isLocal: false, isDefinition: false, flags: DIFlagPrototyped, isOptimized: true)
!579 = !DISubroutineType(types: !580)
!580 = !{!95, !500, !525}
!581 = !DIImportedEntity(tag: DW_TAG_imported_declaration, scope: !549, entity: !582, line: 233)
!582 = !DISubprogram(name: "strtold", scope: !415, file: !415, line: 175, type: !583, isLocal: false, isDefinition: false, flags: DIFlagPrototyped, isOptimized: true)
!583 = !DISubroutineType(types: !584)
!584 = !{!585, !500, !525}
!585 = !DIBasicType(name: "long double", size: 128, align: 128, encoding: DW_ATE_float)
!586 = !DIImportedEntity(tag: DW_TAG_imported_declaration, scope: !168, entity: !551, line: 241)
!587 = !DIImportedEntity(tag: DW_TAG_imported_declaration, scope: !168, entity: !557, line: 243)
!588 = !DIImportedEntity(tag: DW_TAG_imported_declaration, scope: !168, entity: !559, line: 245)
!589 = !DIImportedEntity(tag: DW_TAG_imported_declaration, scope: !168, entity: !590, line: 246)
!590 = !DISubprogram(name: "div", linkageName: "_ZN9__gnu_cxx3divExx", scope: !549, file: !591, line: 214, type: !562, isLocal: false, isDefinition: false, flags: DIFlagPrototyped, isOptimized: true)
!591 = !DIFile(filename: "/usr/include/c++/4.8.3/cstdlib", directory: "/home/ec2-user/DynamicAnalyis")
!592 = !DIImportedEntity(tag: DW_TAG_imported_declaration, scope: !168, entity: !561, line: 247)
!593 = !DIImportedEntity(tag: DW_TAG_imported_declaration, scope: !168, entity: !565, line: 249)
!594 = !DIImportedEntity(tag: DW_TAG_imported_declaration, scope: !168, entity: !578, line: 250)
!595 = !DIImportedEntity(tag: DW_TAG_imported_declaration, scope: !168, entity: !569, line: 251)
!596 = !DIImportedEntity(tag: DW_TAG_imported_declaration, scope: !168, entity: !573, line: 252)
!597 = !DIImportedEntity(tag: DW_TAG_imported_declaration, scope: !168, entity: !582, line: 253)
!598 = !DIImportedEntity(tag: DW_TAG_imported_declaration, scope: !168, entity: !599, line: 366)
!599 = !DISubprogram(name: "acosf", linkageName: "_ZL5acosff", scope: !600, file: !600, line: 1300, type: !176, isLocal: true, isDefinition: false, flags: DIFlagPrototyped, isOptimized: true)
!600 = !DIFile(filename: "/usr/local/cuda/include/math_functions.hpp", directory: "/home/ec2-user/DynamicAnalyis")
!601 = !DIImportedEntity(tag: DW_TAG_imported_declaration, scope: !168, entity: !602, line: 367)
!602 = !DISubprogram(name: "acoshf", linkageName: "_ZL6acoshff", scope: !600, file: !600, line: 1328, type: !176, isLocal: true, isDefinition: false, flags: DIFlagPrototyped, isOptimized: true)
!603 = !DIImportedEntity(tag: DW_TAG_imported_declaration, scope: !168, entity: !604, line: 368)
!604 = !DISubprogram(name: "asinf", linkageName: "_ZL5asinff", scope: !600, file: !600, line: 1295, type: !176, isLocal: true, isDefinition: false, flags: DIFlagPrototyped, isOptimized: true)
!605 = !DIImportedEntity(tag: DW_TAG_imported_declaration, scope: !168, entity: !606, line: 369)
!606 = !DISubprogram(name: "asinhf", linkageName: "_ZL6asinhff", scope: !600, file: !600, line: 1333, type: !176, isLocal: true, isDefinition: false, flags: DIFlagPrototyped, isOptimized: true)
!607 = !DIImportedEntity(tag: DW_TAG_imported_declaration, scope: !168, entity: !608, line: 370)
!608 = !DISubprogram(name: "atan2f", linkageName: "_ZL6atan2fff", scope: !600, file: !600, line: 1285, type: !188, isLocal: true, isDefinition: false, flags: DIFlagPrototyped, isOptimized: true)
!609 = !DIImportedEntity(tag: DW_TAG_imported_declaration, scope: !168, entity: !610, line: 371)
!610 = !DISubprogram(name: "atanf", linkageName: "_ZL5atanff", scope: !600, file: !600, line: 1290, type: !176, isLocal: true, isDefinition: false, flags: DIFlagPrototyped, isOptimized: true)
!611 = !DIImportedEntity(tag: DW_TAG_imported_declaration, scope: !168, entity: !612, line: 372)
!612 = !DISubprogram(name: "atanhf", linkageName: "_ZL6atanhff", scope: !600, file: !600, line: 1338, type: !176, isLocal: true, isDefinition: false, flags: DIFlagPrototyped, isOptimized: true)
!613 = !DIImportedEntity(tag: DW_TAG_imported_declaration, scope: !168, entity: !614, line: 373)
!614 = !DISubprogram(name: "cbrtf", linkageName: "_ZL5cbrtff", scope: !600, file: !600, line: 1388, type: !176, isLocal: true, isDefinition: false, flags: DIFlagPrototyped, isOptimized: true)
!615 = !DIImportedEntity(tag: DW_TAG_imported_declaration, scope: !168, entity: !616, line: 374)
!616 = !DISubprogram(name: "ceilf", linkageName: "_ZL5ceilff", scope: !617, file: !617, line: 667, type: !176, isLocal: true, isDefinition: false, flags: DIFlagPrototyped, isOptimized: true)
!617 = !DIFile(filename: "/usr/local/cuda/include/device_functions.hpp", directory: "/home/ec2-user/DynamicAnalyis")
!618 = !DIImportedEntity(tag: DW_TAG_imported_declaration, scope: !168, entity: !619, line: 375)
!619 = !DISubprogram(name: "copysignf", linkageName: "_ZL9copysignfff", scope: !600, file: !600, line: 1147, type: !188, isLocal: true, isDefinition: false, flags: DIFlagPrototyped, isOptimized: true)
!620 = !DIImportedEntity(tag: DW_TAG_imported_declaration, scope: !168, entity: !621, line: 376)
!621 = !DISubprogram(name: "cosf", linkageName: "_ZL4cosff", scope: !600, file: !600, line: 1201, type: !176, isLocal: true, isDefinition: false, flags: DIFlagPrototyped, isOptimized: true)
!622 = !DIImportedEntity(tag: DW_TAG_imported_declaration, scope: !168, entity: !623, line: 377)
!623 = !DISubprogram(name: "coshf", linkageName: "_ZL5coshff", scope: !600, file: !600, line: 1270, type: !176, isLocal: true, isDefinition: false, flags: DIFlagPrototyped, isOptimized: true)
!624 = !DIImportedEntity(tag: DW_TAG_imported_declaration, scope: !168, entity: !625, line: 378)
!625 = !DISubprogram(name: "erfcf", linkageName: "_ZL5erfcff", scope: !600, file: !600, line: 1448, type: !176, isLocal: true, isDefinition: false, flags: DIFlagPrototyped, isOptimized: true)
!626 = !DIImportedEntity(tag: DW_TAG_imported_declaration, scope: !168, entity: !627, line: 379)
!627 = !DISubprogram(name: "erff", linkageName: "_ZL4erfff", scope: !600, file: !600, line: 1438, type: !176, isLocal: true, isDefinition: false, flags: DIFlagPrototyped, isOptimized: true)
!628 = !DIImportedEntity(tag: DW_TAG_imported_declaration, scope: !168, entity: !629, line: 380)
!629 = !DISubprogram(name: "exp2f", linkageName: "_ZL5exp2ff", scope: !617, file: !617, line: 657, type: !176, isLocal: true, isDefinition: false, flags: DIFlagPrototyped, isOptimized: true)
!630 = !DIImportedEntity(tag: DW_TAG_imported_declaration, scope: !168, entity: !631, line: 381)
!631 = !DISubprogram(name: "expf", linkageName: "_ZL4expff", scope: !600, file: !600, line: 1252, type: !176, isLocal: true, isDefinition: false, flags: DIFlagPrototyped, isOptimized: true)
!632 = !DIImportedEntity(tag: DW_TAG_imported_declaration, scope: !168, entity: !633, line: 382)
!633 = !DISubprogram(name: "expm1f", linkageName: "_ZL6expm1ff", scope: !600, file: !600, line: 1343, type: !176, isLocal: true, isDefinition: false, flags: DIFlagPrototyped, isOptimized: true)
!634 = !DIImportedEntity(tag: DW_TAG_imported_declaration, scope: !168, entity: !635, line: 383)
!635 = !DISubprogram(name: "fabsf", linkageName: "_ZL5fabsff", scope: !617, file: !617, line: 607, type: !176, isLocal: true, isDefinition: false, flags: DIFlagPrototyped, isOptimized: true)
!636 = !DIImportedEntity(tag: DW_TAG_imported_declaration, scope: !168, entity: !637, line: 384)
!637 = !DISubprogram(name: "fdimf", linkageName: "_ZL5fdimfff", scope: !600, file: !600, line: 1574, type: !188, isLocal: true, isDefinition: false, flags: DIFlagPrototyped, isOptimized: true)
!638 = !DIImportedEntity(tag: DW_TAG_imported_declaration, scope: !168, entity: !639, line: 385)
!639 = !DISubprogram(name: "floorf", linkageName: "_ZL6floorff", scope: !617, file: !617, line: 597, type: !176, isLocal: true, isDefinition: false, flags: DIFlagPrototyped, isOptimized: true)
!640 = !DIImportedEntity(tag: DW_TAG_imported_declaration, scope: !168, entity: !641, line: 386)
!641 = !DISubprogram(name: "fmaf", linkageName: "_ZL4fmaffff", scope: !600, file: !600, line: 1526, type: !220, isLocal: true, isDefinition: false, flags: DIFlagPrototyped, isOptimized: true)
!642 = !DIImportedEntity(tag: DW_TAG_imported_declaration, scope: !168, entity: !643, line: 387)
!643 = !DISubprogram(name: "fmaxf", linkageName: "_ZL5fmaxfff", scope: !617, file: !617, line: 622, type: !188, isLocal: true, isDefinition: false, flags: DIFlagPrototyped, isOptimized: true)
!644 = !DIImportedEntity(tag: DW_TAG_imported_declaration, scope: !168, entity: !645, line: 388)
!645 = !DISubprogram(name: "fminf", linkageName: "_ZL5fminfff", scope: !617, file: !617, line: 617, type: !188, isLocal: true, isDefinition: false, flags: DIFlagPrototyped, isOptimized: true)
!646 = !DIImportedEntity(tag: DW_TAG_imported_declaration, scope: !168, entity: !647, line: 389)
!647 = !DISubprogram(name: "fmodf", linkageName: "_ZL5fmodfff", scope: !600, file: !600, line: 1511, type: !188, isLocal: true, isDefinition: false, flags: DIFlagPrototyped, isOptimized: true)
!648 = !DIImportedEntity(tag: DW_TAG_imported_declaration, scope: !168, entity: !649, line: 390)
!649 = !DISubprogram(name: "frexpf", linkageName: "_ZL6frexpffPi", scope: !600, file: !600, line: 1501, type: !234, isLocal: true, isDefinition: false, flags: DIFlagPrototyped, isOptimized: true)
!650 = !DIImportedEntity(tag: DW_TAG_imported_declaration, scope: !168, entity: !651, line: 391)
!651 = !DISubprogram(name: "hypotf", linkageName: "_ZL6hypotfff", scope: !600, file: !600, line: 1348, type: !188, isLocal: true, isDefinition: false, flags: DIFlagPrototyped, isOptimized: true)
!652 = !DIImportedEntity(tag: DW_TAG_imported_declaration, scope: !168, entity: !653, line: 392)
!653 = !DISubprogram(name: "ilogbf", linkageName: "_ZL6ilogbff", scope: !600, file: !600, line: 1579, type: !230, isLocal: true, isDefinition: false, flags: DIFlagPrototyped, isOptimized: true)
!654 = !DIImportedEntity(tag: DW_TAG_imported_declaration, scope: !168, entity: !655, line: 393)
!655 = !DISubprogram(name: "ldexpf", linkageName: "_ZL6ldexpffi", scope: !600, file: !600, line: 1478, type: !272, isLocal: true, isDefinition: false, flags: DIFlagPrototyped, isOptimized: true)
!656 = !DIImportedEntity(tag: DW_TAG_imported_declaration, scope: !168, entity: !657, line: 394)
!657 = !DISubprogram(name: "lgammaf", linkageName: "_ZL7lgammaff", scope: !600, file: !600, line: 1473, type: !176, isLocal: true, isDefinition: false, flags: DIFlagPrototyped, isOptimized: true)
!658 = !DIImportedEntity(tag: DW_TAG_imported_declaration, scope: !168, entity: !659, line: 395)
!659 = !DISubprogram(name: "llrintf", linkageName: "_ZL7llrintff", scope: !600, file: !600, line: 1107, type: !280, isLocal: true, isDefinition: false, flags: DIFlagPrototyped, isOptimized: true)
!660 = !DIImportedEntity(tag: DW_TAG_imported_declaration, scope: !168, entity: !661, line: 396)
!661 = !DISubprogram(name: "llroundf", linkageName: "_ZL8llroundff", scope: !600, file: !600, line: 1560, type: !280, isLocal: true, isDefinition: false, flags: DIFlagPrototyped, isOptimized: true)
!662 = !DIImportedEntity(tag: DW_TAG_imported_declaration, scope: !168, entity: !663, line: 397)
!663 = !DISubprogram(name: "log10f", linkageName: "_ZL6log10ff", scope: !600, file: !600, line: 1314, type: !176, isLocal: true, isDefinition: false, flags: DIFlagPrototyped, isOptimized: true)
!664 = !DIImportedEntity(tag: DW_TAG_imported_declaration, scope: !168, entity: !665, line: 398)
!665 = !DISubprogram(name: "log1pf", linkageName: "_ZL6log1pff", scope: !600, file: !600, line: 1323, type: !176, isLocal: true, isDefinition: false, flags: DIFlagPrototyped, isOptimized: true)
!666 = !DIImportedEntity(tag: DW_TAG_imported_declaration, scope: !168, entity: !667, line: 399)
!667 = !DISubprogram(name: "log2f", linkageName: "_ZL5log2ff", scope: !600, file: !600, line: 1243, type: !176, isLocal: true, isDefinition: false, flags: DIFlagPrototyped, isOptimized: true)
!668 = !DIImportedEntity(tag: DW_TAG_imported_declaration, scope: !168, entity: !669, line: 400)
!669 = !DISubprogram(name: "logbf", linkageName: "_ZL5logbff", scope: !600, file: !600, line: 1584, type: !176, isLocal: true, isDefinition: false, flags: DIFlagPrototyped, isOptimized: true)
!670 = !DIImportedEntity(tag: DW_TAG_imported_declaration, scope: !168, entity: !671, line: 401)
!671 = !DISubprogram(name: "logf", linkageName: "_ZL4logff", scope: !600, file: !600, line: 1305, type: !176, isLocal: true, isDefinition: false, flags: DIFlagPrototyped, isOptimized: true)
!672 = !DIImportedEntity(tag: DW_TAG_imported_declaration, scope: !168, entity: !673, line: 402)
!673 = !DISubprogram(name: "lrintf", linkageName: "_ZL6lrintff", scope: !600, file: !600, line: 1098, type: !294, isLocal: true, isDefinition: false, flags: DIFlagPrototyped, isOptimized: true)
!674 = !DIImportedEntity(tag: DW_TAG_imported_declaration, scope: !168, entity: !675, line: 403)
!675 = !DISubprogram(name: "lroundf", linkageName: "_ZL7lroundff", scope: !600, file: !600, line: 1565, type: !294, isLocal: true, isDefinition: false, flags: DIFlagPrototyped, isOptimized: true)
!676 = !DIImportedEntity(tag: DW_TAG_imported_declaration, scope: !168, entity: !677, line: 404)
!677 = !DISubprogram(name: "modff", linkageName: "_ZL5modfffPf", scope: !600, file: !600, line: 1506, type: !302, isLocal: true, isDefinition: false, flags: DIFlagPrototyped, isOptimized: true)
!678 = !DIImportedEntity(tag: DW_TAG_imported_declaration, scope: !168, entity: !679, line: 405)
!679 = !DISubprogram(name: "nearbyintf", linkageName: "_ZL10nearbyintff", scope: !600, file: !600, line: 1112, type: !176, isLocal: true, isDefinition: false, flags: DIFlagPrototyped, isOptimized: true)
!680 = !DIImportedEntity(tag: DW_TAG_imported_declaration, scope: !168, entity: !681, line: 406)
!681 = !DISubprogram(name: "nextafterf", linkageName: "_ZL10nextafterfff", scope: !600, file: !600, line: 1176, type: !188, isLocal: true, isDefinition: false, flags: DIFlagPrototyped, isOptimized: true)
!682 = !DIImportedEntity(tag: DW_TAG_imported_declaration, scope: !168, entity: !683, line: 407)
!683 = !DISubprogram(name: "nexttowardf", scope: !359, file: !359, line: 285, type: !684, isLocal: false, isDefinition: false, flags: DIFlagPrototyped, isOptimized: true)
!684 = !DISubroutineType(types: !685)
!685 = !{!95, !95, !585}
!686 = !DIImportedEntity(tag: DW_TAG_imported_declaration, scope: !168, entity: !683, line: 408)
!687 = !DIImportedEntity(tag: DW_TAG_imported_declaration, scope: !168, entity: !688, line: 409)
!688 = !DISubprogram(name: "powf", linkageName: "_ZL4powfff", scope: !600, file: !600, line: 1541, type: !188, isLocal: true, isDefinition: false, flags: DIFlagPrototyped, isOptimized: true)
!689 = !DIImportedEntity(tag: DW_TAG_imported_declaration, scope: !168, entity: !690, line: 410)
!690 = !DISubprogram(name: "remainderf", linkageName: "_ZL10remainderfff", scope: !600, file: !600, line: 1516, type: !188, isLocal: true, isDefinition: false, flags: DIFlagPrototyped, isOptimized: true)
!691 = !DIImportedEntity(tag: DW_TAG_imported_declaration, scope: !168, entity: !692, line: 411)
!692 = !DISubprogram(name: "remquof", linkageName: "_ZL7remquofffPi", scope: !600, file: !600, line: 1521, type: !329, isLocal: true, isDefinition: false, flags: DIFlagPrototyped, isOptimized: true)
!693 = !DIImportedEntity(tag: DW_TAG_imported_declaration, scope: !168, entity: !694, line: 412)
!694 = !DISubprogram(name: "rintf", linkageName: "_ZL5rintff", scope: !600, file: !600, line: 1093, type: !176, isLocal: true, isDefinition: false, flags: DIFlagPrototyped, isOptimized: true)
!695 = !DIImportedEntity(tag: DW_TAG_imported_declaration, scope: !168, entity: !696, line: 413)
!696 = !DISubprogram(name: "roundf", linkageName: "_ZL6roundff", scope: !600, file: !600, line: 1555, type: !176, isLocal: true, isDefinition: false, flags: DIFlagPrototyped, isOptimized: true)
!697 = !DIImportedEntity(tag: DW_TAG_imported_declaration, scope: !168, entity: !698, line: 414)
!698 = !DISubprogram(name: "scalblnf", linkageName: "_ZL8scalblnffl", scope: !600, file: !600, line: 1488, type: !337, isLocal: true, isDefinition: false, flags: DIFlagPrototyped, isOptimized: true)
!699 = !DIImportedEntity(tag: DW_TAG_imported_declaration, scope: !168, entity: !700, line: 415)
!700 = !DISubprogram(name: "scalbnf", linkageName: "_ZL7scalbnffi", scope: !600, file: !600, line: 1483, type: !272, isLocal: true, isDefinition: false, flags: DIFlagPrototyped, isOptimized: true)
!701 = !DIImportedEntity(tag: DW_TAG_imported_declaration, scope: !168, entity: !702, line: 416)
!702 = !DISubprogram(name: "sinf", linkageName: "_ZL4sinff", scope: !600, file: !600, line: 1192, type: !176, isLocal: true, isDefinition: false, flags: DIFlagPrototyped, isOptimized: true)
!703 = !DIImportedEntity(tag: DW_TAG_imported_declaration, scope: !168, entity: !704, line: 417)
!704 = !DISubprogram(name: "sinhf", linkageName: "_ZL5sinhff", scope: !600, file: !600, line: 1275, type: !176, isLocal: true, isDefinition: false, flags: DIFlagPrototyped, isOptimized: true)
!705 = !DIImportedEntity(tag: DW_TAG_imported_declaration, scope: !168, entity: !706, line: 418)
!706 = !DISubprogram(name: "sqrtf", linkageName: "_ZL5sqrtff", scope: !617, file: !617, line: 907, type: !176, isLocal: true, isDefinition: false, flags: DIFlagPrototyped, isOptimized: true)
!707 = !DIImportedEntity(tag: DW_TAG_imported_declaration, scope: !168, entity: !708, line: 419)
!708 = !DISubprogram(name: "tanf", linkageName: "_ZL4tanff", scope: !600, file: !600, line: 1234, type: !176, isLocal: true, isDefinition: false, flags: DIFlagPrototyped, isOptimized: true)
!709 = !DIImportedEntity(tag: DW_TAG_imported_declaration, scope: !168, entity: !710, line: 420)
!710 = !DISubprogram(name: "tanhf", linkageName: "_ZL5tanhff", scope: !600, file: !600, line: 1280, type: !176, isLocal: true, isDefinition: false, flags: DIFlagPrototyped, isOptimized: true)
!711 = !DIImportedEntity(tag: DW_TAG_imported_declaration, scope: !168, entity: !712, line: 421)
!712 = !DISubprogram(name: "tgammaf", linkageName: "_ZL7tgammaff", scope: !600, file: !600, line: 1550, type: !176, isLocal: true, isDefinition: false, flags: DIFlagPrototyped, isOptimized: true)
!713 = !DIImportedEntity(tag: DW_TAG_imported_declaration, scope: !168, entity: !714, line: 422)
!714 = !DISubprogram(name: "truncf", linkageName: "_ZL6truncff", scope: !617, file: !617, line: 662, type: !176, isLocal: true, isDefinition: false, flags: DIFlagPrototyped, isOptimized: true)
!715 = !{i32 2, !"Dwarf Version", i32 4}
!716 = !{i32 2, !"Debug Info Version", i32 3}
!717 = !{!"clang version 4.0.0 (trunk 279478) (llvm/trunk 279476)"}
!718 = distinct !DISubprogram(name: "create_matrix", linkageName: "_Z13create_matrixPfi", scope: !1, file: !1, line: 66, type: !719, isLocal: false, isDefinition: true, scopeLine: 66, flags: DIFlagPrototyped, isOptimized: true, unit: !0, variables: !721)
!719 = !DISubroutineType(types: !720)
!720 = !{null, !94, !98}
!721 = !{!722, !723, !724, !725, !726, !727, !731}
!722 = !DILocalVariable(name: "m", arg: 1, scope: !718, file: !1, line: 66, type: !94)
!723 = !DILocalVariable(name: "size", arg: 2, scope: !718, file: !1, line: 66, type: !98)
!724 = !DILocalVariable(name: "i", scope: !718, file: !1, line: 67, type: !98)
!725 = !DILocalVariable(name: "j", scope: !718, file: !1, line: 67, type: !98)
!726 = !DILocalVariable(name: "lamda", scope: !718, file: !1, line: 68, type: !95)
!727 = !DILocalVariable(name: "coe", scope: !718, file: !1, line: 69, type: !728)
!728 = !DICompositeType(tag: DW_TAG_array_type, baseType: !95, align: 32, elements: !729)
!729 = !{!730}
!730 = !DISubrange(count: -1)
!731 = !DILocalVariable(name: "coe_i", scope: !718, file: !1, line: 70, type: !95)
!732 = !DIExpression()
!733 = !DILocation(line: 66, column: 22, scope: !718)
!734 = !DILocation(line: 66, column: 29, scope: !718)
!735 = !DILocation(line: 68, column: 9, scope: !718)
!736 = !DILocation(line: 69, column: 14, scope: !718)
!737 = !DILocation(line: 69, column: 19, scope: !718)
!738 = !DILocation(line: 69, column: 3, scope: !718)
!739 = !DIExpression(DW_OP_deref)
!740 = !DILocation(line: 69, column: 9, scope: !718)
!741 = !DILocation(line: 70, column: 9, scope: !718)
!742 = !DILocation(line: 67, column: 7, scope: !718)
!743 = !DILocation(line: 72, column: 15, scope: !744)
!744 = !DILexicalBlockFile(scope: !745, file: !1, discriminator: 1)
!745 = distinct !DILexicalBlock(scope: !746, file: !1, line: 72, column: 3)
!746 = distinct !DILexicalBlock(scope: !718, file: !1, line: 72, column: 3)
!747 = !DILocation(line: 72, column: 3, scope: !744)
!748 = !DILocation(line: 75, column: 13, scope: !749)
!749 = distinct !DILexicalBlock(scope: !745, file: !1, line: 73, column: 5)
!750 = !DILocation(line: 82, column: 3, scope: !751)
!751 = !DILexicalBlockFile(scope: !752, file: !1, discriminator: 1)
!752 = distinct !DILexicalBlock(scope: !753, file: !1, line: 82, column: 3)
!753 = distinct !DILexicalBlock(scope: !718, file: !1, line: 82, column: 3)
!754 = !DILocation(line: 84, column: 22, scope: !755)
!755 = distinct !DILexicalBlock(scope: !756, file: !1, line: 83, column: 32)
!756 = distinct !DILexicalBlock(scope: !757, file: !1, line: 83, column: 7)
!757 = distinct !DILexicalBlock(scope: !758, file: !1, line: 83, column: 7)
!758 = distinct !DILexicalBlock(scope: !752, file: !1, line: 82, column: 28)
!759 = !DILocation(line: 67, column: 9, scope: !718)
!760 = !DILocation(line: 84, column: 24, scope: !755)
!761 = !DILocation(line: 84, column: 13, scope: !755)
!762 = distinct !{!762, !763}
!763 = !{!"llvm.loop.unroll.disable"}
!764 = distinct !{!764, !765}
!765 = !DILocation(line: 82, column: 3, scope: !718)
!766 = !DILocation(line: 74, column: 28, scope: !749)
!767 = !DILocation(line: 74, column: 27, scope: !749)
!768 = !DILocation(line: 74, column: 22, scope: !749)
!769 = !DILocation(line: 74, column: 18, scope: !749)
!770 = !DILocation(line: 74, column: 17, scope: !749)
!771 = !DILocation(line: 74, column: 15, scope: !749)
!772 = !DILocation(line: 75, column: 15, scope: !749)
!773 = !DILocation(line: 76, column: 7, scope: !749)
!774 = !DILocation(line: 76, column: 13, scope: !749)
!775 = !{!776, !776, i64 0}
!776 = !{!"float", !777, i64 0}
!777 = !{!"omnipotent char", !778, i64 0}
!778 = !{!"Simple C++ TBAA"}
!779 = !DILocation(line: 77, column: 15, scope: !749)
!780 = !DILocation(line: 78, column: 7, scope: !749)
!781 = !DILocation(line: 78, column: 13, scope: !749)
!782 = distinct !{!782, !783}
!783 = !DILocation(line: 72, column: 3, scope: !718)
!784 = !DILocation(line: 89, column: 1, scope: !718)
!785 = distinct !DISubprogram(name: "main", scope: !1, file: !1, line: 92, type: !786, isLocal: false, isDefinition: true, scopeLine: 93, flags: DIFlagPrototyped, isOptimized: true, unit: !0, variables: !788)
!786 = !DISubroutineType(types: !787)
!787 = !{!98, !98, !99}
!788 = !{!789, !790, !791, !792, !793, !794, !795, !803, !804}
!789 = !DILocalVariable(name: "argc", arg: 1, scope: !785, file: !1, line: 92, type: !98)
!790 = !DILocalVariable(name: "argv", arg: 2, scope: !785, file: !1, line: 92, type: !99)
!791 = !DILocalVariable(name: "verbose", scope: !785, file: !1, line: 95, type: !98)
!792 = !DILocalVariable(name: "i", scope: !785, file: !1, line: 96, type: !98)
!793 = !DILocalVariable(name: "j", scope: !785, file: !1, line: 96, type: !98)
!794 = !DILocalVariable(name: "flag", scope: !785, file: !1, line: 97, type: !101)
!795 = !DILocalVariable(name: "time_start", scope: !785, file: !1, line: 161, type: !796)
!796 = distinct !DICompositeType(tag: DW_TAG_structure_type, name: "timeval", file: !797, line: 30, size: 128, align: 64, elements: !798, identifier: "_ZTS7timeval")
!797 = !DIFile(filename: "/usr/include/bits/time.h", directory: "/home/ec2-user/DynamicAnalyis")
!798 = !{!799, !801}
!799 = !DIDerivedType(tag: DW_TAG_member, name: "tv_sec", scope: !796, file: !797, line: 32, baseType: !800, size: 64, align: 64)
!800 = !DIDerivedType(tag: DW_TAG_typedef, name: "__time_t", file: !136, line: 148, baseType: !137)
!801 = !DIDerivedType(tag: DW_TAG_member, name: "tv_usec", scope: !796, file: !797, line: 33, baseType: !802, size: 64, align: 64, offset: 64)
!802 = !DIDerivedType(tag: DW_TAG_typedef, name: "__suseconds_t", file: !136, line: 150, baseType: !137)
!803 = !DILocalVariable(name: "time_end", scope: !785, file: !1, line: 168, type: !796)
!804 = !DILocalVariable(name: "time_total", scope: !785, file: !1, line: 170, type: !165)
!805 = !DILocation(line: 92, column: 14, scope: !785)
!806 = !DILocation(line: 92, column: 26, scope: !785)
!807 = !DILocation(line: 94, column: 3, scope: !785)
!808 = !DILocation(line: 95, column: 9, scope: !785)
!809 = !DILocation(line: 98, column: 14, scope: !810)
!810 = distinct !DILexicalBlock(scope: !785, file: !1, line: 98, column: 9)
!811 = !DILocation(line: 98, column: 9, scope: !785)
!812 = !DILocation(line: 129, column: 11, scope: !813)
!813 = distinct !DILexicalBlock(scope: !814, file: !1, line: 129, column: 11)
!814 = distinct !DILexicalBlock(scope: !815, file: !1, line: 128, column: 25)
!815 = distinct !DILexicalBlock(scope: !816, file: !1, line: 128, column: 5)
!816 = distinct !DILexicalBlock(scope: !785, file: !1, line: 128, column: 5)
!817 = !DILocation(line: 99, column: 9, scope: !818)
!818 = distinct !DILexicalBlock(scope: !810, file: !1, line: 98, column: 19)
!819 = !DILocation(line: 100, column: 9, scope: !818)
!820 = !DILocation(line: 101, column: 9, scope: !818)
!821 = !DILocation(line: 102, column: 9, scope: !818)
!822 = !DILocation(line: 103, column: 9, scope: !818)
!823 = !DILocation(line: 104, column: 9, scope: !818)
!824 = !DILocation(line: 105, column: 9, scope: !818)
!825 = !DILocation(line: 106, column: 9, scope: !818)
!826 = !DILocation(line: 107, column: 9, scope: !818)
!827 = !DILocation(line: 108, column: 9, scope: !818)
!828 = !DILocation(line: 109, column: 9, scope: !818)
!829 = !DILocation(line: 110, column: 9, scope: !818)
!830 = !DILocation(line: 111, column: 9, scope: !818)
!831 = !DILocation(line: 112, column: 9, scope: !818)
!832 = !DILocation(line: 113, column: 9, scope: !818)
!833 = !DILocation(line: 114, column: 9, scope: !818)
!834 = !DILocation(line: 115, column: 9, scope: !818)
!835 = !DILocation(line: 116, column: 9, scope: !818)
!836 = !DILocation(line: 117, column: 9, scope: !818)
!837 = !DILocation(line: 118, column: 9, scope: !818)
!838 = !DILocation(line: 119, column: 9, scope: !818)
!839 = !DILocation(line: 120, column: 9, scope: !818)
!840 = !DILocation(line: 121, column: 9, scope: !818)
!841 = !{!842, !842, i64 0}
!842 = !{!"any pointer", !777, i64 0}
!843 = !{!777, !777, i64 0}
!844 = !DILocation(line: 129, column: 21, scope: !813)
!845 = !DILocation(line: 129, column: 11, scope: !814)
!846 = !DILocation(line: 130, column: 16, scope: !847)
!847 = distinct !DILexicalBlock(scope: !813, file: !1, line: 129, column: 28)
!848 = !DILocation(line: 97, column: 10, scope: !785)
!849 = !DILocation(line: 131, column: 19, scope: !847)
!850 = !DILocation(line: 131, column: 11, scope: !847)
!851 = !DILocation(line: 133, column: 16, scope: !852)
!852 = distinct !DILexicalBlock(scope: !847, file: !1, line: 131, column: 25)
!853 = !DILocation(line: 96, column: 9, scope: !785)
!854 = !DILocation(line: 134, column: 27, scope: !852)
!855 = !DILocation(line: 278, column: 1, scope: !440, inlinedAt: !856)
!856 = distinct !DILocation(line: 134, column: 22, scope: !852)
!857 = !DILocation(line: 280, column: 16, scope: !440, inlinedAt: !856)
!858 = !DILocation(line: 134, column: 20, scope: !852)
!859 = !{!860, !860, i64 0}
!860 = !{!"int", !777, i64 0}
!861 = !DILocation(line: 135, column: 8, scope: !852)
!862 = !DILocation(line: 137, column: 29, scope: !852)
!863 = !DILocation(line: 137, column: 34, scope: !852)
!864 = !DILocation(line: 137, column: 41, scope: !852)
!865 = !DILocation(line: 137, column: 22, scope: !852)
!866 = !DILocation(line: 137, column: 12, scope: !852)
!867 = !DILocation(line: 137, column: 10, scope: !852)
!868 = !DILocation(line: 138, column: 8, scope: !852)
!869 = !DILocation(line: 141, column: 22, scope: !870)
!870 = !DILexicalBlockFile(scope: !871, file: !1, discriminator: 1)
!871 = distinct !DILexicalBlock(scope: !872, file: !1, line: 141, column: 8)
!872 = distinct !DILexicalBlock(scope: !852, file: !1, line: 141, column: 8)
!873 = !DILocation(line: 140, column: 29, scope: !852)
!874 = !DILocation(line: 140, column: 34, scope: !852)
!875 = !DILocation(line: 140, column: 22, scope: !852)
!876 = !DILocation(line: 140, column: 10, scope: !852)
!877 = !DILocation(line: 96, column: 12, scope: !785)
!878 = !DILocation(line: 141, column: 20, scope: !870)
!879 = !DILocation(line: 142, column: 7, scope: !871)
!880 = !DILocation(line: 141, column: 8, scope: !870)
!881 = !DILocation(line: 142, column: 11, scope: !871)
!882 = distinct !{!882, !763}
!883 = distinct !{!883, !884, !885, !886}
!884 = !DILocation(line: 141, column: 8, scope: !852)
!885 = !{!"llvm.loop.vectorize.width", i32 1}
!886 = !{!"llvm.loop.interleave.count", i32 1}
!887 = distinct !{!887, !884, !888, !885, !886}
!888 = !{!"llvm.loop.unroll.runtime.disable"}
!889 = !DILocation(line: 144, column: 34, scope: !852)
!890 = !DILocation(line: 144, column: 29, scope: !852)
!891 = !DILocation(line: 144, column: 41, scope: !852)
!892 = !DILocation(line: 144, column: 22, scope: !852)
!893 = !DILocation(line: 144, column: 10, scope: !852)
!894 = !DILocation(line: 145, column: 15, scope: !852)
!895 = !DILocation(line: 147, column: 16, scope: !852)
!896 = !DILocation(line: 148, column: 39, scope: !852)
!897 = !DILocation(line: 148, column: 8, scope: !852)
!898 = !DILocation(line: 149, column: 24, scope: !852)
!899 = !DILocation(line: 149, column: 8, scope: !852)
!900 = !DILocation(line: 150, column: 15, scope: !852)
!901 = !DILocation(line: 153, column: 15, scope: !852)
!902 = !DILocation(line: 128, column: 21, scope: !903)
!903 = !DILexicalBlockFile(scope: !815, file: !1, discriminator: 2)
!904 = !DILocation(line: 128, column: 14, scope: !905)
!905 = !DILexicalBlockFile(scope: !815, file: !1, discriminator: 1)
!906 = !DILocation(line: 128, column: 5, scope: !905)
!907 = distinct !{!907, !908}
!908 = !DILocation(line: 128, column: 5, scope: !785)
!909 = !DILocalVariable(name: "i", scope: !910, file: !1, line: 276, type: !98)
!910 = distinct !DISubprogram(name: "InitPerRun", linkageName: "_Z10InitPerRunv", scope: !1, file: !1, line: 274, type: !425, isLocal: false, isDefinition: true, scopeLine: 275, flags: DIFlagPrototyped, isOptimized: true, unit: !0, variables: !911)
!911 = !{!909}
!912 = !DILocation(line: 276, column: 6, scope: !910, inlinedAt: !913)
!913 = distinct !DILocation(line: 159, column: 5, scope: !785)
!914 = !DILocation(line: 277, column: 14, scope: !915, inlinedAt: !913)
!915 = !DILexicalBlockFile(scope: !916, file: !1, discriminator: 1)
!916 = distinct !DILexicalBlock(scope: !917, file: !1, line: 277, column: 2)
!917 = distinct !DILexicalBlock(scope: !910, file: !1, line: 277, column: 2)
!918 = !DILocation(line: 277, column: 18, scope: !915, inlinedAt: !913)
!919 = !DILocation(line: 277, column: 13, scope: !915, inlinedAt: !913)
!920 = !DILocation(line: 277, column: 2, scope: !915, inlinedAt: !913)
!921 = !DILocation(line: 278, column: 6, scope: !916, inlinedAt: !913)
!922 = !DILocation(line: 278, column: 11, scope: !916, inlinedAt: !913)
!923 = !DILocation(line: 279, column: 1, scope: !910, inlinedAt: !913)
!924 = !DILocation(line: 161, column: 5, scope: !785)
!925 = !DILocation(line: 161, column: 20, scope: !785)
!926 = !DILocation(line: 162, column: 5, scope: !785)
!927 = !DILocation(line: 165, column: 5, scope: !785)
!928 = !DILocation(line: 168, column: 5, scope: !785)
!929 = !DILocation(line: 168, column: 20, scope: !785)
!930 = !DILocation(line: 169, column: 5, scope: !785)
!931 = !DILocation(line: 170, column: 41, scope: !785)
!932 = !{!933, !934, i64 0}
!933 = !{!"_ZTS7timeval", !934, i64 0, !934, i64 8}
!934 = !{!"long", !777, i64 0}
!935 = !DILocation(line: 170, column: 69, scope: !785)
!936 = !{!933, !934, i64 8}
!937 = !DILocation(line: 170, column: 92, scope: !785)
!938 = !DILocation(line: 170, column: 122, scope: !785)
!939 = !DILocation(line: 170, column: 58, scope: !785)
!940 = !DILocation(line: 170, column: 78, scope: !785)
!941 = !DILocation(line: 170, column: 31, scope: !785)
!942 = !DILocation(line: 170, column: 18, scope: !785)
!943 = !DILocation(line: 172, column: 9, scope: !944)
!944 = distinct !DILexicalBlock(scope: !785, file: !1, line: 172, column: 9)
!945 = !DILocation(line: 172, column: 9, scope: !785)
!946 = !DILocation(line: 173, column: 9, scope: !947)
!947 = distinct !DILexicalBlock(scope: !944, file: !1, line: 172, column: 18)
!948 = !DILocation(line: 174, column: 18, scope: !947)
!949 = !DILocation(line: 174, column: 21, scope: !947)
!950 = !DILocalVariable(name: "ary", arg: 1, scope: !951, file: !1, line: 421, type: !94)
!951 = distinct !DISubprogram(name: "PrintMat", linkageName: "_Z8PrintMatPfii", scope: !1, file: !1, line: 421, type: !952, isLocal: false, isDefinition: true, scopeLine: 422, flags: DIFlagPrototyped, isOptimized: true, unit: !0, variables: !954)
!952 = !DISubroutineType(types: !953)
!953 = !{null, !94, !98, !98}
!954 = !{!950, !955, !956, !957, !958}
!955 = !DILocalVariable(name: "nrow", arg: 2, scope: !951, file: !1, line: 421, type: !98)
!956 = !DILocalVariable(name: "ncol", arg: 3, scope: !951, file: !1, line: 421, type: !98)
!957 = !DILocalVariable(name: "i", scope: !951, file: !1, line: 423, type: !98)
!958 = !DILocalVariable(name: "j", scope: !951, file: !1, line: 423, type: !98)
!959 = !DILocation(line: 421, column: 22, scope: !951, inlinedAt: !960)
!960 = distinct !DILocation(line: 174, column: 9, scope: !947)
!961 = !DILocation(line: 421, column: 31, scope: !951, inlinedAt: !960)
!962 = !DILocation(line: 421, column: 41, scope: !951, inlinedAt: !960)
!963 = !DILocation(line: 423, column: 6, scope: !951, inlinedAt: !960)
!964 = !DILocation(line: 425, column: 13, scope: !965, inlinedAt: !960)
!965 = !DILexicalBlockFile(scope: !966, file: !1, discriminator: 1)
!966 = distinct !DILexicalBlock(scope: !967, file: !1, line: 425, column: 2)
!967 = distinct !DILexicalBlock(scope: !951, file: !1, line: 425, column: 2)
!968 = !DILocation(line: 425, column: 2, scope: !965, inlinedAt: !960)
!969 = !DILocation(line: 426, column: 3, scope: !970, inlinedAt: !960)
!970 = !DILexicalBlockFile(scope: !971, file: !1, discriminator: 1)
!971 = distinct !DILexicalBlock(scope: !972, file: !1, line: 426, column: 3)
!972 = distinct !DILexicalBlock(scope: !973, file: !1, line: 426, column: 3)
!973 = distinct !DILexicalBlock(scope: !966, file: !1, line: 425, column: 25)
!974 = !DILocation(line: 423, column: 9, scope: !951, inlinedAt: !960)
!975 = !DILocation(line: 174, column: 9, scope: !947)
!976 = !DILocation(line: 427, column: 27, scope: !977, inlinedAt: !960)
!977 = distinct !DILexicalBlock(scope: !971, file: !1, line: 426, column: 26)
!978 = !DILocation(line: 427, column: 31, scope: !977, inlinedAt: !960)
!979 = !DILocation(line: 427, column: 26, scope: !977, inlinedAt: !960)
!980 = !DILocation(line: 427, column: 33, scope: !977, inlinedAt: !960)
!981 = !DILocation(line: 427, column: 21, scope: !977, inlinedAt: !960)
!982 = !DILocation(line: 427, column: 4, scope: !977, inlinedAt: !960)
!983 = distinct !{!983, !984}
!984 = !DILocation(line: 426, column: 3, scope: !973)
!985 = !DILocation(line: 429, column: 3, scope: !973, inlinedAt: !960)
!986 = !DILocation(line: 425, column: 21, scope: !987, inlinedAt: !960)
!987 = !DILexicalBlockFile(scope: !966, file: !1, discriminator: 2)
!988 = distinct !{!988, !989}
!989 = !DILocation(line: 425, column: 2, scope: !951)
!990 = !DILocation(line: 431, column: 2, scope: !951, inlinedAt: !960)
!991 = !DILocation(line: 176, column: 9, scope: !947)
!992 = !DILocation(line: 177, column: 18, scope: !947)
!993 = !DILocation(line: 177, column: 21, scope: !947)
!994 = !DILocation(line: 421, column: 22, scope: !951, inlinedAt: !995)
!995 = distinct !DILocation(line: 177, column: 9, scope: !947)
!996 = !DILocation(line: 421, column: 31, scope: !951, inlinedAt: !995)
!997 = !DILocation(line: 421, column: 41, scope: !951, inlinedAt: !995)
!998 = !DILocation(line: 423, column: 6, scope: !951, inlinedAt: !995)
!999 = !DILocation(line: 425, column: 13, scope: !965, inlinedAt: !995)
!1000 = !DILocation(line: 425, column: 2, scope: !965, inlinedAt: !995)
!1001 = !DILocation(line: 426, column: 3, scope: !970, inlinedAt: !995)
!1002 = !DILocation(line: 423, column: 9, scope: !951, inlinedAt: !995)
!1003 = !DILocation(line: 177, column: 9, scope: !947)
!1004 = !DILocation(line: 427, column: 27, scope: !977, inlinedAt: !995)
!1005 = !DILocation(line: 427, column: 31, scope: !977, inlinedAt: !995)
!1006 = !DILocation(line: 427, column: 26, scope: !977, inlinedAt: !995)
!1007 = !DILocation(line: 427, column: 33, scope: !977, inlinedAt: !995)
!1008 = !DILocation(line: 427, column: 21, scope: !977, inlinedAt: !995)
!1009 = !DILocation(line: 427, column: 4, scope: !977, inlinedAt: !995)
!1010 = !DILocation(line: 429, column: 3, scope: !973, inlinedAt: !995)
!1011 = !DILocation(line: 425, column: 21, scope: !987, inlinedAt: !995)
!1012 = !DILocation(line: 431, column: 2, scope: !951, inlinedAt: !995)
!1013 = !DILocation(line: 179, column: 9, scope: !947)
!1014 = !DILocation(line: 180, column: 18, scope: !947)
!1015 = !DILocation(line: 180, column: 21, scope: !947)
!1016 = !DILocalVariable(name: "ary", arg: 1, scope: !1017, file: !1, line: 452, type: !94)
!1017 = distinct !DISubprogram(name: "PrintAry", linkageName: "_Z8PrintAryPfi", scope: !1, file: !1, line: 452, type: !719, isLocal: false, isDefinition: true, scopeLine: 453, flags: DIFlagPrototyped, isOptimized: true, unit: !0, variables: !1018)
!1018 = !{!1016, !1019, !1020}
!1019 = !DILocalVariable(name: "ary_size", arg: 2, scope: !1017, file: !1, line: 452, type: !98)
!1020 = !DILocalVariable(name: "i", scope: !1017, file: !1, line: 454, type: !98)
!1021 = !DILocation(line: 452, column: 22, scope: !1017, inlinedAt: !1022)
!1022 = distinct !DILocation(line: 180, column: 9, scope: !947)
!1023 = !DILocation(line: 452, column: 31, scope: !1017, inlinedAt: !1022)
!1024 = !DILocation(line: 454, column: 6, scope: !1017, inlinedAt: !1022)
!1025 = !DILocation(line: 455, column: 13, scope: !1026, inlinedAt: !1022)
!1026 = !DILexicalBlockFile(scope: !1027, file: !1, discriminator: 1)
!1027 = distinct !DILexicalBlock(scope: !1028, file: !1, line: 455, column: 2)
!1028 = distinct !DILexicalBlock(scope: !1017, file: !1, line: 455, column: 2)
!1029 = !DILocation(line: 455, column: 2, scope: !1026, inlinedAt: !1022)
!1030 = !DILocation(line: 456, column: 19, scope: !1031, inlinedAt: !1022)
!1031 = distinct !DILexicalBlock(scope: !1027, file: !1, line: 455, column: 29)
!1032 = !DILocation(line: 180, column: 9, scope: !947)
!1033 = !DILocation(line: 456, column: 3, scope: !1031, inlinedAt: !1022)
!1034 = distinct !{!1034, !1035}
!1035 = !DILocation(line: 455, column: 2, scope: !1017)
!1036 = !DILocation(line: 458, column: 2, scope: !1017, inlinedAt: !1022)
!1037 = !DILocation(line: 396, column: 12, scope: !1038, inlinedAt: !1045)
!1038 = !DILexicalBlockFile(scope: !1039, file: !1, discriminator: 1)
!1039 = distinct !DILexicalBlock(scope: !1040, file: !1, line: 396, column: 2)
!1040 = distinct !DILexicalBlock(scope: !1041, file: !1, line: 396, column: 2)
!1041 = distinct !DISubprogram(name: "BackSub", linkageName: "_Z7BackSubv", scope: !1, file: !1, line: 390, type: !425, isLocal: false, isDefinition: true, scopeLine: 391, flags: DIFlagPrototyped, isOptimized: true, unit: !0, variables: !1042)
!1042 = !{!1043, !1044}
!1043 = !DILocalVariable(name: "i", scope: !1041, file: !1, line: 395, type: !98)
!1044 = !DILocalVariable(name: "j", scope: !1041, file: !1, line: 395, type: !98)
!1045 = distinct !DILocation(line: 182, column: 5, scope: !785)
!1046 = !DILocation(line: 393, column: 30, scope: !1041, inlinedAt: !1045)
!1047 = !DILocation(line: 393, column: 35, scope: !1041, inlinedAt: !1045)
!1048 = !DILocation(line: 393, column: 23, scope: !1041, inlinedAt: !1045)
!1049 = !DILocation(line: 393, column: 11, scope: !1041, inlinedAt: !1045)
!1050 = !DILocation(line: 395, column: 6, scope: !1041, inlinedAt: !1045)
!1051 = !DILocation(line: 396, column: 11, scope: !1038, inlinedAt: !1045)
!1052 = !DILocation(line: 397, column: 3, scope: !1053, inlinedAt: !1045)
!1053 = distinct !DILexicalBlock(scope: !1039, file: !1, line: 396, column: 21)
!1054 = !DILocation(line: 396, column: 2, scope: !1038, inlinedAt: !1045)
!1055 = !DILocation(line: 397, column: 22, scope: !1053, inlinedAt: !1045)
!1056 = !DILocation(line: 400, column: 26, scope: !1057, inlinedAt: !1045)
!1057 = distinct !DILexicalBlock(scope: !1058, file: !1, line: 399, column: 3)
!1058 = distinct !DILexicalBlock(scope: !1059, file: !1, line: 398, column: 3)
!1059 = distinct !DILexicalBlock(scope: !1053, file: !1, line: 398, column: 3)
!1060 = !DILocation(line: 400, column: 49, scope: !1057, inlinedAt: !1045)
!1061 = !DILocation(line: 400, column: 43, scope: !1057, inlinedAt: !1045)
!1062 = !DILocation(line: 400, column: 58, scope: !1057, inlinedAt: !1045)
!1063 = !DILocation(line: 182, column: 5, scope: !785)
!1064 = !DILocation(line: 397, column: 28, scope: !1053, inlinedAt: !1045)
!1065 = !DILocation(line: 397, column: 30, scope: !1053, inlinedAt: !1045)
!1066 = !DILocation(line: 397, column: 21, scope: !1053, inlinedAt: !1045)
!1067 = !DILocation(line: 395, column: 8, scope: !1041, inlinedAt: !1045)
!1068 = !DILocation(line: 398, column: 12, scope: !1069, inlinedAt: !1045)
!1069 = !DILexicalBlockFile(scope: !1058, file: !1, discriminator: 1)
!1070 = !DILocation(line: 400, column: 32, scope: !1057, inlinedAt: !1045)
!1071 = !DILocation(line: 400, column: 22, scope: !1057, inlinedAt: !1045)
!1072 = !DILocation(line: 398, column: 3, scope: !1069, inlinedAt: !1045)
!1073 = !DILocation(line: 400, column: 27, scope: !1057, inlinedAt: !1045)
!1074 = !DILocation(line: 400, column: 24, scope: !1057, inlinedAt: !1045)
!1075 = !DILocation(line: 400, column: 56, scope: !1057, inlinedAt: !1045)
!1076 = !DILocation(line: 400, column: 51, scope: !1057, inlinedAt: !1045)
!1077 = distinct !{!1077, !1078}
!1078 = !DILocation(line: 398, column: 3, scope: !1053)
!1079 = !DILocation(line: 402, column: 61, scope: !1053, inlinedAt: !1045)
!1080 = !DILocation(line: 402, column: 42, scope: !1053, inlinedAt: !1045)
!1081 = !DILocation(line: 402, column: 40, scope: !1053, inlinedAt: !1045)
!1082 = !DILocation(line: 402, column: 21, scope: !1053, inlinedAt: !1045)
!1083 = distinct !{!1083, !1084}
!1084 = !DILocation(line: 396, column: 2, scope: !1041)
!1085 = !DILocation(line: 184, column: 9, scope: !1086)
!1086 = distinct !DILexicalBlock(scope: !1087, file: !1, line: 183, column: 18)
!1087 = distinct !DILexicalBlock(scope: !785, file: !1, line: 183, column: 9)
!1088 = !DILocation(line: 185, column: 18, scope: !1086)
!1089 = !DILocation(line: 185, column: 27, scope: !1086)
!1090 = !DILocation(line: 452, column: 22, scope: !1017, inlinedAt: !1091)
!1091 = distinct !DILocation(line: 185, column: 9, scope: !1086)
!1092 = !DILocation(line: 452, column: 31, scope: !1017, inlinedAt: !1091)
!1093 = !DILocation(line: 454, column: 6, scope: !1017, inlinedAt: !1091)
!1094 = !DILocation(line: 455, column: 13, scope: !1026, inlinedAt: !1091)
!1095 = !DILocation(line: 455, column: 2, scope: !1026, inlinedAt: !1091)
!1096 = !DILocation(line: 456, column: 19, scope: !1031, inlinedAt: !1091)
!1097 = !DILocation(line: 185, column: 9, scope: !1086)
!1098 = !DILocation(line: 456, column: 3, scope: !1031, inlinedAt: !1091)
!1099 = !DILocation(line: 458, column: 2, scope: !1017, inlinedAt: !1091)
!1100 = !DILocation(line: 186, column: 5, scope: !1086)
!1101 = !DILocation(line: 396, column: 12, scope: !1038, inlinedAt: !1102)
!1102 = distinct !DILocation(line: 182, column: 5, scope: !785)
!1103 = !DILocation(line: 393, column: 30, scope: !1041, inlinedAt: !1102)
!1104 = !DILocation(line: 393, column: 35, scope: !1041, inlinedAt: !1102)
!1105 = !DILocation(line: 393, column: 23, scope: !1041, inlinedAt: !1102)
!1106 = !DILocation(line: 393, column: 11, scope: !1041, inlinedAt: !1102)
!1107 = !DILocation(line: 395, column: 6, scope: !1041, inlinedAt: !1102)
!1108 = !DILocation(line: 396, column: 11, scope: !1038, inlinedAt: !1102)
!1109 = !DILocation(line: 397, column: 3, scope: !1053, inlinedAt: !1102)
!1110 = !DILocation(line: 396, column: 2, scope: !1038, inlinedAt: !1102)
!1111 = !DILocation(line: 397, column: 22, scope: !1053, inlinedAt: !1102)
!1112 = !DILocation(line: 400, column: 26, scope: !1057, inlinedAt: !1102)
!1113 = !DILocation(line: 400, column: 49, scope: !1057, inlinedAt: !1102)
!1114 = !DILocation(line: 400, column: 43, scope: !1057, inlinedAt: !1102)
!1115 = !DILocation(line: 400, column: 58, scope: !1057, inlinedAt: !1102)
!1116 = !DILocation(line: 397, column: 28, scope: !1053, inlinedAt: !1102)
!1117 = !DILocation(line: 397, column: 30, scope: !1053, inlinedAt: !1102)
!1118 = !DILocation(line: 397, column: 21, scope: !1053, inlinedAt: !1102)
!1119 = !DILocation(line: 395, column: 8, scope: !1041, inlinedAt: !1102)
!1120 = !DILocation(line: 398, column: 12, scope: !1069, inlinedAt: !1102)
!1121 = !DILocation(line: 400, column: 32, scope: !1057, inlinedAt: !1102)
!1122 = !DILocation(line: 400, column: 22, scope: !1057, inlinedAt: !1102)
!1123 = !DILocation(line: 398, column: 3, scope: !1069, inlinedAt: !1102)
!1124 = !DILocation(line: 400, column: 27, scope: !1057, inlinedAt: !1102)
!1125 = !DILocation(line: 400, column: 24, scope: !1057, inlinedAt: !1102)
!1126 = !DILocation(line: 400, column: 56, scope: !1057, inlinedAt: !1102)
!1127 = !DILocation(line: 400, column: 51, scope: !1057, inlinedAt: !1102)
!1128 = !DILocation(line: 402, column: 61, scope: !1053, inlinedAt: !1102)
!1129 = !DILocation(line: 402, column: 42, scope: !1053, inlinedAt: !1102)
!1130 = !DILocation(line: 402, column: 40, scope: !1053, inlinedAt: !1102)
!1131 = !DILocation(line: 402, column: 21, scope: !1053, inlinedAt: !1102)
!1132 = !DILocation(line: 187, column: 67, scope: !785)
!1133 = !DILocation(line: 187, column: 78, scope: !785)
!1134 = !DILocation(line: 187, column: 5, scope: !785)
!1135 = !DILocation(line: 188, column: 47, scope: !785)
!1136 = !DILocation(line: 188, column: 63, scope: !785)
!1137 = !DILocation(line: 188, column: 5, scope: !785)
!1138 = !DILocation(line: 193, column: 10, scope: !785)
!1139 = !DILocation(line: 193, column: 5, scope: !785)
!1140 = !DILocation(line: 194, column: 10, scope: !785)
!1141 = !DILocation(line: 194, column: 5, scope: !785)
!1142 = !DILocation(line: 195, column: 10, scope: !785)
!1143 = !DILocation(line: 195, column: 5, scope: !785)
!1144 = !DILocation(line: 196, column: 1, scope: !785)
!1145 = distinct !DISubprogram(name: "InitProblemOnce", linkageName: "_Z15InitProblemOncePc", scope: !1, file: !1, line: 243, type: !1146, isLocal: false, isDefinition: true, scopeLine: 244, flags: DIFlagPrototyped, isOptimized: true, unit: !0, variables: !1148)
!1146 = !DISubroutineType(types: !1147)
!1147 = !{null, !100}
!1148 = !{!1149}
!1149 = !DILocalVariable(name: "filename", arg: 1, scope: !1145, file: !1, line: 243, type: !100)
!1150 = !DILocation(line: 243, column: 28, scope: !1145)
!1151 = !DILocation(line: 251, column: 7, scope: !1145)
!1152 = !DILocation(line: 251, column: 5, scope: !1145)
!1153 = !DILocation(line: 253, column: 2, scope: !1145)
!1154 = !DILocation(line: 255, column: 23, scope: !1145)
!1155 = !DILocation(line: 255, column: 28, scope: !1145)
!1156 = !DILocation(line: 255, column: 35, scope: !1145)
!1157 = !DILocation(line: 255, column: 16, scope: !1145)
!1158 = !DILocation(line: 255, column: 6, scope: !1145)
!1159 = !DILocation(line: 255, column: 4, scope: !1145)
!1160 = !DILocalVariable(name: "ary", arg: 1, scope: !1161, file: !1, line: 406, type: !94)
!1161 = distinct !DISubprogram(name: "InitMat", linkageName: "_Z7InitMatPfii", scope: !1, file: !1, line: 406, type: !952, isLocal: false, isDefinition: true, scopeLine: 407, flags: DIFlagPrototyped, isOptimized: true, unit: !0, variables: !1162)
!1162 = !{!1160, !1163, !1164, !1165, !1166}
!1163 = !DILocalVariable(name: "nrow", arg: 2, scope: !1161, file: !1, line: 406, type: !98)
!1164 = !DILocalVariable(name: "ncol", arg: 3, scope: !1161, file: !1, line: 406, type: !98)
!1165 = !DILocalVariable(name: "i", scope: !1161, file: !1, line: 408, type: !98)
!1166 = !DILocalVariable(name: "j", scope: !1161, file: !1, line: 408, type: !98)
!1167 = !DILocation(line: 406, column: 21, scope: !1161, inlinedAt: !1168)
!1168 = distinct !DILocation(line: 257, column: 2, scope: !1145)
!1169 = !DILocation(line: 406, column: 30, scope: !1161, inlinedAt: !1168)
!1170 = !DILocation(line: 406, column: 40, scope: !1161, inlinedAt: !1168)
!1171 = !DILocation(line: 408, column: 6, scope: !1161, inlinedAt: !1168)
!1172 = !DILocation(line: 410, column: 13, scope: !1173, inlinedAt: !1168)
!1173 = !DILexicalBlockFile(scope: !1174, file: !1, discriminator: 1)
!1174 = distinct !DILexicalBlock(scope: !1175, file: !1, line: 410, column: 2)
!1175 = distinct !DILexicalBlock(scope: !1161, file: !1, line: 410, column: 2)
!1176 = !DILocation(line: 410, column: 2, scope: !1173, inlinedAt: !1168)
!1177 = !DILocation(line: 411, column: 3, scope: !1178, inlinedAt: !1168)
!1178 = !DILexicalBlockFile(scope: !1179, file: !1, discriminator: 1)
!1179 = distinct !DILexicalBlock(scope: !1180, file: !1, line: 411, column: 3)
!1180 = distinct !DILexicalBlock(scope: !1181, file: !1, line: 411, column: 3)
!1181 = distinct !DILexicalBlock(scope: !1174, file: !1, line: 410, column: 25)
!1182 = !DILocation(line: 408, column: 9, scope: !1161, inlinedAt: !1168)
!1183 = !DILocation(line: 257, column: 2, scope: !1145)
!1184 = !DILocation(line: 412, column: 11, scope: !1185, inlinedAt: !1168)
!1185 = distinct !DILexicalBlock(scope: !1179, file: !1, line: 411, column: 26)
!1186 = !DILocation(line: 412, column: 26, scope: !1185, inlinedAt: !1168)
!1187 = !DILocation(line: 412, column: 30, scope: !1185, inlinedAt: !1168)
!1188 = !DILocation(line: 412, column: 25, scope: !1185, inlinedAt: !1168)
!1189 = !DILocation(line: 412, column: 32, scope: !1185, inlinedAt: !1168)
!1190 = !DILocation(line: 412, column: 4, scope: !1185, inlinedAt: !1168)
!1191 = distinct !{!1191, !1192}
!1192 = !DILocation(line: 411, column: 3, scope: !1181)
!1193 = !DILocation(line: 410, column: 21, scope: !1194, inlinedAt: !1168)
!1194 = !DILexicalBlockFile(scope: !1174, file: !1, discriminator: 2)
!1195 = distinct !{!1195, !1196}
!1196 = !DILocation(line: 410, column: 2, scope: !1161)
!1197 = !DILocation(line: 260, column: 23, scope: !1145)
!1198 = !DILocation(line: 260, column: 28, scope: !1145)
!1199 = !DILocation(line: 260, column: 16, scope: !1145)
!1200 = !DILocation(line: 260, column: 6, scope: !1145)
!1201 = !DILocation(line: 260, column: 4, scope: !1145)
!1202 = !DILocalVariable(name: "ary", arg: 1, scope: !1203, file: !1, line: 439, type: !94)
!1203 = distinct !DISubprogram(name: "InitAry", linkageName: "_Z7InitAryPfi", scope: !1, file: !1, line: 439, type: !719, isLocal: false, isDefinition: true, scopeLine: 440, flags: DIFlagPrototyped, isOptimized: true, unit: !0, variables: !1204)
!1204 = !{!1202, !1205, !1206}
!1205 = !DILocalVariable(name: "ary_size", arg: 2, scope: !1203, file: !1, line: 439, type: !98)
!1206 = !DILocalVariable(name: "i", scope: !1203, file: !1, line: 441, type: !98)
!1207 = !DILocation(line: 439, column: 21, scope: !1203, inlinedAt: !1208)
!1208 = distinct !DILocation(line: 262, column: 2, scope: !1145)
!1209 = !DILocation(line: 439, column: 30, scope: !1203, inlinedAt: !1208)
!1210 = !DILocation(line: 441, column: 6, scope: !1203, inlinedAt: !1208)
!1211 = !DILocation(line: 443, column: 13, scope: !1212, inlinedAt: !1208)
!1212 = !DILexicalBlockFile(scope: !1213, file: !1, discriminator: 1)
!1213 = distinct !DILexicalBlock(scope: !1214, file: !1, line: 443, column: 2)
!1214 = distinct !DILexicalBlock(scope: !1203, file: !1, line: 443, column: 2)
!1215 = !DILocation(line: 443, column: 2, scope: !1212, inlinedAt: !1208)
!1216 = !DILocation(line: 444, column: 10, scope: !1217, inlinedAt: !1208)
!1217 = distinct !DILexicalBlock(scope: !1213, file: !1, line: 443, column: 29)
!1218 = !DILocation(line: 262, column: 2, scope: !1145)
!1219 = !DILocation(line: 444, column: 22, scope: !1217, inlinedAt: !1208)
!1220 = !DILocation(line: 444, column: 3, scope: !1217, inlinedAt: !1208)
!1221 = distinct !{!1221, !1222}
!1222 = !DILocation(line: 443, column: 2, scope: !1203)
!1223 = !DILocation(line: 266, column: 24, scope: !1145)
!1224 = !DILocation(line: 266, column: 29, scope: !1145)
!1225 = !DILocation(line: 266, column: 36, scope: !1145)
!1226 = !DILocation(line: 266, column: 17, scope: !1145)
!1227 = !DILocation(line: 266, column: 5, scope: !1145)
!1228 = !DILocation(line: 267, column: 1, scope: !1145)
!1229 = !DILocation(line: 276, column: 6, scope: !910)
!1230 = !DILocation(line: 277, column: 14, scope: !915)
!1231 = !DILocation(line: 277, column: 18, scope: !915)
!1232 = !DILocation(line: 277, column: 13, scope: !915)
!1233 = !DILocation(line: 277, column: 2, scope: !915)
!1234 = !DILocation(line: 278, column: 6, scope: !916)
!1235 = !DILocation(line: 278, column: 11, scope: !916)
!1236 = !DILocation(line: 279, column: 1, scope: !910)
!1237 = distinct !DISubprogram(name: "ForwardSub", linkageName: "_Z10ForwardSubv", scope: !1, file: !1, line: 326, type: !425, isLocal: false, isDefinition: true, scopeLine: 327, flags: DIFlagPrototyped, isOptimized: true, unit: !0, variables: !1238)
!1238 = !{!1239, !1240, !1241, !1242, !1243, !1244, !1245, !1269, !1270, !1271, !1272, !1273, !1274, !1275}
!1239 = !DILocalVariable(name: "t", scope: !1237, file: !1, line: 328, type: !98)
!1240 = !DILocalVariable(name: "m_cuda", scope: !1237, file: !1, line: 329, type: !94)
!1241 = !DILocalVariable(name: "a_cuda", scope: !1237, file: !1, line: 329, type: !94)
!1242 = !DILocalVariable(name: "b_cuda", scope: !1237, file: !1, line: 329, type: !94)
!1243 = !DILocalVariable(name: "block_size", scope: !1237, file: !1, line: 343, type: !98)
!1244 = !DILocalVariable(name: "grid_size", scope: !1237, file: !1, line: 343, type: !98)
!1245 = !DILocalVariable(name: "dimBlock", scope: !1237, file: !1, line: 350, type: !1246)
!1246 = !DIDerivedType(tag: DW_TAG_typedef, name: "dim3", file: !1247, line: 427, baseType: !1248)
!1247 = !DIFile(filename: "/usr/local/cuda/include/vector_types.h", directory: "/home/ec2-user/DynamicAnalyis")
!1248 = distinct !DICompositeType(tag: DW_TAG_structure_type, name: "dim3", file: !1247, line: 417, size: 96, align: 32, elements: !1249, identifier: "_ZTS4dim3")
!1249 = !{!1250, !1251, !1252, !1253, !1257, !1266}
!1250 = !DIDerivedType(tag: DW_TAG_member, name: "x", scope: !1248, file: !1247, line: 419, baseType: !165, size: 32, align: 32)
!1251 = !DIDerivedType(tag: DW_TAG_member, name: "y", scope: !1248, file: !1247, line: 419, baseType: !165, size: 32, align: 32, offset: 32)
!1252 = !DIDerivedType(tag: DW_TAG_member, name: "z", scope: !1248, file: !1247, line: 419, baseType: !165, size: 32, align: 32, offset: 64)
!1253 = !DISubprogram(name: "dim3", scope: !1248, file: !1247, line: 421, type: !1254, isLocal: false, isDefinition: false, scopeLine: 421, flags: DIFlagPrototyped, isOptimized: true)
!1254 = !DISubroutineType(types: !1255)
!1255 = !{null, !1256, !165, !165, !165}
!1256 = !DIDerivedType(tag: DW_TAG_pointer_type, baseType: !1248, size: 64, align: 64, flags: DIFlagArtificial | DIFlagObjectPointer)
!1257 = !DISubprogram(name: "dim3", scope: !1248, file: !1247, line: 422, type: !1258, isLocal: false, isDefinition: false, scopeLine: 422, flags: DIFlagPrototyped, isOptimized: true)
!1258 = !DISubroutineType(types: !1259)
!1259 = !{null, !1256, !1260}
!1260 = !DIDerivedType(tag: DW_TAG_typedef, name: "uint3", file: !1247, line: 383, baseType: !1261)
!1261 = distinct !DICompositeType(tag: DW_TAG_structure_type, name: "uint3", file: !1247, line: 190, size: 96, align: 32, elements: !1262, identifier: "_ZTS5uint3")
!1262 = !{!1263, !1264, !1265}
!1263 = !DIDerivedType(tag: DW_TAG_member, name: "x", scope: !1261, file: !1247, line: 192, baseType: !165, size: 32, align: 32)
!1264 = !DIDerivedType(tag: DW_TAG_member, name: "y", scope: !1261, file: !1247, line: 192, baseType: !165, size: 32, align: 32, offset: 32)
!1265 = !DIDerivedType(tag: DW_TAG_member, name: "z", scope: !1261, file: !1247, line: 192, baseType: !165, size: 32, align: 32, offset: 64)
!1266 = !DISubprogram(name: "operator uint3", linkageName: "_ZN4dim3cv5uint3Ev", scope: !1248, file: !1247, line: 423, type: !1267, isLocal: false, isDefinition: false, scopeLine: 423, flags: DIFlagPrototyped, isOptimized: true)
!1267 = !DISubroutineType(types: !1268)
!1268 = !{!1260, !1256}
!1269 = !DILocalVariable(name: "dimGrid", scope: !1237, file: !1, line: 351, type: !1246)
!1270 = !DILocalVariable(name: "blockSize2d", scope: !1237, file: !1, line: 354, type: !98)
!1271 = !DILocalVariable(name: "gridSize2d", scope: !1237, file: !1, line: 354, type: !98)
!1272 = !DILocalVariable(name: "dimBlockXY", scope: !1237, file: !1, line: 358, type: !1246)
!1273 = !DILocalVariable(name: "dimGridXY", scope: !1237, file: !1, line: 359, type: !1246)
!1274 = !DILocalVariable(name: "time_start", scope: !1237, file: !1, line: 362, type: !796)
!1275 = !DILocalVariable(name: "time_end", scope: !1237, file: !1, line: 372, type: !796)
!1276 = !DILocation(line: 329, column: 5, scope: !1237)
!1277 = !DILocation(line: 332, column: 13, scope: !1237)
!1278 = !DILocation(line: 332, column: 32, scope: !1237)
!1279 = !DILocation(line: 332, column: 37, scope: !1237)
!1280 = !DILocation(line: 332, column: 44, scope: !1237)
!1281 = !DILocation(line: 332, column: 2, scope: !1237)
!1282 = !DILocation(line: 334, column: 13, scope: !1237)
!1283 = !DILocation(line: 334, column: 32, scope: !1237)
!1284 = !DILocation(line: 334, column: 37, scope: !1237)
!1285 = !DILocation(line: 334, column: 44, scope: !1237)
!1286 = !DILocation(line: 334, column: 2, scope: !1237)
!1287 = !DILocation(line: 336, column: 13, scope: !1237)
!1288 = !DILocation(line: 336, column: 32, scope: !1237)
!1289 = !DILocation(line: 336, column: 37, scope: !1237)
!1290 = !DILocation(line: 336, column: 2, scope: !1237)
!1291 = !DILocation(line: 339, column: 13, scope: !1237)
!1292 = !DILocation(line: 339, column: 21, scope: !1237)
!1293 = !DILocation(line: 339, column: 24, scope: !1237)
!1294 = !DILocation(line: 339, column: 29, scope: !1237)
!1295 = !DILocation(line: 339, column: 36, scope: !1237)
!1296 = !DILocation(line: 339, column: 2, scope: !1237)
!1297 = !DILocation(line: 340, column: 13, scope: !1237)
!1298 = !DILocation(line: 340, column: 21, scope: !1237)
!1299 = !DILocation(line: 340, column: 24, scope: !1237)
!1300 = !DILocation(line: 340, column: 29, scope: !1237)
!1301 = !DILocation(line: 340, column: 36, scope: !1237)
!1302 = !DILocation(line: 340, column: 2, scope: !1237)
!1303 = !DILocation(line: 341, column: 13, scope: !1237)
!1304 = !DILocation(line: 341, column: 21, scope: !1237)
!1305 = !DILocation(line: 341, column: 24, scope: !1237)
!1306 = !DILocation(line: 341, column: 29, scope: !1237)
!1307 = !DILocation(line: 341, column: 2, scope: !1237)
!1308 = !DILocation(line: 343, column: 6, scope: !1237)
!1309 = !DILocation(line: 346, column: 15, scope: !1237)
!1310 = !DILocation(line: 343, column: 17, scope: !1237)
!1311 = !DILocation(line: 350, column: 7, scope: !1237)
!1312 = !DILocation(line: 351, column: 7, scope: !1237)
!1313 = !DILocation(line: 354, column: 6, scope: !1237)
!1314 = !DILocation(line: 354, column: 19, scope: !1237)
!1315 = !DILocation(line: 358, column: 7, scope: !1237)
!1316 = !DILocation(line: 359, column: 7, scope: !1237)
!1317 = !DILocation(line: 362, column: 5, scope: !1237)
!1318 = !DILocation(line: 362, column: 20, scope: !1237)
!1319 = !DILocation(line: 363, column: 5, scope: !1237)
!1320 = !DILocation(line: 328, column: 6, scope: !1237)
!1321 = !DILocation(line: 364, column: 15, scope: !1322)
!1322 = !DILexicalBlockFile(scope: !1323, file: !1, discriminator: 1)
!1323 = distinct !DILexicalBlock(scope: !1324, file: !1, line: 364, column: 2)
!1324 = distinct !DILexicalBlock(scope: !1237, file: !1, line: 364, column: 2)
!1325 = !DILocation(line: 364, column: 13, scope: !1322)
!1326 = !DILocation(line: 364, column: 2, scope: !1322)
!1327 = !DILocation(line: 356, column: 39, scope: !1237)
!1328 = !DILocation(line: 356, column: 37, scope: !1237)
!1329 = !DILocation(line: 356, column: 36, scope: !1237)
!1330 = !DILocation(line: 356, column: 20, scope: !1237)
!1331 = !DILocation(line: 356, column: 34, scope: !1237)
!1332 = !DILocation(line: 346, column: 36, scope: !1237)
!1333 = !DILocation(line: 346, column: 35, scope: !1237)
!1334 = !DILocation(line: 346, column: 19, scope: !1237)
!1335 = !DILocation(line: 346, column: 32, scope: !1237)
!1336 = !DILocation(line: 365, column: 10, scope: !1337)
!1337 = distinct !DILexicalBlock(scope: !1323, file: !1, line: 364, column: 29)
!1338 = !DILocation(line: 367, column: 10, scope: !1337)
!1339 = !DILocation(line: 364, column: 19, scope: !1322)
!1340 = distinct !{!1340, !1341}
!1341 = !DILocation(line: 364, column: 2, scope: !1237)
!1342 = !DILocation(line: 365, column: 7, scope: !1337)
!1343 = !DILocation(line: 365, column: 3, scope: !1337)
!1344 = !DILocation(line: 365, column: 30, scope: !1345)
!1345 = !DILexicalBlockFile(scope: !1337, file: !1, discriminator: 1)
!1346 = !DILocation(line: 329, column: 12, scope: !1237)
!1347 = !DILocation(line: 365, column: 37, scope: !1345)
!1348 = !DILocation(line: 329, column: 20, scope: !1237)
!1349 = !DILocation(line: 365, column: 44, scope: !1345)
!1350 = !DILocation(line: 365, column: 3, scope: !1345)
!1351 = !DILocation(line: 366, column: 3, scope: !1337)
!1352 = !DILocation(line: 367, column: 7, scope: !1337)
!1353 = !DILocation(line: 367, column: 3, scope: !1337)
!1354 = !DILocation(line: 367, column: 34, scope: !1345)
!1355 = !DILocation(line: 367, column: 41, scope: !1345)
!1356 = !DILocation(line: 367, column: 48, scope: !1345)
!1357 = !DILocation(line: 329, column: 28, scope: !1237)
!1358 = !DILocation(line: 367, column: 55, scope: !1345)
!1359 = !DILocation(line: 367, column: 64, scope: !1345)
!1360 = !DILocation(line: 367, column: 3, scope: !1345)
!1361 = !DILocation(line: 368, column: 3, scope: !1337)
!1362 = !DILocalVariable(name: "msg", arg: 1, scope: !1363, file: !1, line: 460, type: !309)
!1363 = distinct !DISubprogram(name: "checkCUDAError", linkageName: "_Z14checkCUDAErrorPKc", scope: !1, file: !1, line: 460, type: !1364, isLocal: false, isDefinition: true, scopeLine: 461, flags: DIFlagPrototyped, isOptimized: true, unit: !0, variables: !1366)
!1364 = !DISubroutineType(types: !1365)
!1365 = !{null, !309}
!1366 = !{!1362, !1367}
!1367 = !DILocalVariable(name: "err", scope: !1363, file: !1, line: 462, type: !1368)
!1368 = !DIDerivedType(tag: DW_TAG_typedef, name: "cudaError_t", file: !4, line: 1420, baseType: !3)
!1369 = !DILocation(line: 460, column: 33, scope: !1363, inlinedAt: !1370)
!1370 = distinct !DILocation(line: 369, column: 3, scope: !1337)
!1371 = !DILocation(line: 462, column: 23, scope: !1363, inlinedAt: !1370)
!1372 = !DILocation(line: 462, column: 17, scope: !1363, inlinedAt: !1370)
!1373 = !DILocation(line: 463, column: 21, scope: !1374, inlinedAt: !1370)
!1374 = distinct !DILexicalBlock(scope: !1363, file: !1, line: 463, column: 9)
!1375 = !DILocation(line: 364, column: 25, scope: !1376)
!1376 = !DILexicalBlockFile(scope: !1323, file: !1, discriminator: 2)
!1377 = !DILocation(line: 463, column: 9, scope: !1363, inlinedAt: !1370)
!1378 = !DILocation(line: 465, column: 17, scope: !1379, inlinedAt: !1370)
!1379 = distinct !DILexicalBlock(scope: !1374, file: !1, line: 464, column: 5)
!1380 = !DILocation(line: 466, column: 35, scope: !1379, inlinedAt: !1370)
!1381 = !DILocation(line: 465, column: 9, scope: !1379, inlinedAt: !1370)
!1382 = !DILocation(line: 467, column: 9, scope: !1379, inlinedAt: !1370)
!1383 = !DILocation(line: 372, column: 2, scope: !1237)
!1384 = !DILocation(line: 372, column: 17, scope: !1237)
!1385 = !DILocation(line: 373, column: 5, scope: !1237)
!1386 = !DILocation(line: 374, column: 33, scope: !1237)
!1387 = !DILocation(line: 374, column: 61, scope: !1237)
!1388 = !DILocation(line: 374, column: 84, scope: !1237)
!1389 = !DILocation(line: 374, column: 114, scope: !1237)
!1390 = !DILocation(line: 374, column: 50, scope: !1237)
!1391 = !DILocation(line: 374, column: 70, scope: !1237)
!1392 = !DILocation(line: 374, column: 23, scope: !1237)
!1393 = !DILocation(line: 374, column: 21, scope: !1237)
!1394 = !DILocation(line: 377, column: 13, scope: !1237)
!1395 = !DILocation(line: 377, column: 16, scope: !1237)
!1396 = !DILocation(line: 377, column: 24, scope: !1237)
!1397 = !DILocation(line: 377, column: 29, scope: !1237)
!1398 = !DILocation(line: 377, column: 36, scope: !1237)
!1399 = !DILocation(line: 377, column: 2, scope: !1237)
!1400 = !DILocation(line: 378, column: 13, scope: !1237)
!1401 = !DILocation(line: 378, column: 16, scope: !1237)
!1402 = !DILocation(line: 378, column: 24, scope: !1237)
!1403 = !DILocation(line: 378, column: 29, scope: !1237)
