; ModuleID = 'Results/pathfinder/pathfinder.cu'
source_filename = "Results/pathfinder/pathfinder.cu"
target datalayout = "e-m:e-i64:64-f80:128-n8:16:32:64-S128"
target triple = "x86_64-unknown-linux-gnu"

%struct._IO_FILE = type { i32, i8*, i8*, i8*, i8*, i8*, i8*, i8*, i8*, i8*, i8*, i8*, %struct._IO_marker*, %struct._IO_FILE*, i32, i32, i64, i16, i8, [1 x i8], i8*, i64, i8*, i8*, i8*, i8*, i64, i32, [20 x i8] }
%struct._IO_marker = type { %struct._IO_marker*, %struct._IO_FILE*, i32 }
%struct.dim3 = type { i32, i32, i32 }
%struct.CUstream_st = type opaque

@rows = local_unnamed_addr global i32 0, align 4
@cols = local_unnamed_addr global i32 0, align 4
@data = local_unnamed_addr global i32* null, align 8
@wall = local_unnamed_addr global i32** null, align 8
@result = local_unnamed_addr global i32* null, align 8
@pyramid_height = local_unnamed_addr global i32 0, align 4
@.str.1 = private unnamed_addr constant [4 x i8] c"%d \00", align 1
@stderr = external local_unnamed_addr global %struct._IO_FILE*, align 8
@.str.3 = private unnamed_addr constant [11 x i8] c"error: %s\0A\00", align 1
@.str.4 = private unnamed_addr constant [92 x i8] c"pyramidHeight: %d\0AgridSize: [%d]\0Aborder:[%d]\0AblockSize: %d\0AblockGrid:[%d]\0AtargetBlock:[%d]\0A\00", align 1
@str = private unnamed_addr constant [46 x i8] c"Usage: dynproc row_len col_len pyramid_height\00"

; Function Attrs: uwtable
define void @_Z4initiPPc(i32 %argc, i8** nocapture readonly %argv) local_unnamed_addr #0 !dbg !585 {
entry:
  tail call void @llvm.dbg.value(metadata i32 %argc, i64 0, metadata !589, metadata !606), !dbg !607
  tail call void @llvm.dbg.value(metadata i8** %argv, i64 0, metadata !590, metadata !606), !dbg !608
  %cmp = icmp eq i32 %argc, 4, !dbg !609
  br i1 %cmp, label %if.then, label %if.else, !dbg !611

if.then:                                          ; preds = %entry
  %arrayidx = getelementptr inbounds i8*, i8** %argv, i64 1, !dbg !612
  %0 = load i8*, i8** %arrayidx, align 8, !dbg !612, !tbaa !614
  tail call void @llvm.dbg.value(metadata i8* %0, i64 0, metadata !307, metadata !606) #10, !dbg !618
  %call.i = tail call i64 @strtol(i8* nocapture nonnull %0, i8** null, i32 10) #10, !dbg !620
  %conv.i = trunc i64 %call.i to i32, !dbg !620
  store i32 %conv.i, i32* @cols, align 4, !dbg !621, !tbaa !622
  %arrayidx1 = getelementptr inbounds i8*, i8** %argv, i64 2, !dbg !624
  %1 = load i8*, i8** %arrayidx1, align 8, !dbg !624, !tbaa !614
  tail call void @llvm.dbg.value(metadata i8* %1, i64 0, metadata !307, metadata !606) #10, !dbg !625
  %call.i72 = tail call i64 @strtol(i8* nocapture nonnull %1, i8** null, i32 10) #10, !dbg !627
  %conv.i73 = trunc i64 %call.i72 to i32, !dbg !627
  store i32 %conv.i73, i32* @rows, align 4, !dbg !628, !tbaa !622
  %arrayidx3 = getelementptr inbounds i8*, i8** %argv, i64 3, !dbg !629
  %2 = load i8*, i8** %arrayidx3, align 8, !dbg !629, !tbaa !614
  tail call void @llvm.dbg.value(metadata i8* %2, i64 0, metadata !307, metadata !606) #10, !dbg !630
  %call.i74 = tail call i64 @strtol(i8* nocapture nonnull %2, i8** null, i32 10) #10, !dbg !632
  %conv.i75 = trunc i64 %call.i74 to i32, !dbg !632
  store i32 %conv.i75, i32* @pyramid_height, align 4, !dbg !633, !tbaa !622
  %3 = load i32, i32* @cols, align 4, !dbg !634, !tbaa !622
  %mul = mul nsw i32 %3, %conv.i73, !dbg !635
  %4 = sext i32 %mul to i64, !dbg !636
  %5 = tail call { i64, i1 } @llvm.umul.with.overflow.i64(i64 %4, i64 4), !dbg !636
  %6 = extractvalue { i64, i1 } %5, 1, !dbg !636
  %7 = extractvalue { i64, i1 } %5, 0, !dbg !636
  %8 = select i1 %6, i64 -1, i64 %7, !dbg !636
  %call6 = tail call i8* @_Znam(i64 %8) #11, !dbg !636
  store i8* %call6, i8** bitcast (i32** @data to i8**), align 8, !dbg !637, !tbaa !614
  %9 = load i32, i32* @rows, align 4, !dbg !638, !tbaa !622
  %10 = sext i32 %9 to i64, !dbg !639
  %11 = tail call { i64, i1 } @llvm.umul.with.overflow.i64(i64 %10, i64 8), !dbg !639
  %12 = extractvalue { i64, i1 } %11, 1, !dbg !639
  %13 = extractvalue { i64, i1 } %11, 0, !dbg !639
  %14 = select i1 %12, i64 -1, i64 %13, !dbg !639
  %call7 = tail call i8* @_Znam(i64 %14) #11, !dbg !639
  store i8* %call7, i8** bitcast (i32*** @wall to i8**), align 8, !dbg !640, !tbaa !614
  tail call void @llvm.dbg.value(metadata i32 0, i64 0, metadata !591, metadata !606), !dbg !641
  %cmp884 = icmp sgt i32 %conv.i73, 0, !dbg !642
  %15 = sext i32 %3 to i64, !dbg !645
  br i1 %cmp884, label %for.body.preheader, label %for.cond.cleanup, !dbg !646

for.body.preheader:                               ; preds = %if.then
  %wide.trip.count = and i64 %call.i72, 4294967295, !dbg !646
  %16 = bitcast i8* %call7 to i8**, !dbg !647
  store i8* %call6, i8** %16, align 8, !dbg !647, !tbaa !614
  %exitcond102 = icmp eq i64 %wide.trip.count, 1, !dbg !646
  br i1 %exitcond102, label %for.cond.cleanup, label %for.body.for.body_crit_edge.preheader, !dbg !646, !llvm.loop !648

for.body.for.body_crit_edge.preheader:            ; preds = %for.body.preheader
  %17 = add i64 %call.i72, 3, !dbg !645
  %18 = add nsw i64 %wide.trip.count, -2, !dbg !645
  %xtraiter = and i64 %17, 3, !dbg !645
  %lcmp.mod = icmp eq i64 %xtraiter, 0, !dbg !645
  br i1 %lcmp.mod, label %for.body.for.body_crit_edge.prol.loopexit, label %for.body.for.body_crit_edge.prol.preheader, !dbg !645

for.body.for.body_crit_edge.prol.preheader:       ; preds = %for.body.for.body_crit_edge.preheader
  br label %for.body.for.body_crit_edge.prol, !dbg !645

for.body.for.body_crit_edge.prol:                 ; preds = %for.body.for.body_crit_edge.prol, %for.body.for.body_crit_edge.prol.preheader
  %indvars.iv.next93103.prol = phi i64 [ %indvars.iv.next93.prol, %for.body.for.body_crit_edge.prol ], [ 1, %for.body.for.body_crit_edge.prol.preheader ]
  %prol.iter = phi i64 [ %prol.iter.sub, %for.body.for.body_crit_edge.prol ], [ %xtraiter, %for.body.for.body_crit_edge.prol.preheader ]
  %.pre.prol = load i32*, i32** @data, align 8, !dbg !645, !tbaa !614
  %.pre95.prol = load i32**, i32*** @wall, align 8, !dbg !650, !tbaa !614
  %19 = mul nsw i64 %indvars.iv.next93103.prol, %15, !dbg !651
  %add.ptr.prol = getelementptr inbounds i32, i32* %.pre.prol, i64 %19, !dbg !652
  %arrayidx10.prol = getelementptr inbounds i32*, i32** %.pre95.prol, i64 %indvars.iv.next93103.prol, !dbg !650
  store i32* %add.ptr.prol, i32** %arrayidx10.prol, align 8, !dbg !647, !tbaa !614
  %indvars.iv.next93.prol = add nuw nsw i64 %indvars.iv.next93103.prol, 1, !dbg !646
  %prol.iter.sub = add i64 %prol.iter, -1, !dbg !646
  %prol.iter.cmp = icmp eq i64 %prol.iter.sub, 0, !dbg !646
  br i1 %prol.iter.cmp, label %for.body.for.body_crit_edge.prol.loopexit.unr-lcssa, label %for.body.for.body_crit_edge.prol, !dbg !646, !llvm.loop !653

for.body.for.body_crit_edge.prol.loopexit.unr-lcssa: ; preds = %for.body.for.body_crit_edge.prol
  br label %for.body.for.body_crit_edge.prol.loopexit, !dbg !645

for.body.for.body_crit_edge.prol.loopexit:        ; preds = %for.body.for.body_crit_edge.preheader, %for.body.for.body_crit_edge.prol.loopexit.unr-lcssa
  %indvars.iv.next93103.unr = phi i64 [ 1, %for.body.for.body_crit_edge.preheader ], [ %indvars.iv.next93.prol, %for.body.for.body_crit_edge.prol.loopexit.unr-lcssa ]
  %20 = icmp ult i64 %18, 3, !dbg !645
  br i1 %20, label %for.cond.cleanup.loopexit, label %for.body.for.body_crit_edge.preheader.new, !dbg !645

for.body.for.body_crit_edge.preheader.new:        ; preds = %for.body.for.body_crit_edge.prol.loopexit
  br label %for.body.for.body_crit_edge, !dbg !645

if.else:                                          ; preds = %entry
  %puts = tail call i32 @puts(i8* getelementptr inbounds ([46 x i8], [46 x i8]* @str, i64 0, i64 0)), !dbg !655
  tail call void @exit(i32 0) #12, !dbg !657
  unreachable, !dbg !657

for.cond.cleanup.loopexit.unr-lcssa:              ; preds = %for.body.for.body_crit_edge
  br label %for.cond.cleanup.loopexit, !dbg !658

for.cond.cleanup.loopexit:                        ; preds = %for.body.for.body_crit_edge.prol.loopexit, %for.cond.cleanup.loopexit.unr-lcssa
  br label %for.cond.cleanup, !dbg !658

for.cond.cleanup:                                 ; preds = %for.cond.cleanup.loopexit, %for.body.preheader, %if.then
  %21 = tail call { i64, i1 } @llvm.umul.with.overflow.i64(i64 %15, i64 4), !dbg !658
  %22 = extractvalue { i64, i1 } %21, 1, !dbg !658
  %23 = extractvalue { i64, i1 } %21, 0, !dbg !658
  %24 = select i1 %22, i64 -1, i64 %23, !dbg !658
  %call11 = tail call i8* @_Znam(i64 %24) #11, !dbg !658
  store i8* %call11, i8** bitcast (i32** @result to i8**), align 8, !dbg !659, !tbaa !614
  tail call void @llvm.dbg.value(metadata i32 9, i64 0, metadata !593, metadata !606), !dbg !660
  tail call void @srand(i32 9) #10, !dbg !661
  tail call void @llvm.dbg.value(metadata i32 0, i64 0, metadata !594, metadata !606), !dbg !662
  %25 = load i32, i32* @rows, align 4, !dbg !663, !tbaa !622
  %cmp1382 = icmp sgt i32 %25, 0, !dbg !665
  br i1 %cmp1382, label %for.cond16.preheader.preheader, label %for.cond.cleanup34, !dbg !666

for.cond16.preheader.preheader:                   ; preds = %for.cond.cleanup
  %.pre96 = load i32, i32* @cols, align 4, !dbg !667, !tbaa !622
  br label %for.cond16.preheader, !dbg !670

for.body.for.body_crit_edge:                      ; preds = %for.body.for.body_crit_edge, %for.body.for.body_crit_edge.preheader.new
  %indvars.iv.next93103 = phi i64 [ %indvars.iv.next93103.unr, %for.body.for.body_crit_edge.preheader.new ], [ %indvars.iv.next93.3, %for.body.for.body_crit_edge ]
  %.pre = load i32*, i32** @data, align 8, !dbg !645, !tbaa !614
  %.pre95 = load i32**, i32*** @wall, align 8, !dbg !650, !tbaa !614
  %26 = mul nsw i64 %indvars.iv.next93103, %15, !dbg !651
  %add.ptr = getelementptr inbounds i32, i32* %.pre, i64 %26, !dbg !652
  %arrayidx10 = getelementptr inbounds i32*, i32** %.pre95, i64 %indvars.iv.next93103, !dbg !650
  store i32* %add.ptr, i32** %arrayidx10, align 8, !dbg !647, !tbaa !614
  %indvars.iv.next93 = add nuw nsw i64 %indvars.iv.next93103, 1, !dbg !646
  %.pre.1 = load i32*, i32** @data, align 8, !dbg !645, !tbaa !614
  %.pre95.1 = load i32**, i32*** @wall, align 8, !dbg !650, !tbaa !614
  %27 = mul nsw i64 %indvars.iv.next93, %15, !dbg !651
  %add.ptr.1 = getelementptr inbounds i32, i32* %.pre.1, i64 %27, !dbg !652
  %arrayidx10.1 = getelementptr inbounds i32*, i32** %.pre95.1, i64 %indvars.iv.next93, !dbg !650
  store i32* %add.ptr.1, i32** %arrayidx10.1, align 8, !dbg !647, !tbaa !614
  %indvars.iv.next93.1 = add nsw i64 %indvars.iv.next93103, 2, !dbg !646
  %.pre.2 = load i32*, i32** @data, align 8, !dbg !645, !tbaa !614
  %.pre95.2 = load i32**, i32*** @wall, align 8, !dbg !650, !tbaa !614
  %28 = mul nsw i64 %indvars.iv.next93.1, %15, !dbg !651
  %add.ptr.2 = getelementptr inbounds i32, i32* %.pre.2, i64 %28, !dbg !652
  %arrayidx10.2 = getelementptr inbounds i32*, i32** %.pre95.2, i64 %indvars.iv.next93.1, !dbg !650
  store i32* %add.ptr.2, i32** %arrayidx10.2, align 8, !dbg !647, !tbaa !614
  %indvars.iv.next93.2 = add nsw i64 %indvars.iv.next93103, 3, !dbg !646
  %.pre.3 = load i32*, i32** @data, align 8, !dbg !645, !tbaa !614
  %.pre95.3 = load i32**, i32*** @wall, align 8, !dbg !650, !tbaa !614
  %29 = mul nsw i64 %indvars.iv.next93.2, %15, !dbg !651
  %add.ptr.3 = getelementptr inbounds i32, i32* %.pre.3, i64 %29, !dbg !652
  %arrayidx10.3 = getelementptr inbounds i32*, i32** %.pre95.3, i64 %indvars.iv.next93.2, !dbg !650
  store i32* %add.ptr.3, i32** %arrayidx10.3, align 8, !dbg !647, !tbaa !614
  %indvars.iv.next93.3 = add nsw i64 %indvars.iv.next93103, 4, !dbg !646
  %exitcond.3 = icmp eq i64 %indvars.iv.next93.3, %wide.trip.count, !dbg !646
  br i1 %exitcond.3, label %for.cond.cleanup.loopexit.unr-lcssa, label %for.body.for.body_crit_edge, !dbg !646, !llvm.loop !648

for.cond16.preheader:                             ; preds = %for.cond16.preheader.preheader, %for.cond.cleanup18
  %30 = phi i32 [ %25, %for.cond16.preheader.preheader ], [ %32, %for.cond.cleanup18 ]
  %31 = phi i32 [ %.pre96, %for.cond16.preheader.preheader ], [ %33, %for.cond.cleanup18 ], !dbg !667
  %indvars.iv90 = phi i64 [ 0, %for.cond16.preheader.preheader ], [ %indvars.iv.next91, %for.cond.cleanup18 ]
  tail call void @llvm.dbg.value(metadata i32 0, i64 0, metadata !596, metadata !606), !dbg !670
  %cmp1780 = icmp sgt i32 %31, 0, !dbg !671
  br i1 %cmp1780, label %for.body19.preheader, label %for.cond.cleanup18, !dbg !672

for.body19.preheader:                             ; preds = %for.cond16.preheader
  br label %for.body19, !dbg !673

for.cond32.preheader:                             ; preds = %for.cond.cleanup18
  tail call void @llvm.dbg.value(metadata i32 0, i64 0, metadata !600, metadata !606), !dbg !675
  %cmp3378 = icmp sgt i32 %32, 0, !dbg !676
  br i1 %cmp3378, label %for.cond37.preheader.preheader, label %for.cond.cleanup34, !dbg !678

for.cond37.preheader.preheader:                   ; preds = %for.cond32.preheader
  br label %for.cond37.preheader, !dbg !679

for.cond.cleanup18.loopexit:                      ; preds = %for.body19
  %.pre97 = load i32, i32* @rows, align 4, !dbg !663, !tbaa !622
  br label %for.cond.cleanup18, !dbg !680

for.cond.cleanup18:                               ; preds = %for.cond.cleanup18.loopexit, %for.cond16.preheader
  %32 = phi i32 [ %.pre97, %for.cond.cleanup18.loopexit ], [ %30, %for.cond16.preheader ], !dbg !663
  %33 = phi i32 [ %37, %for.cond.cleanup18.loopexit ], [ %31, %for.cond16.preheader ]
  %indvars.iv.next91 = add nuw i64 %indvars.iv90, 1, !dbg !666
  %34 = sext i32 %32 to i64, !dbg !665
  %cmp13 = icmp slt i64 %indvars.iv.next91, %34, !dbg !665
  br i1 %cmp13, label %for.cond16.preheader, label %for.cond32.preheader, !dbg !666, !llvm.loop !682

for.body19:                                       ; preds = %for.body19.preheader, %for.body19
  %indvars.iv88 = phi i64 [ %indvars.iv.next89, %for.body19 ], [ 0, %for.body19.preheader ]
  %call20 = tail call i32 @rand() #10, !dbg !673
  %rem = srem i32 %call20, 10, !dbg !684
  %35 = load i32**, i32*** @wall, align 8, !dbg !685, !tbaa !614
  %arrayidx23 = getelementptr inbounds i32*, i32** %35, i64 %indvars.iv90, !dbg !685
  %36 = load i32*, i32** %arrayidx23, align 8, !dbg !685, !tbaa !614
  %arrayidx24 = getelementptr inbounds i32, i32* %36, i64 %indvars.iv88, !dbg !685
  store i32 %rem, i32* %arrayidx24, align 4, !dbg !686, !tbaa !622
  %indvars.iv.next89 = add nuw i64 %indvars.iv88, 1, !dbg !672
  %37 = load i32, i32* @cols, align 4, !dbg !667, !tbaa !622
  %38 = sext i32 %37 to i64, !dbg !671
  %cmp17 = icmp slt i64 %indvars.iv.next89, %38, !dbg !671
  br i1 %cmp17, label %for.body19, label %for.cond.cleanup18.loopexit, !dbg !672, !llvm.loop !687

for.cond37.preheader:                             ; preds = %for.cond37.preheader.preheader, %for.cond.cleanup39
  %indvars.iv86 = phi i64 [ %indvars.iv.next87, %for.cond.cleanup39 ], [ 0, %for.cond37.preheader.preheader ]
  tail call void @llvm.dbg.value(metadata i32 0, i64 0, metadata !602, metadata !606), !dbg !679
  %39 = load i32, i32* @cols, align 4, !dbg !689, !tbaa !622
  %cmp3876 = icmp sgt i32 %39, 0, !dbg !692
  br i1 %cmp3876, label %for.body40.preheader, label %for.cond.cleanup39, !dbg !693

for.body40.preheader:                             ; preds = %for.cond37.preheader
  br label %for.body40, !dbg !694

for.cond.cleanup34.loopexit:                      ; preds = %for.cond.cleanup39
  br label %for.cond.cleanup34, !dbg !696

for.cond.cleanup34:                               ; preds = %for.cond.cleanup34.loopexit, %for.cond.cleanup, %for.cond32.preheader
  ret void, !dbg !696

for.cond.cleanup39.loopexit:                      ; preds = %for.body40
  br label %for.cond.cleanup39, !dbg !697

for.cond.cleanup39:                               ; preds = %for.cond.cleanup39.loopexit, %for.cond37.preheader
  %putchar = tail call i32 @putchar(i32 10), !dbg !697
  %indvars.iv.next87 = add nuw i64 %indvars.iv86, 1, !dbg !678
  %40 = load i32, i32* @rows, align 4, !dbg !698, !tbaa !622
  %41 = sext i32 %40 to i64, !dbg !676
  %cmp33 = icmp slt i64 %indvars.iv.next87, %41, !dbg !676
  br i1 %cmp33, label %for.cond37.preheader, label %for.cond.cleanup34.loopexit, !dbg !678, !llvm.loop !699

for.body40:                                       ; preds = %for.body40.preheader, %for.body40
  %indvars.iv = phi i64 [ %indvars.iv.next, %for.body40 ], [ 0, %for.body40.preheader ]
  %42 = load i32**, i32*** @wall, align 8, !dbg !694, !tbaa !614
  %arrayidx43 = getelementptr inbounds i32*, i32** %42, i64 %indvars.iv86, !dbg !694
  %43 = load i32*, i32** %arrayidx43, align 8, !dbg !694, !tbaa !614
  %arrayidx44 = getelementptr inbounds i32, i32* %43, i64 %indvars.iv, !dbg !694
  %44 = load i32, i32* %arrayidx44, align 4, !dbg !694, !tbaa !622
  %call45 = tail call i32 (i8*, ...) @printf(i8* getelementptr inbounds ([4 x i8], [4 x i8]* @.str.1, i64 0, i64 0), i32 %44), !dbg !701
  %indvars.iv.next = add nuw i64 %indvars.iv, 1, !dbg !693
  %45 = load i32, i32* @cols, align 4, !dbg !689, !tbaa !622
  %46 = sext i32 %45 to i64, !dbg !692
  %cmp38 = icmp slt i64 %indvars.iv.next, %46, !dbg !692
  br i1 %cmp38, label %for.body40, label %for.cond.cleanup39.loopexit, !dbg !693, !llvm.loop !702
}

; Function Attrs: nounwind readnone
declare void @llvm.dbg.declare(metadata, metadata, metadata) #1

; Function Attrs: nounwind
declare i32 @printf(i8* nocapture readonly, ...) local_unnamed_addr #2

; Function Attrs: noreturn nounwind
declare void @exit(i32) local_unnamed_addr #3

; Function Attrs: nounwind readnone
declare { i64, i1 } @llvm.umul.with.overflow.i64(i64, i64) #1

; Function Attrs: nobuiltin
declare noalias nonnull i8* @_Znam(i64) local_unnamed_addr #4

; Function Attrs: argmemonly nounwind
declare void @llvm.lifetime.start(i64, i8* nocapture) #5

; Function Attrs: argmemonly nounwind
declare void @llvm.lifetime.end(i64, i8* nocapture) #5

; Function Attrs: nounwind
declare void @srand(i32) local_unnamed_addr #2

; Function Attrs: nounwind
declare i32 @rand() local_unnamed_addr #2

; Function Attrs: nounwind uwtable
define void @_Z5fatalPc(i8* %s) local_unnamed_addr #6 !dbg !704 {
entry:
  tail call void @llvm.dbg.value(metadata i8* %s, i64 0, metadata !708, metadata !606), !dbg !709
  %0 = load %struct._IO_FILE*, %struct._IO_FILE** @stderr, align 8, !dbg !710, !tbaa !614
  %call = tail call i32 (%struct._IO_FILE*, i8*, ...) @fprintf(%struct._IO_FILE* %0, i8* getelementptr inbounds ([11 x i8], [11 x i8]* @.str.3, i64 0, i64 0), i8* %s) #13, !dbg !711
  ret void, !dbg !712
}

; Function Attrs: nounwind
declare i32 @fprintf(%struct._IO_FILE* nocapture, i8* nocapture readonly, ...) local_unnamed_addr #2

; Function Attrs: uwtable
define void @_Z14dynproc_kerneliPiS_S_iiii(i32 %iteration, i32* %gpuWall, i32* %gpuSrc, i32* %gpuResults, i32 %cols, i32 %rows, i32 %startStep, i32 %border) #0 !dbg !713 {
entry:
  %iteration.addr = alloca i32, align 4
  %gpuWall.addr = alloca i32*, align 8
  %gpuSrc.addr = alloca i32*, align 8
  %gpuResults.addr = alloca i32*, align 8
  %cols.addr = alloca i32, align 4
  %rows.addr = alloca i32, align 4
  %startStep.addr = alloca i32, align 4
  %border.addr = alloca i32, align 4
  tail call void @llvm.dbg.value(metadata i32 %iteration, i64 0, metadata !717, metadata !606), !dbg !725
  store i32 %iteration, i32* %iteration.addr, align 4, !tbaa !622
  tail call void @llvm.dbg.value(metadata i32* %gpuWall, i64 0, metadata !718, metadata !606), !dbg !726
  store i32* %gpuWall, i32** %gpuWall.addr, align 8, !tbaa !614
  tail call void @llvm.dbg.value(metadata i32* %gpuSrc, i64 0, metadata !719, metadata !606), !dbg !727
  store i32* %gpuSrc, i32** %gpuSrc.addr, align 8, !tbaa !614
  tail call void @llvm.dbg.value(metadata i32* %gpuResults, i64 0, metadata !720, metadata !606), !dbg !728
  store i32* %gpuResults, i32** %gpuResults.addr, align 8, !tbaa !614
  tail call void @llvm.dbg.value(metadata i32 %cols, i64 0, metadata !721, metadata !606), !dbg !729
  store i32 %cols, i32* %cols.addr, align 4, !tbaa !622
  tail call void @llvm.dbg.value(metadata i32 %rows, i64 0, metadata !722, metadata !606), !dbg !730
  store i32 %rows, i32* %rows.addr, align 4, !tbaa !622
  tail call void @llvm.dbg.value(metadata i32 %startStep, i64 0, metadata !723, metadata !606), !dbg !731
  store i32 %startStep, i32* %startStep.addr, align 4, !tbaa !622
  tail call void @llvm.dbg.value(metadata i32 %border, i64 0, metadata !724, metadata !606), !dbg !732
  store i32 %border, i32* %border.addr, align 4, !tbaa !622
  %0 = bitcast i32* %iteration.addr to i8*, !dbg !733
  %1 = call i32 @cudaSetupArgument(i8* %0, i64 4, i64 0), !dbg !733
  %2 = icmp eq i32 %1, 0, !dbg !733
  br i1 %2, label %setup.next, label %setup.end, !dbg !733

setup.next:                                       ; preds = %entry
  %3 = bitcast i32** %gpuWall.addr to i8*, !dbg !734
  %4 = call i32 @cudaSetupArgument(i8* %3, i64 8, i64 8), !dbg !734
  %5 = icmp eq i32 %4, 0, !dbg !734
  br i1 %5, label %setup.next1, label %setup.end, !dbg !734

setup.next1:                                      ; preds = %setup.next
  %6 = bitcast i32** %gpuSrc.addr to i8*, !dbg !736
  %7 = call i32 @cudaSetupArgument(i8* %6, i64 8, i64 16), !dbg !736
  %8 = icmp eq i32 %7, 0, !dbg !736
  br i1 %8, label %setup.next2, label %setup.end, !dbg !736

setup.next2:                                      ; preds = %setup.next1
  %9 = bitcast i32** %gpuResults.addr to i8*, !dbg !738
  %10 = call i32 @cudaSetupArgument(i8* %9, i64 8, i64 24), !dbg !738
  %11 = icmp eq i32 %10, 0, !dbg !738
  br i1 %11, label %setup.next3, label %setup.end, !dbg !738

setup.next3:                                      ; preds = %setup.next2
  %12 = bitcast i32* %cols.addr to i8*, !dbg !740
  %13 = call i32 @cudaSetupArgument(i8* %12, i64 4, i64 32), !dbg !740
  %14 = icmp eq i32 %13, 0, !dbg !740
  br i1 %14, label %setup.next4, label %setup.end, !dbg !740

setup.next4:                                      ; preds = %setup.next3
  %15 = bitcast i32* %rows.addr to i8*, !dbg !742
  %16 = call i32 @cudaSetupArgument(i8* %15, i64 4, i64 36), !dbg !742
  %17 = icmp eq i32 %16, 0, !dbg !742
  br i1 %17, label %setup.next5, label %setup.end, !dbg !742

setup.next5:                                      ; preds = %setup.next4
  %18 = bitcast i32* %startStep.addr to i8*, !dbg !744
  %19 = call i32 @cudaSetupArgument(i8* %18, i64 4, i64 40), !dbg !744
  %20 = icmp eq i32 %19, 0, !dbg !744
  br i1 %20, label %setup.next6, label %setup.end, !dbg !744

setup.next6:                                      ; preds = %setup.next5
  %21 = bitcast i32* %border.addr to i8*, !dbg !746
  %22 = call i32 @cudaSetupArgument(i8* %21, i64 4, i64 44), !dbg !746
  %23 = icmp eq i32 %22, 0, !dbg !746
  br i1 %23, label %setup.next7, label %setup.end, !dbg !746

setup.next7:                                      ; preds = %setup.next6
  %24 = call i32 @cudaLaunch(i8* bitcast (void (i32, i32*, i32*, i32*, i32, i32, i32, i32)* @_Z14dynproc_kerneliPiS_S_iiii to i8*)), !dbg !748
  br label %setup.end, !dbg !748

setup.end:                                        ; preds = %setup.next7, %setup.next6, %setup.next5, %setup.next4, %setup.next3, %setup.next2, %setup.next1, %setup.next, %entry
  ret void, !dbg !750
}

declare i32 @cudaSetupArgument(i8*, i64, i64) local_unnamed_addr

declare i32 @cudaLaunch(i8*) local_unnamed_addr

; Function Attrs: uwtable
define i32 @_Z9calc_pathPiPS_iiiii(i32* %gpuWall, i32** nocapture readonly %gpuResult, i32 %rows, i32 %cols, i32 %pyramid_height, i32 %blockCols, i32 %borderCols) local_unnamed_addr #0 !dbg !751 {
entry:
  tail call void @llvm.dbg.value(metadata i32* %gpuWall, i64 0, metadata !755, metadata !606), !dbg !794
  tail call void @llvm.dbg.value(metadata i32** %gpuResult, i64 0, metadata !756, metadata !606), !dbg !795
  tail call void @llvm.dbg.value(metadata i32 %rows, i64 0, metadata !757, metadata !606), !dbg !796
  tail call void @llvm.dbg.value(metadata i32 %cols, i64 0, metadata !758, metadata !606), !dbg !797
  tail call void @llvm.dbg.value(metadata i32 %pyramid_height, i64 0, metadata !759, metadata !606), !dbg !798
  tail call void @llvm.dbg.value(metadata i32 %blockCols, i64 0, metadata !760, metadata !606), !dbg !799
  tail call void @llvm.dbg.value(metadata i32 %borderCols, i64 0, metadata !761, metadata !606), !dbg !800
  tail call void @llvm.dbg.value(metadata %struct.dim3* undef, i64 0, metadata !762, metadata !801), !dbg !802
  tail call void @llvm.dbg.value(metadata %struct.dim3* undef, i64 0, metadata !786, metadata !801), !dbg !803
  tail call void @llvm.dbg.value(metadata i32 1, i64 0, metadata !787, metadata !606), !dbg !804
  tail call void @llvm.dbg.value(metadata i32 0, i64 0, metadata !788, metadata !606), !dbg !805
  tail call void @llvm.dbg.value(metadata i32 0, i64 0, metadata !789, metadata !606), !dbg !806
  %sub = add nsw i32 %rows, -1, !dbg !807
  %cmp41 = icmp sgt i32 %rows, 1, !dbg !809
  br i1 %cmp41, label %for.body.lr.ph, label %for.cond.cleanup, !dbg !810

for.body.lr.ph:                                   ; preds = %entry
  %dimGrid.sroa.0.sroa.0.0.insert.ext = zext i32 %blockCols to i64, !dbg !811
  %dimGrid.sroa.0.sroa.0.0.insert.insert = or i64 %dimGrid.sroa.0.sroa.0.0.insert.ext, 4294967296, !dbg !811
  br label %for.body, !dbg !810

for.cond.cleanup.loopexit:                        ; preds = %kcall.end
  br label %for.cond.cleanup, !dbg !812

for.cond.cleanup:                                 ; preds = %for.cond.cleanup.loopexit, %entry
  %dst.0.lcssa = phi i32 [ 0, %entry ], [ %src.043, %for.cond.cleanup.loopexit ]
  ret i32 %dst.0.lcssa, !dbg !812

for.body:                                         ; preds = %for.body.lr.ph, %kcall.end
  %add.sink44 = phi i32 [ 0, %for.body.lr.ph ], [ %add, %kcall.end ]
  %src.043 = phi i32 [ 1, %for.body.lr.ph ], [ %dst.042, %kcall.end ]
  %dst.042 = phi i32 [ 0, %for.body.lr.ph ], [ %src.043, %kcall.end ]
  tail call void @llvm.dbg.value(metadata i32 %src.043, i64 0, metadata !791, metadata !606), !dbg !813
  tail call void @llvm.dbg.value(metadata i32 %dst.042, i64 0, metadata !787, metadata !606), !dbg !804
  tail call void @llvm.dbg.value(metadata i32 %src.043, i64 0, metadata !788, metadata !606), !dbg !805
  %call = tail call i32 @cudaConfigureCall(i64 %dimGrid.sroa.0.sroa.0.0.insert.insert, i32 1, i64 4294967552, i32 1, i64 0, %struct.CUstream_st* null), !dbg !814
  %tobool = icmp eq i32 %call, 0, !dbg !814
  br i1 %tobool, label %kcall.configok, label %kcall.end, !dbg !815

kcall.configok:                                   ; preds = %for.body
  %sub2 = sub nsw i32 %rows, %add.sink44, !dbg !816
  %cmp4 = icmp sgt i32 %sub2, %pyramid_height, !dbg !816
  %sub3 = add nsw i32 %sub2, -1, !dbg !816
  %cond = select i1 %cmp4, i32 %pyramid_height, i32 %sub3, !dbg !816
  %idxprom = sext i32 %dst.042 to i64, !dbg !817
  %arrayidx = getelementptr inbounds i32*, i32** %gpuResult, i64 %idxprom, !dbg !817
  %0 = load i32*, i32** %arrayidx, align 8, !dbg !817, !tbaa !614
  %idxprom7 = sext i32 %src.043 to i64, !dbg !818
  %arrayidx8 = getelementptr inbounds i32*, i32** %gpuResult, i64 %idxprom7, !dbg !818
  %1 = load i32*, i32** %arrayidx8, align 8, !dbg !818, !tbaa !614
  tail call void @_Z14dynproc_kerneliPiS_S_iiii(i32 %cond, i32* %gpuWall, i32* %0, i32* %1, i32 %cols, i32 %rows, i32 %add.sink44, i32 %borderCols), !dbg !819
  br label %kcall.end, !dbg !819

kcall.end:                                        ; preds = %for.body, %kcall.configok
  %add = add nsw i32 %add.sink44, %pyramid_height, !dbg !821
  tail call void @llvm.dbg.value(metadata i32 %add, i64 0, metadata !789, metadata !606), !dbg !806
  %cmp = icmp slt i32 %add, %sub, !dbg !809
  br i1 %cmp, label %for.body, label %for.cond.cleanup.loopexit, !dbg !810, !llvm.loop !823
}

declare i32 @cudaConfigureCall(i64, i32, i64, i32, i64, %struct.CUstream_st*) local_unnamed_addr #7

; Function Attrs: norecurse uwtable
define i32 @main(i32 %argc, i8** nocapture readonly %argv) local_unnamed_addr #8 !dbg !825 {
entry:
  %num_devices = alloca i32, align 4
  tail call void @llvm.dbg.value(metadata i32 %argc, i64 0, metadata !829, metadata !606), !dbg !832
  tail call void @llvm.dbg.value(metadata i8** %argv, i64 0, metadata !830, metadata !606), !dbg !833
  %0 = bitcast i32* %num_devices to i8*, !dbg !834
  call void @llvm.lifetime.start(i64 4, i8* %0) #10, !dbg !834
  tail call void @llvm.dbg.value(metadata i32* %num_devices, i64 0, metadata !831, metadata !801), !dbg !835
  %call = call i32 @cudaGetDeviceCount(i32* nonnull %num_devices), !dbg !836
  %1 = load i32, i32* %num_devices, align 4, !dbg !837, !tbaa !622
  call void @llvm.dbg.value(metadata i32 %1, i64 0, metadata !831, metadata !606), !dbg !835
  %cmp = icmp sgt i32 %1, 1, !dbg !839
  br i1 %cmp, label %if.then, label %if.end, !dbg !840

if.then:                                          ; preds = %entry
  %call1 = call i32 @cudaSetDevice(i32 0), !dbg !841
  br label %if.end, !dbg !841

if.end:                                           ; preds = %if.then, %entry
  call void @_Z3runiPPc(i32 %argc, i8** %argv), !dbg !843
  call void @llvm.lifetime.end(i64 4, i8* %0) #10, !dbg !844
  ret i32 0, !dbg !845
}

declare i32 @cudaGetDeviceCount(i32*) local_unnamed_addr #7

declare i32 @cudaSetDevice(i32) local_unnamed_addr #7

; Function Attrs: uwtable
define void @_Z3runiPPc(i32 %argc, i8** nocapture readonly %argv) local_unnamed_addr #0 !dbg !846 {
entry:
  %gpuWall = alloca i32*, align 8
  %gpuResult = alloca [2 x i32*], align 16
  tail call void @llvm.dbg.value(metadata i32 %argc, i64 0, metadata !848, metadata !606), !dbg !864
  tail call void @llvm.dbg.value(metadata i8** %argv, i64 0, metadata !849, metadata !606), !dbg !865
  tail call void @_Z4initiPPc(i32 %argc, i8** %argv), !dbg !866
  %0 = load i32, i32* @pyramid_height, align 4, !dbg !867, !tbaa !622
  tail call void @llvm.dbg.value(metadata i32 %0, i64 0, metadata !850, metadata !606), !dbg !868
  %mul2 = shl nsw i32 %0, 1, !dbg !869
  %sub = sub nsw i32 256, %mul2, !dbg !870
  tail call void @llvm.dbg.value(metadata i32 %sub, i64 0, metadata !851, metadata !606), !dbg !871
  %1 = load i32, i32* @cols, align 4, !dbg !872, !tbaa !622
  %div = sdiv i32 %1, %sub, !dbg !873
  %rem = srem i32 %1, %sub, !dbg !874
  %not.cmp = icmp ne i32 %rem, 0, !dbg !875
  %cond = zext i1 %not.cmp to i32, !dbg !875
  %add = add nsw i32 %cond, %div, !dbg !876
  tail call void @llvm.dbg.value(metadata i32 %add, i64 0, metadata !852, metadata !606), !dbg !877
  %call = tail call i32 (i8*, ...) @printf(i8* getelementptr inbounds ([92 x i8], [92 x i8]* @.str.4, i64 0, i64 0), i32 %0, i32 %1, i32 %0, i32 256, i32 %add, i32 %sub), !dbg !878
  %2 = bitcast i32** %gpuWall to i8*, !dbg !879
  call void @llvm.lifetime.start(i64 8, i8* %2) #10, !dbg !879
  %3 = bitcast [2 x i32*]* %gpuResult to i8*, !dbg !879
  call void @llvm.lifetime.start(i64 16, i8* %3) #10, !dbg !879
  tail call void @llvm.dbg.declare(metadata [2 x i32*]* %gpuResult, metadata !854, metadata !606), !dbg !880
  %4 = load i32, i32* @rows, align 4, !dbg !881, !tbaa !622
  %5 = load i32, i32* @cols, align 4, !dbg !882, !tbaa !622
  %mul3 = mul nsw i32 %5, %4, !dbg !883
  tail call void @llvm.dbg.value(metadata i32 %mul3, i64 0, metadata !858, metadata !606), !dbg !884
  %6 = bitcast [2 x i32*]* %gpuResult to i8**, !dbg !885
  %conv = sext i32 %5 to i64, !dbg !886
  %mul4 = shl nsw i64 %conv, 2, !dbg !887
  %call5 = call i32 @cudaMalloc(i8** %6, i64 %mul4), !dbg !888
  %arrayidx6 = getelementptr inbounds [2 x i32*], [2 x i32*]* %gpuResult, i64 0, i64 1, !dbg !889
  %7 = bitcast i32** %arrayidx6 to i8**, !dbg !890
  %8 = load i32, i32* @cols, align 4, !dbg !891, !tbaa !622
  %conv7 = sext i32 %8 to i64, !dbg !891
  %mul8 = shl nsw i64 %conv7, 2, !dbg !892
  %call9 = call i32 @cudaMalloc(i8** %7, i64 %mul8), !dbg !893
  %9 = load i8*, i8** %6, align 16, !dbg !894, !tbaa !614
  %10 = load i8*, i8** bitcast (i32** @data to i8**), align 8, !dbg !895, !tbaa !614
  %11 = load i32, i32* @cols, align 4, !dbg !896, !tbaa !622
  %conv11 = sext i32 %11 to i64, !dbg !896
  %mul12 = shl nsw i64 %conv11, 2, !dbg !897
  %call13 = call i32 @cudaMemcpy(i8* %9, i8* %10, i64 %mul12, i32 1), !dbg !898
  %12 = bitcast i32** %gpuWall to i8**, !dbg !899
  %13 = load i32, i32* @cols, align 4, !dbg !900, !tbaa !622
  %sub14 = sub nsw i32 %mul3, %13, !dbg !901
  %conv15 = sext i32 %sub14 to i64, !dbg !902
  %mul16 = shl nsw i64 %conv15, 2, !dbg !903
  %call17 = call i32 @cudaMalloc(i8** %12, i64 %mul16), !dbg !904
  %14 = load i8*, i8** %12, align 8, !dbg !905, !tbaa !614
  %15 = load i32*, i32** @data, align 8, !dbg !906, !tbaa !614
  %16 = load i32, i32* @cols, align 4, !dbg !907, !tbaa !622
  %idx.ext = sext i32 %16 to i64, !dbg !908
  %add.ptr = getelementptr inbounds i32, i32* %15, i64 %idx.ext, !dbg !908
  %17 = bitcast i32* %add.ptr to i8*, !dbg !906
  %sub18 = sub nsw i32 %mul3, %16, !dbg !909
  %conv19 = sext i32 %sub18 to i64, !dbg !910
  %mul20 = shl nsw i64 %conv19, 2, !dbg !911
  %call21 = call i32 @cudaMemcpy(i8* %14, i8* %17, i64 %mul20, i32 1), !dbg !912
  %18 = load i32*, i32** %gpuWall, align 8, !dbg !913, !tbaa !614
  call void @llvm.dbg.value(metadata i32* %18, i64 0, metadata !853, metadata !606), !dbg !914
  %19 = load i32, i32* @rows, align 4, !dbg !915, !tbaa !622
  %20 = load i32, i32* @cols, align 4, !dbg !916, !tbaa !622
  %21 = load i32, i32* @pyramid_height, align 4, !dbg !917, !tbaa !622
  call void @llvm.dbg.value(metadata i32* %18, i64 0, metadata !755, metadata !606), !dbg !918
  call void @llvm.dbg.value(metadata i32 %19, i64 0, metadata !757, metadata !606), !dbg !920
  call void @llvm.dbg.value(metadata i32 %20, i64 0, metadata !758, metadata !606), !dbg !921
  call void @llvm.dbg.value(metadata i32 %21, i64 0, metadata !759, metadata !606), !dbg !922
  call void @llvm.dbg.value(metadata i32 %add, i64 0, metadata !760, metadata !606), !dbg !923
  call void @llvm.dbg.value(metadata i32 %0, i64 0, metadata !761, metadata !606), !dbg !924
  call void @llvm.dbg.value(metadata %struct.dim3* undef, i64 0, metadata !762, metadata !801), !dbg !925
  call void @llvm.dbg.value(metadata %struct.dim3* undef, i64 0, metadata !786, metadata !801), !dbg !926
  call void @llvm.dbg.value(metadata i32 1, i64 0, metadata !787, metadata !606), !dbg !927
  call void @llvm.dbg.value(metadata i32 0, i64 0, metadata !788, metadata !606), !dbg !928
  call void @llvm.dbg.value(metadata i32 0, i64 0, metadata !789, metadata !606), !dbg !929
  %sub.i = add nsw i32 %19, -1, !dbg !930
  %cmp41.i = icmp sgt i32 %19, 1, !dbg !931
  br i1 %cmp41.i, label %for.body.lr.ph.i, label %_Z9calc_pathPiPS_iiiii.exit, !dbg !932

for.body.lr.ph.i:                                 ; preds = %entry
  %dimGrid.sroa.0.sroa.0.0.insert.ext.i = zext i32 %add to i64, !dbg !933
  %dimGrid.sroa.0.sroa.0.0.insert.insert.i = or i64 %dimGrid.sroa.0.sroa.0.0.insert.ext.i, 4294967296, !dbg !933
  br label %for.body.i, !dbg !932

for.body.i:                                       ; preds = %kcall.end.i, %for.body.lr.ph.i
  %add.sink44.i = phi i32 [ 0, %for.body.lr.ph.i ], [ %add.i, %kcall.end.i ], !dbg !934
  %src.043.i = phi i32 [ 1, %for.body.lr.ph.i ], [ %dst.042.i, %kcall.end.i ], !dbg !934
  %dst.042.i = phi i32 [ 0, %for.body.lr.ph.i ], [ %src.043.i, %kcall.end.i ], !dbg !934
  call void @llvm.dbg.value(metadata i32 %src.043.i, i64 0, metadata !791, metadata !606), !dbg !935
  call void @llvm.dbg.value(metadata i32 %dst.042.i, i64 0, metadata !787, metadata !606), !dbg !927
  call void @llvm.dbg.value(metadata i32 %src.043.i, i64 0, metadata !788, metadata !606), !dbg !928
  %call.i = call i32 @cudaConfigureCall(i64 %dimGrid.sroa.0.sroa.0.0.insert.insert.i, i32 1, i64 4294967552, i32 1, i64 0, %struct.CUstream_st* null), !dbg !936
  %tobool.i = icmp eq i32 %call.i, 0, !dbg !936
  br i1 %tobool.i, label %kcall.configok.i, label %kcall.end.i, !dbg !937

kcall.configok.i:                                 ; preds = %for.body.i
  %sub2.i = sub nsw i32 %19, %add.sink44.i, !dbg !938
  %cmp4.i = icmp sgt i32 %sub2.i, %21, !dbg !938
  %sub3.i = add nsw i32 %sub2.i, -1, !dbg !938
  %cond.i = select i1 %cmp4.i, i32 %21, i32 %sub3.i, !dbg !938
  %idxprom.i = sext i32 %dst.042.i to i64, !dbg !939
  %arrayidx.i = getelementptr inbounds [2 x i32*], [2 x i32*]* %gpuResult, i64 0, i64 %idxprom.i, !dbg !939
  %22 = load i32*, i32** %arrayidx.i, align 8, !dbg !939, !tbaa !614
  %idxprom7.i = sext i32 %src.043.i to i64, !dbg !940
  %arrayidx8.i = getelementptr inbounds [2 x i32*], [2 x i32*]* %gpuResult, i64 0, i64 %idxprom7.i, !dbg !940
  %23 = load i32*, i32** %arrayidx8.i, align 8, !dbg !940, !tbaa !614
  call void @_Z14dynproc_kerneliPiS_S_iiii(i32 %cond.i, i32* %18, i32* %22, i32* %23, i32 %20, i32 %19, i32 %add.sink44.i, i32 %0), !dbg !941
  br label %kcall.end.i, !dbg !941

kcall.end.i:                                      ; preds = %kcall.configok.i, %for.body.i
  %add.i = add nsw i32 %add.sink44.i, %21, !dbg !942
  call void @llvm.dbg.value(metadata i32 %add.i, i64 0, metadata !789, metadata !606), !dbg !929
  %cmp.i = icmp slt i32 %add.i, %sub.i, !dbg !931
  br i1 %cmp.i, label %for.body.i, label %_Z9calc_pathPiPS_iiiii.exit.loopexit, !dbg !932, !llvm.loop !823

_Z9calc_pathPiPS_iiiii.exit.loopexit:             ; preds = %kcall.end.i
  %.pre = load i32, i32* @cols, align 4, !dbg !943, !tbaa !622
  br label %_Z9calc_pathPiPS_iiiii.exit, !dbg !944

_Z9calc_pathPiPS_iiiii.exit:                      ; preds = %_Z9calc_pathPiPS_iiiii.exit.loopexit, %entry
  %24 = phi i32 [ %20, %entry ], [ %.pre, %_Z9calc_pathPiPS_iiiii.exit.loopexit ], !dbg !943
  %dst.0.lcssa.i = phi i32 [ 0, %entry ], [ %src.043.i, %_Z9calc_pathPiPS_iiiii.exit.loopexit ], !dbg !934
  call void @llvm.dbg.value(metadata i32 %dst.0.lcssa.i, i64 0, metadata !859, metadata !606), !dbg !944
  %25 = load i8*, i8** bitcast (i32** @result to i8**), align 8, !dbg !945, !tbaa !614
  %idxprom = sext i32 %dst.0.lcssa.i to i64, !dbg !946
  %arrayidx23 = getelementptr inbounds [2 x i32*], [2 x i32*]* %gpuResult, i64 0, i64 %idxprom, !dbg !946
  %26 = bitcast i32** %arrayidx23 to i8**, !dbg !946
  %27 = load i8*, i8** %26, align 8, !dbg !946, !tbaa !614
  %conv24 = sext i32 %24 to i64, !dbg !943
  %mul25 = shl nsw i64 %conv24, 2, !dbg !947
  %call26 = call i32 @cudaMemcpy(i8* %25, i8* %27, i64 %mul25, i32 2), !dbg !948
  call void @llvm.dbg.value(metadata i32 0, i64 0, metadata !860, metadata !606), !dbg !949
  %28 = load i32, i32* @cols, align 4, !dbg !950, !tbaa !622
  %cmp2774 = icmp sgt i32 %28, 0, !dbg !953
  br i1 %cmp2774, label %for.body.preheader, label %for.cond.cleanup, !dbg !954

for.body.preheader:                               ; preds = %_Z9calc_pathPiPS_iiiii.exit
  br label %for.body, !dbg !955

for.cond.cleanup.loopexit:                        ; preds = %for.body
  br label %for.cond.cleanup, !dbg !956

for.cond.cleanup:                                 ; preds = %for.cond.cleanup.loopexit, %_Z9calc_pathPiPS_iiiii.exit
  %putchar = call i32 @putchar(i32 10), !dbg !956
  call void @llvm.dbg.value(metadata i32 0, i64 0, metadata !862, metadata !606), !dbg !957
  %29 = load i32, i32* @cols, align 4, !dbg !958, !tbaa !622
  %cmp3472 = icmp sgt i32 %29, 0, !dbg !961
  br i1 %cmp3472, label %for.body36.preheader, label %for.cond.cleanup35, !dbg !962

for.body36.preheader:                             ; preds = %for.cond.cleanup
  br label %for.body36, !dbg !963

for.body:                                         ; preds = %for.body.preheader, %for.body
  %indvars.iv76 = phi i64 [ %indvars.iv.next77, %for.body ], [ 0, %for.body.preheader ]
  %30 = load i32*, i32** @data, align 8, !dbg !955, !tbaa !614
  %arrayidx29 = getelementptr inbounds i32, i32* %30, i64 %indvars.iv76, !dbg !955
  %31 = load i32, i32* %arrayidx29, align 4, !dbg !955, !tbaa !622
  %call30 = call i32 (i8*, ...) @printf(i8* getelementptr inbounds ([4 x i8], [4 x i8]* @.str.1, i64 0, i64 0), i32 %31), !dbg !964
  %indvars.iv.next77 = add nuw i64 %indvars.iv76, 1, !dbg !954
  %32 = load i32, i32* @cols, align 4, !dbg !950, !tbaa !622
  %33 = sext i32 %32 to i64, !dbg !953
  %cmp27 = icmp slt i64 %indvars.iv.next77, %33, !dbg !953
  br i1 %cmp27, label %for.body, label %for.cond.cleanup.loopexit, !dbg !954, !llvm.loop !965

for.cond.cleanup35.loopexit:                      ; preds = %for.body36
  br label %for.cond.cleanup35, !dbg !967

for.cond.cleanup35:                               ; preds = %for.cond.cleanup35.loopexit, %for.cond.cleanup
  %putchar71 = call i32 @putchar(i32 10), !dbg !967
  %34 = load i8*, i8** %12, align 8, !dbg !968, !tbaa !614
  %call44 = call i32 @cudaFree(i8* %34), !dbg !969
  %35 = load i8*, i8** %6, align 16, !dbg !970, !tbaa !614
  %call46 = call i32 @cudaFree(i8* %35), !dbg !971
  %36 = load i8*, i8** %7, align 8, !dbg !972, !tbaa !614
  %call48 = call i32 @cudaFree(i8* %36), !dbg !973
  %37 = load i32*, i32** @data, align 8, !dbg !974, !tbaa !614
  %isnull = icmp eq i32* %37, null, !dbg !975
  br i1 %isnull, label %delete.end, label %delete.notnull, !dbg !975

for.body36:                                       ; preds = %for.body36.preheader, %for.body36
  %indvars.iv = phi i64 [ %indvars.iv.next, %for.body36 ], [ 0, %for.body36.preheader ]
  %38 = load i32*, i32** @result, align 8, !dbg !963, !tbaa !614
  %arrayidx38 = getelementptr inbounds i32, i32* %38, i64 %indvars.iv, !dbg !963
  %39 = load i32, i32* %arrayidx38, align 4, !dbg !963, !tbaa !622
  %call39 = call i32 (i8*, ...) @printf(i8* getelementptr inbounds ([4 x i8], [4 x i8]* @.str.1, i64 0, i64 0), i32 %39), !dbg !976
  %indvars.iv.next = add nuw i64 %indvars.iv, 1, !dbg !962
  %40 = load i32, i32* @cols, align 4, !dbg !958, !tbaa !622
  %41 = sext i32 %40 to i64, !dbg !961
  %cmp34 = icmp slt i64 %indvars.iv.next, %41, !dbg !961
  br i1 %cmp34, label %for.body36, label %for.cond.cleanup35.loopexit, !dbg !962, !llvm.loop !977

delete.notnull:                                   ; preds = %for.cond.cleanup35
  %42 = bitcast i32* %37 to i8*, !dbg !979
  call void @_ZdaPv(i8* %42) #14, !dbg !979
  br label %delete.end, !dbg !979

delete.end:                                       ; preds = %delete.notnull, %for.cond.cleanup35
  %43 = load i32**, i32*** @wall, align 8, !dbg !981, !tbaa !614
  %isnull49 = icmp eq i32** %43, null, !dbg !982
  br i1 %isnull49, label %delete.end51, label %delete.notnull50, !dbg !982

delete.notnull50:                                 ; preds = %delete.end
  %44 = bitcast i32** %43 to i8*, !dbg !983
  call void @_ZdaPv(i8* %44) #14, !dbg !983
  br label %delete.end51, !dbg !983

delete.end51:                                     ; preds = %delete.notnull50, %delete.end
  %45 = load i32*, i32** @result, align 8, !dbg !984, !tbaa !614
  %isnull52 = icmp eq i32* %45, null, !dbg !985
  br i1 %isnull52, label %delete.end54, label %delete.notnull53, !dbg !985

delete.notnull53:                                 ; preds = %delete.end51
  %46 = bitcast i32* %45 to i8*, !dbg !986
  call void @_ZdaPv(i8* %46) #14, !dbg !986
  br label %delete.end54, !dbg !986

delete.end54:                                     ; preds = %delete.notnull53, %delete.end51
  call void @llvm.lifetime.end(i64 16, i8* nonnull %3) #10, !dbg !987
  call void @llvm.lifetime.end(i64 8, i8* nonnull %2) #10, !dbg !987
  ret void, !dbg !987
}

declare i32 @cudaMalloc(i8**, i64) local_unnamed_addr #7

declare i32 @cudaMemcpy(i8*, i8*, i64, i32) local_unnamed_addr #7

declare i32 @cudaFree(i8*) local_unnamed_addr #7

; Function Attrs: nobuiltin nounwind
declare void @_ZdaPv(i8*) local_unnamed_addr #9

; Function Attrs: nounwind
declare i64 @strtol(i8* readonly, i8** nocapture, i32) local_unnamed_addr #2

; Function Attrs: nounwind readnone
declare void @llvm.dbg.value(metadata, i64, metadata, metadata) #1

; Function Attrs: nounwind
declare i32 @puts(i8* nocapture readonly) #10

declare i32 @putchar(i32)

attributes #0 = { uwtable "correctly-rounded-divide-sqrt-fp-math"="false" "disable-tail-calls"="false" "less-precise-fpmad"="false" "no-frame-pointer-elim"="false" "no-infs-fp-math"="false" "no-jump-tables"="false" "no-nans-fp-math"="false" "no-signed-zeros-fp-math"="false" "stack-protector-buffer-size"="8" "target-cpu"="x86-64" "target-features"="+fxsr,+mmx,+sse,+sse2,+x87" "unsafe-fp-math"="false" "use-soft-float"="false" }
attributes #1 = { nounwind readnone }
attributes #2 = { nounwind "correctly-rounded-divide-sqrt-fp-math"="false" "disable-tail-calls"="false" "less-precise-fpmad"="false" "no-frame-pointer-elim"="false" "no-infs-fp-math"="false" "no-nans-fp-math"="false" "no-signed-zeros-fp-math"="false" "stack-protector-buffer-size"="8" "target-cpu"="x86-64" "target-features"="+fxsr,+mmx,+sse,+sse2,+x87" "unsafe-fp-math"="false" "use-soft-float"="false" }
attributes #3 = { noreturn nounwind "correctly-rounded-divide-sqrt-fp-math"="false" "disable-tail-calls"="false" "less-precise-fpmad"="false" "no-frame-pointer-elim"="false" "no-infs-fp-math"="false" "no-nans-fp-math"="false" "no-signed-zeros-fp-math"="false" "stack-protector-buffer-size"="8" "target-cpu"="x86-64" "target-features"="+fxsr,+mmx,+sse,+sse2,+x87" "unsafe-fp-math"="false" "use-soft-float"="false" }
attributes #4 = { nobuiltin "correctly-rounded-divide-sqrt-fp-math"="false" "disable-tail-calls"="false" "less-precise-fpmad"="false" "no-frame-pointer-elim"="false" "no-infs-fp-math"="false" "no-nans-fp-math"="false" "no-signed-zeros-fp-math"="false" "stack-protector-buffer-size"="8" "target-cpu"="x86-64" "target-features"="+fxsr,+mmx,+sse,+sse2,+x87" "unsafe-fp-math"="false" "use-soft-float"="false" }
attributes #5 = { argmemonly nounwind }
attributes #6 = { nounwind uwtable "correctly-rounded-divide-sqrt-fp-math"="false" "disable-tail-calls"="false" "less-precise-fpmad"="false" "no-frame-pointer-elim"="false" "no-infs-fp-math"="false" "no-jump-tables"="false" "no-nans-fp-math"="false" "no-signed-zeros-fp-math"="false" "stack-protector-buffer-size"="8" "target-cpu"="x86-64" "target-features"="+fxsr,+mmx,+sse,+sse2,+x87" "unsafe-fp-math"="false" "use-soft-float"="false" }
attributes #7 = { "correctly-rounded-divide-sqrt-fp-math"="false" "disable-tail-calls"="false" "less-precise-fpmad"="false" "no-frame-pointer-elim"="false" "no-infs-fp-math"="false" "no-nans-fp-math"="false" "no-signed-zeros-fp-math"="false" "stack-protector-buffer-size"="8" "target-cpu"="x86-64" "target-features"="+fxsr,+mmx,+sse,+sse2,+x87" "unsafe-fp-math"="false" "use-soft-float"="false" }
attributes #8 = { norecurse uwtable "correctly-rounded-divide-sqrt-fp-math"="false" "disable-tail-calls"="false" "less-precise-fpmad"="false" "no-frame-pointer-elim"="false" "no-infs-fp-math"="false" "no-jump-tables"="false" "no-nans-fp-math"="false" "no-signed-zeros-fp-math"="false" "stack-protector-buffer-size"="8" "target-cpu"="x86-64" "target-features"="+fxsr,+mmx,+sse,+sse2,+x87" "unsafe-fp-math"="false" "use-soft-float"="false" }
attributes #9 = { nobuiltin nounwind "correctly-rounded-divide-sqrt-fp-math"="false" "disable-tail-calls"="false" "less-precise-fpmad"="false" "no-frame-pointer-elim"="false" "no-infs-fp-math"="false" "no-nans-fp-math"="false" "no-signed-zeros-fp-math"="false" "stack-protector-buffer-size"="8" "target-cpu"="x86-64" "target-features"="+fxsr,+mmx,+sse,+sse2,+x87" "unsafe-fp-math"="false" "use-soft-float"="false" }
attributes #10 = { nounwind }
attributes #11 = { builtin }
attributes #12 = { noreturn nounwind }
attributes #13 = { cold }
attributes #14 = { builtin nounwind }

!llvm.dbg.cu = !{!0}
!llvm.module.flags = !{!582, !583}
!llvm.ident = !{!584}

!0 = distinct !DICompileUnit(language: DW_LANG_C_plus_plus, file: !1, producer: "clang version 4.0.0 (trunk 279478) (llvm/trunk 279476)", isOptimized: true, runtimeVersion: 0, emissionKind: FullDebug, enums: !2, retainedTypes: !11, globals: !18, imports: !27)
!1 = !DIFile(filename: "Results/pathfinder/pathfinder.cu", directory: "/home/ec2-user/DynamicAnalyis")
!2 = !{!3}
!3 = !DICompositeType(tag: DW_TAG_enumeration_type, name: "cudaMemcpyKind", file: !4, line: 797, size: 32, align: 32, elements: !5, identifier: "_ZTS14cudaMemcpyKind")
!4 = !DIFile(filename: "/usr/local/cuda/include/driver_types.h", directory: "/home/ec2-user/DynamicAnalyis")
!5 = !{!6, !7, !8, !9, !10}
!6 = !DIEnumerator(name: "cudaMemcpyHostToHost", value: 0)
!7 = !DIEnumerator(name: "cudaMemcpyHostToDevice", value: 1)
!8 = !DIEnumerator(name: "cudaMemcpyDeviceToHost", value: 2)
!9 = !DIEnumerator(name: "cudaMemcpyDeviceToDevice", value: 3)
!10 = !DIEnumerator(name: "cudaMemcpyDefault", value: 4)
!11 = !{!12, !14, !15}
!12 = !DIDerivedType(tag: DW_TAG_pointer_type, baseType: !13, size: 64, align: 64)
!13 = !DIDerivedType(tag: DW_TAG_pointer_type, baseType: null, size: 64, align: 64)
!14 = !DIBasicType(name: "int", size: 32, align: 32, encoding: DW_ATE_signed)
!15 = !DIDerivedType(tag: DW_TAG_pointer_type, baseType: !16, size: 64, align: 64)
!16 = !DIDerivedType(tag: DW_TAG_pointer_type, baseType: !17, size: 64, align: 64)
!17 = !DIBasicType(name: "char", size: 8, align: 8, encoding: DW_ATE_signed_char)
!18 = !{!19, !20, !21, !23, !25, !26}
!19 = distinct !DIGlobalVariable(name: "rows", scope: !0, file: !1, line: 15, type: !14, isLocal: false, isDefinition: true, variable: i32* @rows)
!20 = distinct !DIGlobalVariable(name: "cols", scope: !0, file: !1, line: 15, type: !14, isLocal: false, isDefinition: true, variable: i32* @cols)
!21 = distinct !DIGlobalVariable(name: "data", scope: !0, file: !1, line: 16, type: !22, isLocal: false, isDefinition: true, variable: i32** @data)
!22 = !DIDerivedType(tag: DW_TAG_pointer_type, baseType: !14, size: 64, align: 64)
!23 = distinct !DIGlobalVariable(name: "wall", scope: !0, file: !1, line: 17, type: !24, isLocal: false, isDefinition: true, variable: i32*** @wall)
!24 = !DIDerivedType(tag: DW_TAG_pointer_type, baseType: !22, size: 64, align: 64)
!25 = distinct !DIGlobalVariable(name: "result", scope: !0, file: !1, line: 18, type: !22, isLocal: false, isDefinition: true, variable: i32** @result)
!26 = distinct !DIGlobalVariable(name: "pyramid_height", scope: !0, file: !1, line: 20, type: !14, isLocal: false, isDefinition: true, variable: i32* @pyramid_height)
!27 = !{!28, !35, !40, !42, !44, !46, !48, !52, !54, !56, !58, !60, !62, !64, !66, !68, !70, !72, !74, !76, !78, !80, !84, !86, !88, !90, !94, !98, !100, !102, !107, !111, !113, !115, !117, !119, !121, !123, !125, !127, !132, !136, !138, !140, !144, !146, !148, !150, !152, !154, !158, !160, !162, !167, !174, !178, !180, !182, !186, !188, !190, !194, !196, !198, !202, !204, !206, !208, !210, !212, !214, !216, !218, !220, !225, !227, !229, !233, !235, !237, !239, !241, !243, !245, !247, !251, !255, !257, !259, !264, !266, !268, !270, !272, !274, !276, !280, !286, !290, !294, !299, !302, !308, !312, !325, !329, !333, !337, !341, !345, !347, !351, !355, !359, !367, !371, !375, !379, !383, !388, !393, !397, !401, !403, !411, !415, !423, !425, !427, !431, !435, !439, !444, !448, !453, !454, !455, !456, !459, !460, !461, !462, !463, !464, !465, !468, !470, !472, !474, !476, !478, !480, !482, !485, !487, !489, !491, !493, !495, !497, !499, !501, !503, !505, !507, !509, !511, !513, !515, !517, !519, !521, !523, !525, !527, !529, !531, !533, !535, !537, !539, !541, !543, !545, !547, !549, !553, !554, !556, !558, !560, !562, !564, !566, !568, !570, !572, !574, !576, !578, !580}
!28 = !DIImportedEntity(tag: DW_TAG_imported_declaration, scope: !29, entity: !31, line: 189)
!29 = !DINamespace(name: "std", scope: null, file: !30, line: 188)
!30 = !DIFile(filename: "/usr/local/bin/../lib/clang/4.0.0/include/__clang_cuda_math_forward_declares.h", directory: "/home/ec2-user/DynamicAnalyis")
!31 = !DISubprogram(name: "abs", linkageName: "_ZL3absx", scope: !30, file: !30, line: 44, type: !32, isLocal: true, isDefinition: false, flags: DIFlagPrototyped, isOptimized: true)
!32 = !DISubroutineType(types: !33)
!33 = !{!34, !34}
!34 = !DIBasicType(name: "long long int", size: 64, align: 64, encoding: DW_ATE_signed)
!35 = !DIImportedEntity(tag: DW_TAG_imported_declaration, scope: !29, entity: !36, line: 190)
!36 = !DISubprogram(name: "acos", linkageName: "_ZL4acosf", scope: !30, file: !30, line: 46, type: !37, isLocal: true, isDefinition: false, flags: DIFlagPrototyped, isOptimized: true)
!37 = !DISubroutineType(types: !38)
!38 = !{!39, !39}
!39 = !DIBasicType(name: "float", size: 32, align: 32, encoding: DW_ATE_float)
!40 = !DIImportedEntity(tag: DW_TAG_imported_declaration, scope: !29, entity: !41, line: 191)
!41 = !DISubprogram(name: "acosh", linkageName: "_ZL5acoshf", scope: !30, file: !30, line: 48, type: !37, isLocal: true, isDefinition: false, flags: DIFlagPrototyped, isOptimized: true)
!42 = !DIImportedEntity(tag: DW_TAG_imported_declaration, scope: !29, entity: !43, line: 192)
!43 = !DISubprogram(name: "asin", linkageName: "_ZL4asinf", scope: !30, file: !30, line: 50, type: !37, isLocal: true, isDefinition: false, flags: DIFlagPrototyped, isOptimized: true)
!44 = !DIImportedEntity(tag: DW_TAG_imported_declaration, scope: !29, entity: !45, line: 193)
!45 = !DISubprogram(name: "asinh", linkageName: "_ZL5asinhf", scope: !30, file: !30, line: 52, type: !37, isLocal: true, isDefinition: false, flags: DIFlagPrototyped, isOptimized: true)
!46 = !DIImportedEntity(tag: DW_TAG_imported_declaration, scope: !29, entity: !47, line: 194)
!47 = !DISubprogram(name: "atan", linkageName: "_ZL4atanf", scope: !30, file: !30, line: 56, type: !37, isLocal: true, isDefinition: false, flags: DIFlagPrototyped, isOptimized: true)
!48 = !DIImportedEntity(tag: DW_TAG_imported_declaration, scope: !29, entity: !49, line: 195)
!49 = !DISubprogram(name: "atan2", linkageName: "_ZL5atan2ff", scope: !30, file: !30, line: 54, type: !50, isLocal: true, isDefinition: false, flags: DIFlagPrototyped, isOptimized: true)
!50 = !DISubroutineType(types: !51)
!51 = !{!39, !39, !39}
!52 = !DIImportedEntity(tag: DW_TAG_imported_declaration, scope: !29, entity: !53, line: 196)
!53 = !DISubprogram(name: "atanh", linkageName: "_ZL5atanhf", scope: !30, file: !30, line: 58, type: !37, isLocal: true, isDefinition: false, flags: DIFlagPrototyped, isOptimized: true)
!54 = !DIImportedEntity(tag: DW_TAG_imported_declaration, scope: !29, entity: !55, line: 197)
!55 = !DISubprogram(name: "cbrt", linkageName: "_ZL4cbrtf", scope: !30, file: !30, line: 60, type: !37, isLocal: true, isDefinition: false, flags: DIFlagPrototyped, isOptimized: true)
!56 = !DIImportedEntity(tag: DW_TAG_imported_declaration, scope: !29, entity: !57, line: 198)
!57 = !DISubprogram(name: "ceil", linkageName: "_ZL4ceilf", scope: !30, file: !30, line: 62, type: !37, isLocal: true, isDefinition: false, flags: DIFlagPrototyped, isOptimized: true)
!58 = !DIImportedEntity(tag: DW_TAG_imported_declaration, scope: !29, entity: !59, line: 199)
!59 = !DISubprogram(name: "copysign", linkageName: "_ZL8copysignff", scope: !30, file: !30, line: 64, type: !50, isLocal: true, isDefinition: false, flags: DIFlagPrototyped, isOptimized: true)
!60 = !DIImportedEntity(tag: DW_TAG_imported_declaration, scope: !29, entity: !61, line: 200)
!61 = !DISubprogram(name: "cos", linkageName: "_ZL3cosf", scope: !30, file: !30, line: 66, type: !37, isLocal: true, isDefinition: false, flags: DIFlagPrototyped, isOptimized: true)
!62 = !DIImportedEntity(tag: DW_TAG_imported_declaration, scope: !29, entity: !63, line: 201)
!63 = !DISubprogram(name: "cosh", linkageName: "_ZL4coshf", scope: !30, file: !30, line: 68, type: !37, isLocal: true, isDefinition: false, flags: DIFlagPrototyped, isOptimized: true)
!64 = !DIImportedEntity(tag: DW_TAG_imported_declaration, scope: !29, entity: !65, line: 202)
!65 = !DISubprogram(name: "erf", linkageName: "_ZL3erff", scope: !30, file: !30, line: 72, type: !37, isLocal: true, isDefinition: false, flags: DIFlagPrototyped, isOptimized: true)
!66 = !DIImportedEntity(tag: DW_TAG_imported_declaration, scope: !29, entity: !67, line: 203)
!67 = !DISubprogram(name: "erfc", linkageName: "_ZL4erfcf", scope: !30, file: !30, line: 70, type: !37, isLocal: true, isDefinition: false, flags: DIFlagPrototyped, isOptimized: true)
!68 = !DIImportedEntity(tag: DW_TAG_imported_declaration, scope: !29, entity: !69, line: 204)
!69 = !DISubprogram(name: "exp", linkageName: "_ZL3expf", scope: !30, file: !30, line: 76, type: !37, isLocal: true, isDefinition: false, flags: DIFlagPrototyped, isOptimized: true)
!70 = !DIImportedEntity(tag: DW_TAG_imported_declaration, scope: !29, entity: !71, line: 205)
!71 = !DISubprogram(name: "exp2", linkageName: "_ZL4exp2f", scope: !30, file: !30, line: 74, type: !37, isLocal: true, isDefinition: false, flags: DIFlagPrototyped, isOptimized: true)
!72 = !DIImportedEntity(tag: DW_TAG_imported_declaration, scope: !29, entity: !73, line: 206)
!73 = !DISubprogram(name: "expm1", linkageName: "_ZL5expm1f", scope: !30, file: !30, line: 78, type: !37, isLocal: true, isDefinition: false, flags: DIFlagPrototyped, isOptimized: true)
!74 = !DIImportedEntity(tag: DW_TAG_imported_declaration, scope: !29, entity: !75, line: 207)
!75 = !DISubprogram(name: "fabs", linkageName: "_ZL4fabsf", scope: !30, file: !30, line: 80, type: !37, isLocal: true, isDefinition: false, flags: DIFlagPrototyped, isOptimized: true)
!76 = !DIImportedEntity(tag: DW_TAG_imported_declaration, scope: !29, entity: !77, line: 208)
!77 = !DISubprogram(name: "fdim", linkageName: "_ZL4fdimff", scope: !30, file: !30, line: 82, type: !50, isLocal: true, isDefinition: false, flags: DIFlagPrototyped, isOptimized: true)
!78 = !DIImportedEntity(tag: DW_TAG_imported_declaration, scope: !29, entity: !79, line: 209)
!79 = !DISubprogram(name: "floor", linkageName: "_ZL5floorf", scope: !30, file: !30, line: 84, type: !37, isLocal: true, isDefinition: false, flags: DIFlagPrototyped, isOptimized: true)
!80 = !DIImportedEntity(tag: DW_TAG_imported_declaration, scope: !29, entity: !81, line: 210)
!81 = !DISubprogram(name: "fma", linkageName: "_ZL3fmafff", scope: !30, file: !30, line: 86, type: !82, isLocal: true, isDefinition: false, flags: DIFlagPrototyped, isOptimized: true)
!82 = !DISubroutineType(types: !83)
!83 = !{!39, !39, !39, !39}
!84 = !DIImportedEntity(tag: DW_TAG_imported_declaration, scope: !29, entity: !85, line: 211)
!85 = !DISubprogram(name: "fmax", linkageName: "_ZL4fmaxff", scope: !30, file: !30, line: 88, type: !50, isLocal: true, isDefinition: false, flags: DIFlagPrototyped, isOptimized: true)
!86 = !DIImportedEntity(tag: DW_TAG_imported_declaration, scope: !29, entity: !87, line: 212)
!87 = !DISubprogram(name: "fmin", linkageName: "_ZL4fminff", scope: !30, file: !30, line: 90, type: !50, isLocal: true, isDefinition: false, flags: DIFlagPrototyped, isOptimized: true)
!88 = !DIImportedEntity(tag: DW_TAG_imported_declaration, scope: !29, entity: !89, line: 213)
!89 = !DISubprogram(name: "fmod", linkageName: "_ZL4fmodff", scope: !30, file: !30, line: 92, type: !50, isLocal: true, isDefinition: false, flags: DIFlagPrototyped, isOptimized: true)
!90 = !DIImportedEntity(tag: DW_TAG_imported_declaration, scope: !29, entity: !91, line: 214)
!91 = !DISubprogram(name: "fpclassify", linkageName: "_ZL10fpclassifyf", scope: !30, file: !30, line: 94, type: !92, isLocal: true, isDefinition: false, flags: DIFlagPrototyped, isOptimized: true)
!92 = !DISubroutineType(types: !93)
!93 = !{!14, !39}
!94 = !DIImportedEntity(tag: DW_TAG_imported_declaration, scope: !29, entity: !95, line: 215)
!95 = !DISubprogram(name: "frexp", linkageName: "_ZL5frexpfPi", scope: !30, file: !30, line: 96, type: !96, isLocal: true, isDefinition: false, flags: DIFlagPrototyped, isOptimized: true)
!96 = !DISubroutineType(types: !97)
!97 = !{!39, !39, !22}
!98 = !DIImportedEntity(tag: DW_TAG_imported_declaration, scope: !29, entity: !99, line: 216)
!99 = !DISubprogram(name: "hypot", linkageName: "_ZL5hypotff", scope: !30, file: !30, line: 98, type: !50, isLocal: true, isDefinition: false, flags: DIFlagPrototyped, isOptimized: true)
!100 = !DIImportedEntity(tag: DW_TAG_imported_declaration, scope: !29, entity: !101, line: 217)
!101 = !DISubprogram(name: "ilogb", linkageName: "_ZL5ilogbf", scope: !30, file: !30, line: 100, type: !92, isLocal: true, isDefinition: false, flags: DIFlagPrototyped, isOptimized: true)
!102 = !DIImportedEntity(tag: DW_TAG_imported_declaration, scope: !29, entity: !103, line: 218)
!103 = !DISubprogram(name: "isfinite", linkageName: "_ZL8isfinitef", scope: !30, file: !30, line: 102, type: !104, isLocal: true, isDefinition: false, flags: DIFlagPrototyped, isOptimized: true)
!104 = !DISubroutineType(types: !105)
!105 = !{!106, !39}
!106 = !DIBasicType(name: "bool", size: 8, align: 8, encoding: DW_ATE_boolean)
!107 = !DIImportedEntity(tag: DW_TAG_imported_declaration, scope: !29, entity: !108, line: 219)
!108 = !DISubprogram(name: "isgreater", linkageName: "_ZL9isgreaterff", scope: !30, file: !30, line: 106, type: !109, isLocal: true, isDefinition: false, flags: DIFlagPrototyped, isOptimized: true)
!109 = !DISubroutineType(types: !110)
!110 = !{!106, !39, !39}
!111 = !DIImportedEntity(tag: DW_TAG_imported_declaration, scope: !29, entity: !112, line: 220)
!112 = !DISubprogram(name: "isgreaterequal", linkageName: "_ZL14isgreaterequalff", scope: !30, file: !30, line: 105, type: !109, isLocal: true, isDefinition: false, flags: DIFlagPrototyped, isOptimized: true)
!113 = !DIImportedEntity(tag: DW_TAG_imported_declaration, scope: !29, entity: !114, line: 221)
!114 = !DISubprogram(name: "isinf", linkageName: "_ZL5isinff", scope: !30, file: !30, line: 108, type: !104, isLocal: true, isDefinition: false, flags: DIFlagPrototyped, isOptimized: true)
!115 = !DIImportedEntity(tag: DW_TAG_imported_declaration, scope: !29, entity: !116, line: 222)
!116 = !DISubprogram(name: "isless", linkageName: "_ZL6islessff", scope: !30, file: !30, line: 112, type: !109, isLocal: true, isDefinition: false, flags: DIFlagPrototyped, isOptimized: true)
!117 = !DIImportedEntity(tag: DW_TAG_imported_declaration, scope: !29, entity: !118, line: 223)
!118 = !DISubprogram(name: "islessequal", linkageName: "_ZL11islessequalff", scope: !30, file: !30, line: 111, type: !109, isLocal: true, isDefinition: false, flags: DIFlagPrototyped, isOptimized: true)
!119 = !DIImportedEntity(tag: DW_TAG_imported_declaration, scope: !29, entity: !120, line: 224)
!120 = !DISubprogram(name: "islessgreater", linkageName: "_ZL13islessgreaterff", scope: !30, file: !30, line: 114, type: !109, isLocal: true, isDefinition: false, flags: DIFlagPrototyped, isOptimized: true)
!121 = !DIImportedEntity(tag: DW_TAG_imported_declaration, scope: !29, entity: !122, line: 225)
!122 = !DISubprogram(name: "isnan", linkageName: "_ZL5isnanf", scope: !30, file: !30, line: 116, type: !104, isLocal: true, isDefinition: false, flags: DIFlagPrototyped, isOptimized: true)
!123 = !DIImportedEntity(tag: DW_TAG_imported_declaration, scope: !29, entity: !124, line: 226)
!124 = !DISubprogram(name: "isnormal", linkageName: "_ZL8isnormalf", scope: !30, file: !30, line: 118, type: !104, isLocal: true, isDefinition: false, flags: DIFlagPrototyped, isOptimized: true)
!125 = !DIImportedEntity(tag: DW_TAG_imported_declaration, scope: !29, entity: !126, line: 227)
!126 = !DISubprogram(name: "isunordered", linkageName: "_ZL11isunorderedff", scope: !30, file: !30, line: 120, type: !109, isLocal: true, isDefinition: false, flags: DIFlagPrototyped, isOptimized: true)
!127 = !DIImportedEntity(tag: DW_TAG_imported_declaration, scope: !29, entity: !128, line: 228)
!128 = !DISubprogram(name: "labs", linkageName: "_ZL4labsl", scope: !30, file: !30, line: 121, type: !129, isLocal: true, isDefinition: false, flags: DIFlagPrototyped, isOptimized: true)
!129 = !DISubroutineType(types: !130)
!130 = !{!131, !131}
!131 = !DIBasicType(name: "long int", size: 64, align: 64, encoding: DW_ATE_signed)
!132 = !DIImportedEntity(tag: DW_TAG_imported_declaration, scope: !29, entity: !133, line: 229)
!133 = !DISubprogram(name: "ldexp", linkageName: "_ZL5ldexpfi", scope: !30, file: !30, line: 123, type: !134, isLocal: true, isDefinition: false, flags: DIFlagPrototyped, isOptimized: true)
!134 = !DISubroutineType(types: !135)
!135 = !{!39, !39, !14}
!136 = !DIImportedEntity(tag: DW_TAG_imported_declaration, scope: !29, entity: !137, line: 230)
!137 = !DISubprogram(name: "lgamma", linkageName: "_ZL6lgammaf", scope: !30, file: !30, line: 125, type: !37, isLocal: true, isDefinition: false, flags: DIFlagPrototyped, isOptimized: true)
!138 = !DIImportedEntity(tag: DW_TAG_imported_declaration, scope: !29, entity: !139, line: 231)
!139 = !DISubprogram(name: "llabs", linkageName: "_ZL5llabsx", scope: !30, file: !30, line: 126, type: !32, isLocal: true, isDefinition: false, flags: DIFlagPrototyped, isOptimized: true)
!140 = !DIImportedEntity(tag: DW_TAG_imported_declaration, scope: !29, entity: !141, line: 232)
!141 = !DISubprogram(name: "llrint", linkageName: "_ZL6llrintf", scope: !30, file: !30, line: 128, type: !142, isLocal: true, isDefinition: false, flags: DIFlagPrototyped, isOptimized: true)
!142 = !DISubroutineType(types: !143)
!143 = !{!34, !39}
!144 = !DIImportedEntity(tag: DW_TAG_imported_declaration, scope: !29, entity: !145, line: 233)
!145 = !DISubprogram(name: "log", linkageName: "_ZL3logf", scope: !30, file: !30, line: 138, type: !37, isLocal: true, isDefinition: false, flags: DIFlagPrototyped, isOptimized: true)
!146 = !DIImportedEntity(tag: DW_TAG_imported_declaration, scope: !29, entity: !147, line: 234)
!147 = !DISubprogram(name: "log10", linkageName: "_ZL5log10f", scope: !30, file: !30, line: 130, type: !37, isLocal: true, isDefinition: false, flags: DIFlagPrototyped, isOptimized: true)
!148 = !DIImportedEntity(tag: DW_TAG_imported_declaration, scope: !29, entity: !149, line: 235)
!149 = !DISubprogram(name: "log1p", linkageName: "_ZL5log1pf", scope: !30, file: !30, line: 132, type: !37, isLocal: true, isDefinition: false, flags: DIFlagPrototyped, isOptimized: true)
!150 = !DIImportedEntity(tag: DW_TAG_imported_declaration, scope: !29, entity: !151, line: 236)
!151 = !DISubprogram(name: "log2", linkageName: "_ZL4log2f", scope: !30, file: !30, line: 134, type: !37, isLocal: true, isDefinition: false, flags: DIFlagPrototyped, isOptimized: true)
!152 = !DIImportedEntity(tag: DW_TAG_imported_declaration, scope: !29, entity: !153, line: 237)
!153 = !DISubprogram(name: "logb", linkageName: "_ZL4logbf", scope: !30, file: !30, line: 136, type: !37, isLocal: true, isDefinition: false, flags: DIFlagPrototyped, isOptimized: true)
!154 = !DIImportedEntity(tag: DW_TAG_imported_declaration, scope: !29, entity: !155, line: 238)
!155 = !DISubprogram(name: "lrint", linkageName: "_ZL5lrintf", scope: !30, file: !30, line: 140, type: !156, isLocal: true, isDefinition: false, flags: DIFlagPrototyped, isOptimized: true)
!156 = !DISubroutineType(types: !157)
!157 = !{!131, !39}
!158 = !DIImportedEntity(tag: DW_TAG_imported_declaration, scope: !29, entity: !159, line: 239)
!159 = !DISubprogram(name: "lround", linkageName: "_ZL6lroundf", scope: !30, file: !30, line: 142, type: !156, isLocal: true, isDefinition: false, flags: DIFlagPrototyped, isOptimized: true)
!160 = !DIImportedEntity(tag: DW_TAG_imported_declaration, scope: !29, entity: !161, line: 240)
!161 = !DISubprogram(name: "llround", linkageName: "_ZL7llroundf", scope: !30, file: !30, line: 143, type: !142, isLocal: true, isDefinition: false, flags: DIFlagPrototyped, isOptimized: true)
!162 = !DIImportedEntity(tag: DW_TAG_imported_declaration, scope: !29, entity: !163, line: 241)
!163 = !DISubprogram(name: "modf", linkageName: "_ZL4modffPf", scope: !30, file: !30, line: 145, type: !164, isLocal: true, isDefinition: false, flags: DIFlagPrototyped, isOptimized: true)
!164 = !DISubroutineType(types: !165)
!165 = !{!39, !39, !166}
!166 = !DIDerivedType(tag: DW_TAG_pointer_type, baseType: !39, size: 64, align: 64)
!167 = !DIImportedEntity(tag: DW_TAG_imported_declaration, scope: !29, entity: !168, line: 242)
!168 = !DISubprogram(name: "nan", linkageName: "_ZL3nanPKc", scope: !30, file: !30, line: 146, type: !169, isLocal: true, isDefinition: false, flags: DIFlagPrototyped, isOptimized: true)
!169 = !DISubroutineType(types: !170)
!170 = !{!171, !172}
!171 = !DIBasicType(name: "double", size: 64, align: 64, encoding: DW_ATE_float)
!172 = !DIDerivedType(tag: DW_TAG_pointer_type, baseType: !173, size: 64, align: 64)
!173 = !DIDerivedType(tag: DW_TAG_const_type, baseType: !17)
!174 = !DIImportedEntity(tag: DW_TAG_imported_declaration, scope: !29, entity: !175, line: 243)
!175 = !DISubprogram(name: "nanf", linkageName: "_ZL4nanfPKc", scope: !30, file: !30, line: 147, type: !176, isLocal: true, isDefinition: false, flags: DIFlagPrototyped, isOptimized: true)
!176 = !DISubroutineType(types: !177)
!177 = !{!39, !172}
!178 = !DIImportedEntity(tag: DW_TAG_imported_declaration, scope: !29, entity: !179, line: 244)
!179 = !DISubprogram(name: "nearbyint", linkageName: "_ZL9nearbyintf", scope: !30, file: !30, line: 149, type: !37, isLocal: true, isDefinition: false, flags: DIFlagPrototyped, isOptimized: true)
!180 = !DIImportedEntity(tag: DW_TAG_imported_declaration, scope: !29, entity: !181, line: 245)
!181 = !DISubprogram(name: "nextafter", linkageName: "_ZL9nextafterff", scope: !30, file: !30, line: 151, type: !50, isLocal: true, isDefinition: false, flags: DIFlagPrototyped, isOptimized: true)
!182 = !DIImportedEntity(tag: DW_TAG_imported_declaration, scope: !29, entity: !183, line: 246)
!183 = !DISubprogram(name: "nexttoward", linkageName: "_ZL10nexttowardfd", scope: !30, file: !30, line: 153, type: !184, isLocal: true, isDefinition: false, flags: DIFlagPrototyped, isOptimized: true)
!184 = !DISubroutineType(types: !185)
!185 = !{!39, !39, !171}
!186 = !DIImportedEntity(tag: DW_TAG_imported_declaration, scope: !29, entity: !187, line: 247)
!187 = !DISubprogram(name: "pow", linkageName: "_ZL3powfi", scope: !30, file: !30, line: 158, type: !134, isLocal: true, isDefinition: false, flags: DIFlagPrototyped, isOptimized: true)
!188 = !DIImportedEntity(tag: DW_TAG_imported_declaration, scope: !29, entity: !189, line: 248)
!189 = !DISubprogram(name: "remainder", linkageName: "_ZL9remainderff", scope: !30, file: !30, line: 160, type: !50, isLocal: true, isDefinition: false, flags: DIFlagPrototyped, isOptimized: true)
!190 = !DIImportedEntity(tag: DW_TAG_imported_declaration, scope: !29, entity: !191, line: 249)
!191 = !DISubprogram(name: "remquo", linkageName: "_ZL6remquoffPi", scope: !30, file: !30, line: 162, type: !192, isLocal: true, isDefinition: false, flags: DIFlagPrototyped, isOptimized: true)
!192 = !DISubroutineType(types: !193)
!193 = !{!39, !39, !39, !22}
!194 = !DIImportedEntity(tag: DW_TAG_imported_declaration, scope: !29, entity: !195, line: 250)
!195 = !DISubprogram(name: "rint", linkageName: "_ZL4rintf", scope: !30, file: !30, line: 164, type: !37, isLocal: true, isDefinition: false, flags: DIFlagPrototyped, isOptimized: true)
!196 = !DIImportedEntity(tag: DW_TAG_imported_declaration, scope: !29, entity: !197, line: 251)
!197 = !DISubprogram(name: "round", linkageName: "_ZL5roundf", scope: !30, file: !30, line: 166, type: !37, isLocal: true, isDefinition: false, flags: DIFlagPrototyped, isOptimized: true)
!198 = !DIImportedEntity(tag: DW_TAG_imported_declaration, scope: !29, entity: !199, line: 252)
!199 = !DISubprogram(name: "scalbln", linkageName: "_ZL7scalblnfl", scope: !30, file: !30, line: 168, type: !200, isLocal: true, isDefinition: false, flags: DIFlagPrototyped, isOptimized: true)
!200 = !DISubroutineType(types: !201)
!201 = !{!39, !39, !131}
!202 = !DIImportedEntity(tag: DW_TAG_imported_declaration, scope: !29, entity: !203, line: 253)
!203 = !DISubprogram(name: "scalbn", linkageName: "_ZL6scalbnfi", scope: !30, file: !30, line: 170, type: !134, isLocal: true, isDefinition: false, flags: DIFlagPrototyped, isOptimized: true)
!204 = !DIImportedEntity(tag: DW_TAG_imported_declaration, scope: !29, entity: !205, line: 254)
!205 = !DISubprogram(name: "signbit", linkageName: "_ZL7signbitf", scope: !30, file: !30, line: 172, type: !104, isLocal: true, isDefinition: false, flags: DIFlagPrototyped, isOptimized: true)
!206 = !DIImportedEntity(tag: DW_TAG_imported_declaration, scope: !29, entity: !207, line: 255)
!207 = !DISubprogram(name: "sin", linkageName: "_ZL3sinf", scope: !30, file: !30, line: 174, type: !37, isLocal: true, isDefinition: false, flags: DIFlagPrototyped, isOptimized: true)
!208 = !DIImportedEntity(tag: DW_TAG_imported_declaration, scope: !29, entity: !209, line: 256)
!209 = !DISubprogram(name: "sinh", linkageName: "_ZL4sinhf", scope: !30, file: !30, line: 176, type: !37, isLocal: true, isDefinition: false, flags: DIFlagPrototyped, isOptimized: true)
!210 = !DIImportedEntity(tag: DW_TAG_imported_declaration, scope: !29, entity: !211, line: 257)
!211 = !DISubprogram(name: "sqrt", linkageName: "_ZL4sqrtf", scope: !30, file: !30, line: 178, type: !37, isLocal: true, isDefinition: false, flags: DIFlagPrototyped, isOptimized: true)
!212 = !DIImportedEntity(tag: DW_TAG_imported_declaration, scope: !29, entity: !213, line: 258)
!213 = !DISubprogram(name: "tan", linkageName: "_ZL3tanf", scope: !30, file: !30, line: 180, type: !37, isLocal: true, isDefinition: false, flags: DIFlagPrototyped, isOptimized: true)
!214 = !DIImportedEntity(tag: DW_TAG_imported_declaration, scope: !29, entity: !215, line: 259)
!215 = !DISubprogram(name: "tanh", linkageName: "_ZL4tanhf", scope: !30, file: !30, line: 182, type: !37, isLocal: true, isDefinition: false, flags: DIFlagPrototyped, isOptimized: true)
!216 = !DIImportedEntity(tag: DW_TAG_imported_declaration, scope: !29, entity: !217, line: 260)
!217 = !DISubprogram(name: "tgamma", linkageName: "_ZL6tgammaf", scope: !30, file: !30, line: 184, type: !37, isLocal: true, isDefinition: false, flags: DIFlagPrototyped, isOptimized: true)
!218 = !DIImportedEntity(tag: DW_TAG_imported_declaration, scope: !29, entity: !219, line: 261)
!219 = !DISubprogram(name: "trunc", linkageName: "_ZL5truncf", scope: !30, file: !30, line: 186, type: !37, isLocal: true, isDefinition: false, flags: DIFlagPrototyped, isOptimized: true)
!220 = !DIImportedEntity(tag: DW_TAG_imported_declaration, scope: !29, entity: !221, line: 102)
!221 = !DISubprogram(name: "acos", scope: !222, file: !222, line: 54, type: !223, isLocal: false, isDefinition: false, flags: DIFlagPrototyped, isOptimized: true)
!222 = !DIFile(filename: "/usr/include/bits/mathcalls.h", directory: "/home/ec2-user/DynamicAnalyis")
!223 = !DISubroutineType(types: !224)
!224 = !{!171, !171}
!225 = !DIImportedEntity(tag: DW_TAG_imported_declaration, scope: !29, entity: !226, line: 121)
!226 = !DISubprogram(name: "asin", scope: !222, file: !222, line: 56, type: !223, isLocal: false, isDefinition: false, flags: DIFlagPrototyped, isOptimized: true)
!227 = !DIImportedEntity(tag: DW_TAG_imported_declaration, scope: !29, entity: !228, line: 140)
!228 = !DISubprogram(name: "atan", scope: !222, file: !222, line: 58, type: !223, isLocal: false, isDefinition: false, flags: DIFlagPrototyped, isOptimized: true)
!229 = !DIImportedEntity(tag: DW_TAG_imported_declaration, scope: !29, entity: !230, line: 159)
!230 = !DISubprogram(name: "atan2", scope: !222, file: !222, line: 60, type: !231, isLocal: false, isDefinition: false, flags: DIFlagPrototyped, isOptimized: true)
!231 = !DISubroutineType(types: !232)
!232 = !{!171, !171, !171}
!233 = !DIImportedEntity(tag: DW_TAG_imported_declaration, scope: !29, entity: !234, line: 180)
!234 = !DISubprogram(name: "ceil", scope: !222, file: !222, line: 179, type: !223, isLocal: false, isDefinition: false, flags: DIFlagPrototyped, isOptimized: true)
!235 = !DIImportedEntity(tag: DW_TAG_imported_declaration, scope: !29, entity: !236, line: 199)
!236 = !DISubprogram(name: "cos", scope: !222, file: !222, line: 63, type: !223, isLocal: false, isDefinition: false, flags: DIFlagPrototyped, isOptimized: true)
!237 = !DIImportedEntity(tag: DW_TAG_imported_declaration, scope: !29, entity: !238, line: 218)
!238 = !DISubprogram(name: "cosh", scope: !222, file: !222, line: 72, type: !223, isLocal: false, isDefinition: false, flags: DIFlagPrototyped, isOptimized: true)
!239 = !DIImportedEntity(tag: DW_TAG_imported_declaration, scope: !29, entity: !240, line: 237)
!240 = !DISubprogram(name: "exp", scope: !222, file: !222, line: 100, type: !223, isLocal: false, isDefinition: false, flags: DIFlagPrototyped, isOptimized: true)
!241 = !DIImportedEntity(tag: DW_TAG_imported_declaration, scope: !29, entity: !242, line: 256)
!242 = !DISubprogram(name: "fabs", scope: !222, file: !222, line: 182, type: !223, isLocal: false, isDefinition: false, flags: DIFlagPrototyped, isOptimized: true)
!243 = !DIImportedEntity(tag: DW_TAG_imported_declaration, scope: !29, entity: !244, line: 275)
!244 = !DISubprogram(name: "floor", scope: !222, file: !222, line: 185, type: !223, isLocal: false, isDefinition: false, flags: DIFlagPrototyped, isOptimized: true)
!245 = !DIImportedEntity(tag: DW_TAG_imported_declaration, scope: !29, entity: !246, line: 294)
!246 = !DISubprogram(name: "fmod", scope: !222, file: !222, line: 188, type: !231, isLocal: false, isDefinition: false, flags: DIFlagPrototyped, isOptimized: true)
!247 = !DIImportedEntity(tag: DW_TAG_imported_declaration, scope: !29, entity: !248, line: 315)
!248 = !DISubprogram(name: "frexp", scope: !222, file: !222, line: 103, type: !249, isLocal: false, isDefinition: false, flags: DIFlagPrototyped, isOptimized: true)
!249 = !DISubroutineType(types: !250)
!250 = !{!171, !171, !22}
!251 = !DIImportedEntity(tag: DW_TAG_imported_declaration, scope: !29, entity: !252, line: 334)
!252 = !DISubprogram(name: "ldexp", scope: !222, file: !222, line: 106, type: !253, isLocal: false, isDefinition: false, flags: DIFlagPrototyped, isOptimized: true)
!253 = !DISubroutineType(types: !254)
!254 = !{!171, !171, !14}
!255 = !DIImportedEntity(tag: DW_TAG_imported_declaration, scope: !29, entity: !256, line: 353)
!256 = !DISubprogram(name: "log", scope: !222, file: !222, line: 109, type: !223, isLocal: false, isDefinition: false, flags: DIFlagPrototyped, isOptimized: true)
!257 = !DIImportedEntity(tag: DW_TAG_imported_declaration, scope: !29, entity: !258, line: 372)
!258 = !DISubprogram(name: "log10", scope: !222, file: !222, line: 112, type: !223, isLocal: false, isDefinition: false, flags: DIFlagPrototyped, isOptimized: true)
!259 = !DIImportedEntity(tag: DW_TAG_imported_declaration, scope: !29, entity: !260, line: 391)
!260 = !DISubprogram(name: "modf", scope: !222, file: !222, line: 115, type: !261, isLocal: false, isDefinition: false, flags: DIFlagPrototyped, isOptimized: true)
!261 = !DISubroutineType(types: !262)
!262 = !{!171, !171, !263}
!263 = !DIDerivedType(tag: DW_TAG_pointer_type, baseType: !171, size: 64, align: 64)
!264 = !DIImportedEntity(tag: DW_TAG_imported_declaration, scope: !29, entity: !265, line: 403)
!265 = !DISubprogram(name: "pow", scope: !222, file: !222, line: 154, type: !231, isLocal: false, isDefinition: false, flags: DIFlagPrototyped, isOptimized: true)
!266 = !DIImportedEntity(tag: DW_TAG_imported_declaration, scope: !29, entity: !267, line: 440)
!267 = !DISubprogram(name: "sin", scope: !222, file: !222, line: 65, type: !223, isLocal: false, isDefinition: false, flags: DIFlagPrototyped, isOptimized: true)
!268 = !DIImportedEntity(tag: DW_TAG_imported_declaration, scope: !29, entity: !269, line: 459)
!269 = !DISubprogram(name: "sinh", scope: !222, file: !222, line: 74, type: !223, isLocal: false, isDefinition: false, flags: DIFlagPrototyped, isOptimized: true)
!270 = !DIImportedEntity(tag: DW_TAG_imported_declaration, scope: !29, entity: !271, line: 478)
!271 = !DISubprogram(name: "sqrt", scope: !222, file: !222, line: 157, type: !223, isLocal: false, isDefinition: false, flags: DIFlagPrototyped, isOptimized: true)
!272 = !DIImportedEntity(tag: DW_TAG_imported_declaration, scope: !29, entity: !273, line: 497)
!273 = !DISubprogram(name: "tan", scope: !222, file: !222, line: 67, type: !223, isLocal: false, isDefinition: false, flags: DIFlagPrototyped, isOptimized: true)
!274 = !DIImportedEntity(tag: DW_TAG_imported_declaration, scope: !29, entity: !275, line: 516)
!275 = !DISubprogram(name: "tanh", scope: !222, file: !222, line: 76, type: !223, isLocal: false, isDefinition: false, flags: DIFlagPrototyped, isOptimized: true)
!276 = !DIImportedEntity(tag: DW_TAG_imported_declaration, scope: !29, entity: !277, line: 118)
!277 = !DIDerivedType(tag: DW_TAG_typedef, name: "div_t", file: !278, line: 101, baseType: !279)
!278 = !DIFile(filename: "/usr/include/stdlib.h", directory: "/home/ec2-user/DynamicAnalyis")
!279 = !DICompositeType(tag: DW_TAG_structure_type, file: !278, line: 97, size: 64, align: 32, flags: DIFlagFwdDecl, identifier: "_ZTS5div_t")
!280 = !DIImportedEntity(tag: DW_TAG_imported_declaration, scope: !29, entity: !281, line: 119)
!281 = !DIDerivedType(tag: DW_TAG_typedef, name: "ldiv_t", file: !278, line: 109, baseType: !282)
!282 = distinct !DICompositeType(tag: DW_TAG_structure_type, file: !278, line: 105, size: 128, align: 64, elements: !283, identifier: "_ZTS6ldiv_t")
!283 = !{!284, !285}
!284 = !DIDerivedType(tag: DW_TAG_member, name: "quot", scope: !282, file: !278, line: 107, baseType: !131, size: 64, align: 64)
!285 = !DIDerivedType(tag: DW_TAG_member, name: "rem", scope: !282, file: !278, line: 108, baseType: !131, size: 64, align: 64, offset: 64)
!286 = !DIImportedEntity(tag: DW_TAG_imported_declaration, scope: !29, entity: !287, line: 121)
!287 = !DISubprogram(name: "abort", scope: !278, file: !278, line: 514, type: !288, isLocal: false, isDefinition: false, flags: DIFlagPrototyped | DIFlagNoReturn, isOptimized: true)
!288 = !DISubroutineType(types: !289)
!289 = !{null}
!290 = !DIImportedEntity(tag: DW_TAG_imported_declaration, scope: !29, entity: !291, line: 122)
!291 = !DISubprogram(name: "abs", scope: !278, file: !278, line: 770, type: !292, isLocal: false, isDefinition: false, flags: DIFlagPrototyped, isOptimized: true)
!292 = !DISubroutineType(types: !293)
!293 = !{!14, !14}
!294 = !DIImportedEntity(tag: DW_TAG_imported_declaration, scope: !29, entity: !295, line: 123)
!295 = !DISubprogram(name: "atexit", scope: !278, file: !278, line: 518, type: !296, isLocal: false, isDefinition: false, flags: DIFlagPrototyped, isOptimized: true)
!296 = !DISubroutineType(types: !297)
!297 = !{!14, !298}
!298 = !DIDerivedType(tag: DW_TAG_pointer_type, baseType: !288, size: 64, align: 64)
!299 = !DIImportedEntity(tag: DW_TAG_imported_declaration, scope: !29, entity: !300, line: 129)
!300 = !DISubprogram(name: "atof", scope: !301, file: !301, line: 26, type: !169, isLocal: false, isDefinition: false, flags: DIFlagPrototyped, isOptimized: true)
!301 = !DIFile(filename: "/usr/include/bits/stdlib-float.h", directory: "/home/ec2-user/DynamicAnalyis")
!302 = !DIImportedEntity(tag: DW_TAG_imported_declaration, scope: !29, entity: !303, line: 130)
!303 = distinct !DISubprogram(name: "atoi", scope: !278, file: !278, line: 278, type: !304, isLocal: false, isDefinition: true, scopeLine: 279, flags: DIFlagPrototyped, isOptimized: true, unit: !0, variables: !306)
!304 = !DISubroutineType(types: !305)
!305 = !{!14, !172}
!306 = !{!307}
!307 = !DILocalVariable(name: "__nptr", arg: 1, scope: !303, file: !278, line: 278, type: !172)
!308 = !DIImportedEntity(tag: DW_TAG_imported_declaration, scope: !29, entity: !309, line: 131)
!309 = !DISubprogram(name: "atol", scope: !278, file: !278, line: 283, type: !310, isLocal: false, isDefinition: false, flags: DIFlagPrototyped, isOptimized: true)
!310 = !DISubroutineType(types: !311)
!311 = !{!131, !172}
!312 = !DIImportedEntity(tag: DW_TAG_imported_declaration, scope: !29, entity: !313, line: 132)
!313 = !DISubprogram(name: "bsearch", scope: !278, file: !278, line: 754, type: !314, isLocal: false, isDefinition: false, flags: DIFlagPrototyped, isOptimized: true)
!314 = !DISubroutineType(types: !315)
!315 = !{!13, !316, !316, !318, !318, !321}
!316 = !DIDerivedType(tag: DW_TAG_pointer_type, baseType: !317, size: 64, align: 64)
!317 = !DIDerivedType(tag: DW_TAG_const_type, baseType: null)
!318 = !DIDerivedType(tag: DW_TAG_typedef, name: "size_t", file: !319, line: 62, baseType: !320)
!319 = !DIFile(filename: "/usr/local/bin/../lib/clang/4.0.0/include/stddef.h", directory: "/home/ec2-user/DynamicAnalyis")
!320 = !DIBasicType(name: "long unsigned int", size: 64, align: 64, encoding: DW_ATE_unsigned)
!321 = !DIDerivedType(tag: DW_TAG_typedef, name: "__compar_fn_t", file: !278, line: 741, baseType: !322)
!322 = !DIDerivedType(tag: DW_TAG_pointer_type, baseType: !323, size: 64, align: 64)
!323 = !DISubroutineType(types: !324)
!324 = !{!14, !316, !316}
!325 = !DIImportedEntity(tag: DW_TAG_imported_declaration, scope: !29, entity: !326, line: 133)
!326 = !DISubprogram(name: "calloc", scope: !278, file: !278, line: 467, type: !327, isLocal: false, isDefinition: false, flags: DIFlagPrototyped, isOptimized: true)
!327 = !DISubroutineType(types: !328)
!328 = !{!13, !318, !318}
!329 = !DIImportedEntity(tag: DW_TAG_imported_declaration, scope: !29, entity: !330, line: 134)
!330 = !DISubprogram(name: "div", scope: !278, file: !278, line: 784, type: !331, isLocal: false, isDefinition: false, flags: DIFlagPrototyped, isOptimized: true)
!331 = !DISubroutineType(types: !332)
!332 = !{!277, !14, !14}
!333 = !DIImportedEntity(tag: DW_TAG_imported_declaration, scope: !29, entity: !334, line: 135)
!334 = !DISubprogram(name: "exit", scope: !278, file: !278, line: 542, type: !335, isLocal: false, isDefinition: false, flags: DIFlagPrototyped | DIFlagNoReturn, isOptimized: true)
!335 = !DISubroutineType(types: !336)
!336 = !{null, !14}
!337 = !DIImportedEntity(tag: DW_TAG_imported_declaration, scope: !29, entity: !338, line: 136)
!338 = !DISubprogram(name: "free", scope: !278, file: !278, line: 482, type: !339, isLocal: false, isDefinition: false, flags: DIFlagPrototyped, isOptimized: true)
!339 = !DISubroutineType(types: !340)
!340 = !{null, !13}
!341 = !DIImportedEntity(tag: DW_TAG_imported_declaration, scope: !29, entity: !342, line: 137)
!342 = !DISubprogram(name: "getenv", scope: !278, file: !278, line: 563, type: !343, isLocal: false, isDefinition: false, flags: DIFlagPrototyped, isOptimized: true)
!343 = !DISubroutineType(types: !344)
!344 = !{!16, !172}
!345 = !DIImportedEntity(tag: DW_TAG_imported_declaration, scope: !29, entity: !346, line: 138)
!346 = !DISubprogram(name: "labs", scope: !278, file: !278, line: 771, type: !129, isLocal: false, isDefinition: false, flags: DIFlagPrototyped, isOptimized: true)
!347 = !DIImportedEntity(tag: DW_TAG_imported_declaration, scope: !29, entity: !348, line: 139)
!348 = !DISubprogram(name: "ldiv", scope: !278, file: !278, line: 786, type: !349, isLocal: false, isDefinition: false, flags: DIFlagPrototyped, isOptimized: true)
!349 = !DISubroutineType(types: !350)
!350 = !{!281, !131, !131}
!351 = !DIImportedEntity(tag: DW_TAG_imported_declaration, scope: !29, entity: !352, line: 140)
!352 = !DISubprogram(name: "malloc", scope: !278, file: !278, line: 465, type: !353, isLocal: false, isDefinition: false, flags: DIFlagPrototyped, isOptimized: true)
!353 = !DISubroutineType(types: !354)
!354 = !{!13, !318}
!355 = !DIImportedEntity(tag: DW_TAG_imported_declaration, scope: !29, entity: !356, line: 142)
!356 = !DISubprogram(name: "mblen", scope: !278, file: !278, line: 859, type: !357, isLocal: false, isDefinition: false, flags: DIFlagPrototyped, isOptimized: true)
!357 = !DISubroutineType(types: !358)
!358 = !{!14, !172, !318}
!359 = !DIImportedEntity(tag: DW_TAG_imported_declaration, scope: !29, entity: !360, line: 143)
!360 = !DISubprogram(name: "mbstowcs", scope: !278, file: !278, line: 870, type: !361, isLocal: false, isDefinition: false, flags: DIFlagPrototyped, isOptimized: true)
!361 = !DISubroutineType(types: !362)
!362 = !{!318, !363, !366, !318}
!363 = !DIDerivedType(tag: DW_TAG_restrict_type, baseType: !364)
!364 = !DIDerivedType(tag: DW_TAG_pointer_type, baseType: !365, size: 64, align: 64)
!365 = !DIBasicType(name: "wchar_t", size: 32, align: 32, encoding: DW_ATE_signed)
!366 = !DIDerivedType(tag: DW_TAG_restrict_type, baseType: !172)
!367 = !DIImportedEntity(tag: DW_TAG_imported_declaration, scope: !29, entity: !368, line: 144)
!368 = !DISubprogram(name: "mbtowc", scope: !278, file: !278, line: 862, type: !369, isLocal: false, isDefinition: false, flags: DIFlagPrototyped, isOptimized: true)
!369 = !DISubroutineType(types: !370)
!370 = !{!14, !363, !366, !318}
!371 = !DIImportedEntity(tag: DW_TAG_imported_declaration, scope: !29, entity: !372, line: 146)
!372 = !DISubprogram(name: "qsort", scope: !278, file: !278, line: 760, type: !373, isLocal: false, isDefinition: false, flags: DIFlagPrototyped, isOptimized: true)
!373 = !DISubroutineType(types: !374)
!374 = !{null, !13, !318, !318, !321}
!375 = !DIImportedEntity(tag: DW_TAG_imported_declaration, scope: !29, entity: !376, line: 152)
!376 = !DISubprogram(name: "rand", scope: !278, file: !278, line: 374, type: !377, isLocal: false, isDefinition: false, flags: DIFlagPrototyped, isOptimized: true)
!377 = !DISubroutineType(types: !378)
!378 = !{!14}
!379 = !DIImportedEntity(tag: DW_TAG_imported_declaration, scope: !29, entity: !380, line: 153)
!380 = !DISubprogram(name: "realloc", scope: !278, file: !278, line: 479, type: !381, isLocal: false, isDefinition: false, flags: DIFlagPrototyped, isOptimized: true)
!381 = !DISubroutineType(types: !382)
!382 = !{!13, !13, !318}
!383 = !DIImportedEntity(tag: DW_TAG_imported_declaration, scope: !29, entity: !384, line: 154)
!384 = !DISubprogram(name: "srand", scope: !278, file: !278, line: 376, type: !385, isLocal: false, isDefinition: false, flags: DIFlagPrototyped, isOptimized: true)
!385 = !DISubroutineType(types: !386)
!386 = !{null, !387}
!387 = !DIBasicType(name: "unsigned int", size: 32, align: 32, encoding: DW_ATE_unsigned)
!388 = !DIImportedEntity(tag: DW_TAG_imported_declaration, scope: !29, entity: !389, line: 155)
!389 = !DISubprogram(name: "strtod", scope: !278, file: !278, line: 164, type: !390, isLocal: false, isDefinition: false, flags: DIFlagPrototyped, isOptimized: true)
!390 = !DISubroutineType(types: !391)
!391 = !{!171, !366, !392}
!392 = !DIDerivedType(tag: DW_TAG_restrict_type, baseType: !15)
!393 = !DIImportedEntity(tag: DW_TAG_imported_declaration, scope: !29, entity: !394, line: 156)
!394 = !DISubprogram(name: "strtol", scope: !278, file: !278, line: 183, type: !395, isLocal: false, isDefinition: false, flags: DIFlagPrototyped, isOptimized: true)
!395 = !DISubroutineType(types: !396)
!396 = !{!131, !366, !392, !14}
!397 = !DIImportedEntity(tag: DW_TAG_imported_declaration, scope: !29, entity: !398, line: 157)
!398 = !DISubprogram(name: "strtoul", scope: !278, file: !278, line: 187, type: !399, isLocal: false, isDefinition: false, flags: DIFlagPrototyped, isOptimized: true)
!399 = !DISubroutineType(types: !400)
!400 = !{!320, !366, !392, !14}
!401 = !DIImportedEntity(tag: DW_TAG_imported_declaration, scope: !29, entity: !402, line: 158)
!402 = !DISubprogram(name: "system", scope: !278, file: !278, line: 716, type: !304, isLocal: false, isDefinition: false, flags: DIFlagPrototyped, isOptimized: true)
!403 = !DIImportedEntity(tag: DW_TAG_imported_declaration, scope: !29, entity: !404, line: 160)
!404 = !DISubprogram(name: "wcstombs", scope: !278, file: !278, line: 873, type: !405, isLocal: false, isDefinition: false, flags: DIFlagPrototyped, isOptimized: true)
!405 = !DISubroutineType(types: !406)
!406 = !{!318, !407, !408, !318}
!407 = !DIDerivedType(tag: DW_TAG_restrict_type, baseType: !16)
!408 = !DIDerivedType(tag: DW_TAG_restrict_type, baseType: !409)
!409 = !DIDerivedType(tag: DW_TAG_pointer_type, baseType: !410, size: 64, align: 64)
!410 = !DIDerivedType(tag: DW_TAG_const_type, baseType: !365)
!411 = !DIImportedEntity(tag: DW_TAG_imported_declaration, scope: !29, entity: !412, line: 161)
!412 = !DISubprogram(name: "wctomb", scope: !278, file: !278, line: 866, type: !413, isLocal: false, isDefinition: false, flags: DIFlagPrototyped, isOptimized: true)
!413 = !DISubroutineType(types: !414)
!414 = !{!14, !16, !365}
!415 = !DIImportedEntity(tag: DW_TAG_imported_declaration, scope: !416, entity: !418, line: 201)
!416 = !DINamespace(name: "__gnu_cxx", scope: null, file: !417, line: 68)
!417 = !DIFile(filename: "/usr/include/c++/4.8.3/bits/cpp_type_traits.h", directory: "/home/ec2-user/DynamicAnalyis")
!418 = !DIDerivedType(tag: DW_TAG_typedef, name: "lldiv_t", file: !278, line: 121, baseType: !419)
!419 = distinct !DICompositeType(tag: DW_TAG_structure_type, file: !278, line: 117, size: 128, align: 64, elements: !420, identifier: "_ZTS7lldiv_t")
!420 = !{!421, !422}
!421 = !DIDerivedType(tag: DW_TAG_member, name: "quot", scope: !419, file: !278, line: 119, baseType: !34, size: 64, align: 64)
!422 = !DIDerivedType(tag: DW_TAG_member, name: "rem", scope: !419, file: !278, line: 120, baseType: !34, size: 64, align: 64, offset: 64)
!423 = !DIImportedEntity(tag: DW_TAG_imported_declaration, scope: !416, entity: !424, line: 207)
!424 = !DISubprogram(name: "_Exit", scope: !278, file: !278, line: 556, type: !335, isLocal: false, isDefinition: false, flags: DIFlagPrototyped | DIFlagNoReturn, isOptimized: true)
!425 = !DIImportedEntity(tag: DW_TAG_imported_declaration, scope: !416, entity: !426, line: 211)
!426 = !DISubprogram(name: "llabs", scope: !278, file: !278, line: 775, type: !32, isLocal: false, isDefinition: false, flags: DIFlagPrototyped, isOptimized: true)
!427 = !DIImportedEntity(tag: DW_TAG_imported_declaration, scope: !416, entity: !428, line: 217)
!428 = !DISubprogram(name: "lldiv", scope: !278, file: !278, line: 792, type: !429, isLocal: false, isDefinition: false, flags: DIFlagPrototyped, isOptimized: true)
!429 = !DISubroutineType(types: !430)
!430 = !{!418, !34, !34}
!431 = !DIImportedEntity(tag: DW_TAG_imported_declaration, scope: !416, entity: !432, line: 228)
!432 = !DISubprogram(name: "atoll", scope: !278, file: !278, line: 292, type: !433, isLocal: false, isDefinition: false, flags: DIFlagPrototyped, isOptimized: true)
!433 = !DISubroutineType(types: !434)
!434 = !{!34, !172}
!435 = !DIImportedEntity(tag: DW_TAG_imported_declaration, scope: !416, entity: !436, line: 229)
!436 = !DISubprogram(name: "strtoll", scope: !278, file: !278, line: 209, type: !437, isLocal: false, isDefinition: false, flags: DIFlagPrototyped, isOptimized: true)
!437 = !DISubroutineType(types: !438)
!438 = !{!34, !366, !392, !14}
!439 = !DIImportedEntity(tag: DW_TAG_imported_declaration, scope: !416, entity: !440, line: 230)
!440 = !DISubprogram(name: "strtoull", scope: !278, file: !278, line: 214, type: !441, isLocal: false, isDefinition: false, flags: DIFlagPrototyped, isOptimized: true)
!441 = !DISubroutineType(types: !442)
!442 = !{!443, !366, !392, !14}
!443 = !DIBasicType(name: "long long unsigned int", size: 64, align: 64, encoding: DW_ATE_unsigned)
!444 = !DIImportedEntity(tag: DW_TAG_imported_declaration, scope: !416, entity: !445, line: 232)
!445 = !DISubprogram(name: "strtof", scope: !278, file: !278, line: 172, type: !446, isLocal: false, isDefinition: false, flags: DIFlagPrototyped, isOptimized: true)
!446 = !DISubroutineType(types: !447)
!447 = !{!39, !366, !392}
!448 = !DIImportedEntity(tag: DW_TAG_imported_declaration, scope: !416, entity: !449, line: 233)
!449 = !DISubprogram(name: "strtold", scope: !278, file: !278, line: 175, type: !450, isLocal: false, isDefinition: false, flags: DIFlagPrototyped, isOptimized: true)
!450 = !DISubroutineType(types: !451)
!451 = !{!452, !366, !392}
!452 = !DIBasicType(name: "long double", size: 128, align: 128, encoding: DW_ATE_float)
!453 = !DIImportedEntity(tag: DW_TAG_imported_declaration, scope: !29, entity: !418, line: 241)
!454 = !DIImportedEntity(tag: DW_TAG_imported_declaration, scope: !29, entity: !424, line: 243)
!455 = !DIImportedEntity(tag: DW_TAG_imported_declaration, scope: !29, entity: !426, line: 245)
!456 = !DIImportedEntity(tag: DW_TAG_imported_declaration, scope: !29, entity: !457, line: 246)
!457 = !DISubprogram(name: "div", linkageName: "_ZN9__gnu_cxx3divExx", scope: !416, file: !458, line: 214, type: !429, isLocal: false, isDefinition: false, flags: DIFlagPrototyped, isOptimized: true)
!458 = !DIFile(filename: "/usr/include/c++/4.8.3/cstdlib", directory: "/home/ec2-user/DynamicAnalyis")
!459 = !DIImportedEntity(tag: DW_TAG_imported_declaration, scope: !29, entity: !428, line: 247)
!460 = !DIImportedEntity(tag: DW_TAG_imported_declaration, scope: !29, entity: !432, line: 249)
!461 = !DIImportedEntity(tag: DW_TAG_imported_declaration, scope: !29, entity: !445, line: 250)
!462 = !DIImportedEntity(tag: DW_TAG_imported_declaration, scope: !29, entity: !436, line: 251)
!463 = !DIImportedEntity(tag: DW_TAG_imported_declaration, scope: !29, entity: !440, line: 252)
!464 = !DIImportedEntity(tag: DW_TAG_imported_declaration, scope: !29, entity: !449, line: 253)
!465 = !DIImportedEntity(tag: DW_TAG_imported_declaration, scope: !29, entity: !466, line: 366)
!466 = !DISubprogram(name: "acosf", linkageName: "_ZL5acosff", scope: !467, file: !467, line: 1300, type: !37, isLocal: true, isDefinition: false, flags: DIFlagPrototyped, isOptimized: true)
!467 = !DIFile(filename: "/usr/local/cuda/include/math_functions.hpp", directory: "/home/ec2-user/DynamicAnalyis")
!468 = !DIImportedEntity(tag: DW_TAG_imported_declaration, scope: !29, entity: !469, line: 367)
!469 = !DISubprogram(name: "acoshf", linkageName: "_ZL6acoshff", scope: !467, file: !467, line: 1328, type: !37, isLocal: true, isDefinition: false, flags: DIFlagPrototyped, isOptimized: true)
!470 = !DIImportedEntity(tag: DW_TAG_imported_declaration, scope: !29, entity: !471, line: 368)
!471 = !DISubprogram(name: "asinf", linkageName: "_ZL5asinff", scope: !467, file: !467, line: 1295, type: !37, isLocal: true, isDefinition: false, flags: DIFlagPrototyped, isOptimized: true)
!472 = !DIImportedEntity(tag: DW_TAG_imported_declaration, scope: !29, entity: !473, line: 369)
!473 = !DISubprogram(name: "asinhf", linkageName: "_ZL6asinhff", scope: !467, file: !467, line: 1333, type: !37, isLocal: true, isDefinition: false, flags: DIFlagPrototyped, isOptimized: true)
!474 = !DIImportedEntity(tag: DW_TAG_imported_declaration, scope: !29, entity: !475, line: 370)
!475 = !DISubprogram(name: "atan2f", linkageName: "_ZL6atan2fff", scope: !467, file: !467, line: 1285, type: !50, isLocal: true, isDefinition: false, flags: DIFlagPrototyped, isOptimized: true)
!476 = !DIImportedEntity(tag: DW_TAG_imported_declaration, scope: !29, entity: !477, line: 371)
!477 = !DISubprogram(name: "atanf", linkageName: "_ZL5atanff", scope: !467, file: !467, line: 1290, type: !37, isLocal: true, isDefinition: false, flags: DIFlagPrototyped, isOptimized: true)
!478 = !DIImportedEntity(tag: DW_TAG_imported_declaration, scope: !29, entity: !479, line: 372)
!479 = !DISubprogram(name: "atanhf", linkageName: "_ZL6atanhff", scope: !467, file: !467, line: 1338, type: !37, isLocal: true, isDefinition: false, flags: DIFlagPrototyped, isOptimized: true)
!480 = !DIImportedEntity(tag: DW_TAG_imported_declaration, scope: !29, entity: !481, line: 373)
!481 = !DISubprogram(name: "cbrtf", linkageName: "_ZL5cbrtff", scope: !467, file: !467, line: 1388, type: !37, isLocal: true, isDefinition: false, flags: DIFlagPrototyped, isOptimized: true)
!482 = !DIImportedEntity(tag: DW_TAG_imported_declaration, scope: !29, entity: !483, line: 374)
!483 = !DISubprogram(name: "ceilf", linkageName: "_ZL5ceilff", scope: !484, file: !484, line: 667, type: !37, isLocal: true, isDefinition: false, flags: DIFlagPrototyped, isOptimized: true)
!484 = !DIFile(filename: "/usr/local/cuda/include/device_functions.hpp", directory: "/home/ec2-user/DynamicAnalyis")
!485 = !DIImportedEntity(tag: DW_TAG_imported_declaration, scope: !29, entity: !486, line: 375)
!486 = !DISubprogram(name: "copysignf", linkageName: "_ZL9copysignfff", scope: !467, file: !467, line: 1147, type: !50, isLocal: true, isDefinition: false, flags: DIFlagPrototyped, isOptimized: true)
!487 = !DIImportedEntity(tag: DW_TAG_imported_declaration, scope: !29, entity: !488, line: 376)
!488 = !DISubprogram(name: "cosf", linkageName: "_ZL4cosff", scope: !467, file: !467, line: 1201, type: !37, isLocal: true, isDefinition: false, flags: DIFlagPrototyped, isOptimized: true)
!489 = !DIImportedEntity(tag: DW_TAG_imported_declaration, scope: !29, entity: !490, line: 377)
!490 = !DISubprogram(name: "coshf", linkageName: "_ZL5coshff", scope: !467, file: !467, line: 1270, type: !37, isLocal: true, isDefinition: false, flags: DIFlagPrototyped, isOptimized: true)
!491 = !DIImportedEntity(tag: DW_TAG_imported_declaration, scope: !29, entity: !492, line: 378)
!492 = !DISubprogram(name: "erfcf", linkageName: "_ZL5erfcff", scope: !467, file: !467, line: 1448, type: !37, isLocal: true, isDefinition: false, flags: DIFlagPrototyped, isOptimized: true)
!493 = !DIImportedEntity(tag: DW_TAG_imported_declaration, scope: !29, entity: !494, line: 379)
!494 = !DISubprogram(name: "erff", linkageName: "_ZL4erfff", scope: !467, file: !467, line: 1438, type: !37, isLocal: true, isDefinition: false, flags: DIFlagPrototyped, isOptimized: true)
!495 = !DIImportedEntity(tag: DW_TAG_imported_declaration, scope: !29, entity: !496, line: 380)
!496 = !DISubprogram(name: "exp2f", linkageName: "_ZL5exp2ff", scope: !484, file: !484, line: 657, type: !37, isLocal: true, isDefinition: false, flags: DIFlagPrototyped, isOptimized: true)
!497 = !DIImportedEntity(tag: DW_TAG_imported_declaration, scope: !29, entity: !498, line: 381)
!498 = !DISubprogram(name: "expf", linkageName: "_ZL4expff", scope: !467, file: !467, line: 1252, type: !37, isLocal: true, isDefinition: false, flags: DIFlagPrototyped, isOptimized: true)
!499 = !DIImportedEntity(tag: DW_TAG_imported_declaration, scope: !29, entity: !500, line: 382)
!500 = !DISubprogram(name: "expm1f", linkageName: "_ZL6expm1ff", scope: !467, file: !467, line: 1343, type: !37, isLocal: true, isDefinition: false, flags: DIFlagPrototyped, isOptimized: true)
!501 = !DIImportedEntity(tag: DW_TAG_imported_declaration, scope: !29, entity: !502, line: 383)
!502 = !DISubprogram(name: "fabsf", linkageName: "_ZL5fabsff", scope: !484, file: !484, line: 607, type: !37, isLocal: true, isDefinition: false, flags: DIFlagPrototyped, isOptimized: true)
!503 = !DIImportedEntity(tag: DW_TAG_imported_declaration, scope: !29, entity: !504, line: 384)
!504 = !DISubprogram(name: "fdimf", linkageName: "_ZL5fdimfff", scope: !467, file: !467, line: 1574, type: !50, isLocal: true, isDefinition: false, flags: DIFlagPrototyped, isOptimized: true)
!505 = !DIImportedEntity(tag: DW_TAG_imported_declaration, scope: !29, entity: !506, line: 385)
!506 = !DISubprogram(name: "floorf", linkageName: "_ZL6floorff", scope: !484, file: !484, line: 597, type: !37, isLocal: true, isDefinition: false, flags: DIFlagPrototyped, isOptimized: true)
!507 = !DIImportedEntity(tag: DW_TAG_imported_declaration, scope: !29, entity: !508, line: 386)
!508 = !DISubprogram(name: "fmaf", linkageName: "_ZL4fmaffff", scope: !467, file: !467, line: 1526, type: !82, isLocal: true, isDefinition: false, flags: DIFlagPrototyped, isOptimized: true)
!509 = !DIImportedEntity(tag: DW_TAG_imported_declaration, scope: !29, entity: !510, line: 387)
!510 = !DISubprogram(name: "fmaxf", linkageName: "_ZL5fmaxfff", scope: !484, file: !484, line: 622, type: !50, isLocal: true, isDefinition: false, flags: DIFlagPrototyped, isOptimized: true)
!511 = !DIImportedEntity(tag: DW_TAG_imported_declaration, scope: !29, entity: !512, line: 388)
!512 = !DISubprogram(name: "fminf", linkageName: "_ZL5fminfff", scope: !484, file: !484, line: 617, type: !50, isLocal: true, isDefinition: false, flags: DIFlagPrototyped, isOptimized: true)
!513 = !DIImportedEntity(tag: DW_TAG_imported_declaration, scope: !29, entity: !514, line: 389)
!514 = !DISubprogram(name: "fmodf", linkageName: "_ZL5fmodfff", scope: !467, file: !467, line: 1511, type: !50, isLocal: true, isDefinition: false, flags: DIFlagPrototyped, isOptimized: true)
!515 = !DIImportedEntity(tag: DW_TAG_imported_declaration, scope: !29, entity: !516, line: 390)
!516 = !DISubprogram(name: "frexpf", linkageName: "_ZL6frexpffPi", scope: !467, file: !467, line: 1501, type: !96, isLocal: true, isDefinition: false, flags: DIFlagPrototyped, isOptimized: true)
!517 = !DIImportedEntity(tag: DW_TAG_imported_declaration, scope: !29, entity: !518, line: 391)
!518 = !DISubprogram(name: "hypotf", linkageName: "_ZL6hypotfff", scope: !467, file: !467, line: 1348, type: !50, isLocal: true, isDefinition: false, flags: DIFlagPrototyped, isOptimized: true)
!519 = !DIImportedEntity(tag: DW_TAG_imported_declaration, scope: !29, entity: !520, line: 392)
!520 = !DISubprogram(name: "ilogbf", linkageName: "_ZL6ilogbff", scope: !467, file: !467, line: 1579, type: !92, isLocal: true, isDefinition: false, flags: DIFlagPrototyped, isOptimized: true)
!521 = !DIImportedEntity(tag: DW_TAG_imported_declaration, scope: !29, entity: !522, line: 393)
!522 = !DISubprogram(name: "ldexpf", linkageName: "_ZL6ldexpffi", scope: !467, file: !467, line: 1478, type: !134, isLocal: true, isDefinition: false, flags: DIFlagPrototyped, isOptimized: true)
!523 = !DIImportedEntity(tag: DW_TAG_imported_declaration, scope: !29, entity: !524, line: 394)
!524 = !DISubprogram(name: "lgammaf", linkageName: "_ZL7lgammaff", scope: !467, file: !467, line: 1473, type: !37, isLocal: true, isDefinition: false, flags: DIFlagPrototyped, isOptimized: true)
!525 = !DIImportedEntity(tag: DW_TAG_imported_declaration, scope: !29, entity: !526, line: 395)
!526 = !DISubprogram(name: "llrintf", linkageName: "_ZL7llrintff", scope: !467, file: !467, line: 1107, type: !142, isLocal: true, isDefinition: false, flags: DIFlagPrototyped, isOptimized: true)
!527 = !DIImportedEntity(tag: DW_TAG_imported_declaration, scope: !29, entity: !528, line: 396)
!528 = !DISubprogram(name: "llroundf", linkageName: "_ZL8llroundff", scope: !467, file: !467, line: 1560, type: !142, isLocal: true, isDefinition: false, flags: DIFlagPrototyped, isOptimized: true)
!529 = !DIImportedEntity(tag: DW_TAG_imported_declaration, scope: !29, entity: !530, line: 397)
!530 = !DISubprogram(name: "log10f", linkageName: "_ZL6log10ff", scope: !467, file: !467, line: 1314, type: !37, isLocal: true, isDefinition: false, flags: DIFlagPrototyped, isOptimized: true)
!531 = !DIImportedEntity(tag: DW_TAG_imported_declaration, scope: !29, entity: !532, line: 398)
!532 = !DISubprogram(name: "log1pf", linkageName: "_ZL6log1pff", scope: !467, file: !467, line: 1323, type: !37, isLocal: true, isDefinition: false, flags: DIFlagPrototyped, isOptimized: true)
!533 = !DIImportedEntity(tag: DW_TAG_imported_declaration, scope: !29, entity: !534, line: 399)
!534 = !DISubprogram(name: "log2f", linkageName: "_ZL5log2ff", scope: !467, file: !467, line: 1243, type: !37, isLocal: true, isDefinition: false, flags: DIFlagPrototyped, isOptimized: true)
!535 = !DIImportedEntity(tag: DW_TAG_imported_declaration, scope: !29, entity: !536, line: 400)
!536 = !DISubprogram(name: "logbf", linkageName: "_ZL5logbff", scope: !467, file: !467, line: 1584, type: !37, isLocal: true, isDefinition: false, flags: DIFlagPrototyped, isOptimized: true)
!537 = !DIImportedEntity(tag: DW_TAG_imported_declaration, scope: !29, entity: !538, line: 401)
!538 = !DISubprogram(name: "logf", linkageName: "_ZL4logff", scope: !467, file: !467, line: 1305, type: !37, isLocal: true, isDefinition: false, flags: DIFlagPrototyped, isOptimized: true)
!539 = !DIImportedEntity(tag: DW_TAG_imported_declaration, scope: !29, entity: !540, line: 402)
!540 = !DISubprogram(name: "lrintf", linkageName: "_ZL6lrintff", scope: !467, file: !467, line: 1098, type: !156, isLocal: true, isDefinition: false, flags: DIFlagPrototyped, isOptimized: true)
!541 = !DIImportedEntity(tag: DW_TAG_imported_declaration, scope: !29, entity: !542, line: 403)
!542 = !DISubprogram(name: "lroundf", linkageName: "_ZL7lroundff", scope: !467, file: !467, line: 1565, type: !156, isLocal: true, isDefinition: false, flags: DIFlagPrototyped, isOptimized: true)
!543 = !DIImportedEntity(tag: DW_TAG_imported_declaration, scope: !29, entity: !544, line: 404)
!544 = !DISubprogram(name: "modff", linkageName: "_ZL5modfffPf", scope: !467, file: !467, line: 1506, type: !164, isLocal: true, isDefinition: false, flags: DIFlagPrototyped, isOptimized: true)
!545 = !DIImportedEntity(tag: DW_TAG_imported_declaration, scope: !29, entity: !546, line: 405)
!546 = !DISubprogram(name: "nearbyintf", linkageName: "_ZL10nearbyintff", scope: !467, file: !467, line: 1112, type: !37, isLocal: true, isDefinition: false, flags: DIFlagPrototyped, isOptimized: true)
!547 = !DIImportedEntity(tag: DW_TAG_imported_declaration, scope: !29, entity: !548, line: 406)
!548 = !DISubprogram(name: "nextafterf", linkageName: "_ZL10nextafterfff", scope: !467, file: !467, line: 1176, type: !50, isLocal: true, isDefinition: false, flags: DIFlagPrototyped, isOptimized: true)
!549 = !DIImportedEntity(tag: DW_TAG_imported_declaration, scope: !29, entity: !550, line: 407)
!550 = !DISubprogram(name: "nexttowardf", scope: !222, file: !222, line: 285, type: !551, isLocal: false, isDefinition: false, flags: DIFlagPrototyped, isOptimized: true)
!551 = !DISubroutineType(types: !552)
!552 = !{!39, !39, !452}
!553 = !DIImportedEntity(tag: DW_TAG_imported_declaration, scope: !29, entity: !550, line: 408)
!554 = !DIImportedEntity(tag: DW_TAG_imported_declaration, scope: !29, entity: !555, line: 409)
!555 = !DISubprogram(name: "powf", linkageName: "_ZL4powfff", scope: !467, file: !467, line: 1541, type: !50, isLocal: true, isDefinition: false, flags: DIFlagPrototyped, isOptimized: true)
!556 = !DIImportedEntity(tag: DW_TAG_imported_declaration, scope: !29, entity: !557, line: 410)
!557 = !DISubprogram(name: "remainderf", linkageName: "_ZL10remainderfff", scope: !467, file: !467, line: 1516, type: !50, isLocal: true, isDefinition: false, flags: DIFlagPrototyped, isOptimized: true)
!558 = !DIImportedEntity(tag: DW_TAG_imported_declaration, scope: !29, entity: !559, line: 411)
!559 = !DISubprogram(name: "remquof", linkageName: "_ZL7remquofffPi", scope: !467, file: !467, line: 1521, type: !192, isLocal: true, isDefinition: false, flags: DIFlagPrototyped, isOptimized: true)
!560 = !DIImportedEntity(tag: DW_TAG_imported_declaration, scope: !29, entity: !561, line: 412)
!561 = !DISubprogram(name: "rintf", linkageName: "_ZL5rintff", scope: !467, file: !467, line: 1093, type: !37, isLocal: true, isDefinition: false, flags: DIFlagPrototyped, isOptimized: true)
!562 = !DIImportedEntity(tag: DW_TAG_imported_declaration, scope: !29, entity: !563, line: 413)
!563 = !DISubprogram(name: "roundf", linkageName: "_ZL6roundff", scope: !467, file: !467, line: 1555, type: !37, isLocal: true, isDefinition: false, flags: DIFlagPrototyped, isOptimized: true)
!564 = !DIImportedEntity(tag: DW_TAG_imported_declaration, scope: !29, entity: !565, line: 414)
!565 = !DISubprogram(name: "scalblnf", linkageName: "_ZL8scalblnffl", scope: !467, file: !467, line: 1488, type: !200, isLocal: true, isDefinition: false, flags: DIFlagPrototyped, isOptimized: true)
!566 = !DIImportedEntity(tag: DW_TAG_imported_declaration, scope: !29, entity: !567, line: 415)
!567 = !DISubprogram(name: "scalbnf", linkageName: "_ZL7scalbnffi", scope: !467, file: !467, line: 1483, type: !134, isLocal: true, isDefinition: false, flags: DIFlagPrototyped, isOptimized: true)
!568 = !DIImportedEntity(tag: DW_TAG_imported_declaration, scope: !29, entity: !569, line: 416)
!569 = !DISubprogram(name: "sinf", linkageName: "_ZL4sinff", scope: !467, file: !467, line: 1192, type: !37, isLocal: true, isDefinition: false, flags: DIFlagPrototyped, isOptimized: true)
!570 = !DIImportedEntity(tag: DW_TAG_imported_declaration, scope: !29, entity: !571, line: 417)
!571 = !DISubprogram(name: "sinhf", linkageName: "_ZL5sinhff", scope: !467, file: !467, line: 1275, type: !37, isLocal: true, isDefinition: false, flags: DIFlagPrototyped, isOptimized: true)
!572 = !DIImportedEntity(tag: DW_TAG_imported_declaration, scope: !29, entity: !573, line: 418)
!573 = !DISubprogram(name: "sqrtf", linkageName: "_ZL5sqrtff", scope: !484, file: !484, line: 907, type: !37, isLocal: true, isDefinition: false, flags: DIFlagPrototyped, isOptimized: true)
!574 = !DIImportedEntity(tag: DW_TAG_imported_declaration, scope: !29, entity: !575, line: 419)
!575 = !DISubprogram(name: "tanf", linkageName: "_ZL4tanff", scope: !467, file: !467, line: 1234, type: !37, isLocal: true, isDefinition: false, flags: DIFlagPrototyped, isOptimized: true)
!576 = !DIImportedEntity(tag: DW_TAG_imported_declaration, scope: !29, entity: !577, line: 420)
!577 = !DISubprogram(name: "tanhf", linkageName: "_ZL5tanhff", scope: !467, file: !467, line: 1280, type: !37, isLocal: true, isDefinition: false, flags: DIFlagPrototyped, isOptimized: true)
!578 = !DIImportedEntity(tag: DW_TAG_imported_declaration, scope: !29, entity: !579, line: 421)
!579 = !DISubprogram(name: "tgammaf", linkageName: "_ZL7tgammaff", scope: !467, file: !467, line: 1550, type: !37, isLocal: true, isDefinition: false, flags: DIFlagPrototyped, isOptimized: true)
!580 = !DIImportedEntity(tag: DW_TAG_imported_declaration, scope: !29, entity: !581, line: 422)
!581 = !DISubprogram(name: "truncf", linkageName: "_ZL6truncff", scope: !484, file: !484, line: 662, type: !37, isLocal: true, isDefinition: false, flags: DIFlagPrototyped, isOptimized: true)
!582 = !{i32 2, !"Dwarf Version", i32 4}
!583 = !{i32 2, !"Debug Info Version", i32 3}
!584 = !{!"clang version 4.0.0 (trunk 279478) (llvm/trunk 279476)"}
!585 = distinct !DISubprogram(name: "init", linkageName: "_Z4initiPPc", scope: !1, file: !1, line: 25, type: !586, isLocal: false, isDefinition: true, scopeLine: 26, flags: DIFlagPrototyped, isOptimized: true, unit: !0, variables: !588)
!586 = !DISubroutineType(types: !587)
!587 = !{null, !14, !15}
!588 = !{!589, !590, !591, !593, !594, !596, !600, !602}
!589 = !DILocalVariable(name: "argc", arg: 1, scope: !585, file: !1, line: 25, type: !14)
!590 = !DILocalVariable(name: "argv", arg: 2, scope: !585, file: !1, line: 25, type: !15)
!591 = !DILocalVariable(name: "n", scope: !592, file: !1, line: 37, type: !14)
!592 = distinct !DILexicalBlock(scope: !585, file: !1, line: 37, column: 3)
!593 = !DILocalVariable(name: "seed", scope: !585, file: !1, line: 41, type: !14)
!594 = !DILocalVariable(name: "i", scope: !595, file: !1, line: 44, type: !14)
!595 = distinct !DILexicalBlock(scope: !585, file: !1, line: 44, column: 3)
!596 = !DILocalVariable(name: "j", scope: !597, file: !1, line: 46, type: !14)
!597 = distinct !DILexicalBlock(scope: !598, file: !1, line: 46, column: 7)
!598 = distinct !DILexicalBlock(scope: !599, file: !1, line: 45, column: 5)
!599 = distinct !DILexicalBlock(scope: !595, file: !1, line: 44, column: 3)
!600 = !DILocalVariable(name: "i", scope: !601, file: !1, line: 52, type: !14)
!601 = distinct !DILexicalBlock(scope: !585, file: !1, line: 52, column: 3)
!602 = !DILocalVariable(name: "j", scope: !603, file: !1, line: 54, type: !14)
!603 = distinct !DILexicalBlock(scope: !604, file: !1, line: 54, column: 7)
!604 = distinct !DILexicalBlock(scope: !605, file: !1, line: 53, column: 5)
!605 = distinct !DILexicalBlock(scope: !601, file: !1, line: 52, column: 3)
!606 = !DIExpression()
!607 = !DILocation(line: 25, column: 10, scope: !585)
!608 = !DILocation(line: 25, column: 23, scope: !585)
!609 = !DILocation(line: 27, column: 10, scope: !610)
!610 = distinct !DILexicalBlock(scope: !585, file: !1, line: 27, column: 6)
!611 = !DILocation(line: 27, column: 6, scope: !585)
!612 = !DILocation(line: 28, column: 17, scope: !613)
!613 = distinct !DILexicalBlock(scope: !610, file: !1, line: 27, column: 14)
!614 = !{!615, !615, i64 0}
!615 = !{!"any pointer", !616, i64 0}
!616 = !{!"omnipotent char", !617, i64 0}
!617 = !{!"Simple C++ TBAA"}
!618 = !DILocation(line: 278, column: 1, scope: !303, inlinedAt: !619)
!619 = distinct !DILocation(line: 28, column: 12, scope: !613)
!620 = !DILocation(line: 280, column: 16, scope: !303, inlinedAt: !619)
!621 = !DILocation(line: 28, column: 10, scope: !613)
!622 = !{!623, !623, i64 0}
!623 = !{!"int", !616, i64 0}
!624 = !DILocation(line: 29, column: 17, scope: !613)
!625 = !DILocation(line: 278, column: 1, scope: !303, inlinedAt: !626)
!626 = distinct !DILocation(line: 29, column: 12, scope: !613)
!627 = !DILocation(line: 280, column: 16, scope: !303, inlinedAt: !626)
!628 = !DILocation(line: 29, column: 10, scope: !613)
!629 = !DILocation(line: 30, column: 25, scope: !613)
!630 = !DILocation(line: 278, column: 1, scope: !303, inlinedAt: !631)
!631 = distinct !DILocation(line: 30, column: 20, scope: !613)
!632 = !DILocation(line: 280, column: 16, scope: !303, inlinedAt: !631)
!633 = !DILocation(line: 30, column: 19, scope: !613)
!634 = !DILocation(line: 35, column: 23, scope: !585)
!635 = !DILocation(line: 35, column: 22, scope: !585)
!636 = !DILocation(line: 35, column: 10, scope: !585)
!637 = !DILocation(line: 35, column: 8, scope: !585)
!638 = !DILocation(line: 36, column: 19, scope: !585)
!639 = !DILocation(line: 36, column: 10, scope: !585)
!640 = !DILocation(line: 36, column: 8, scope: !585)
!641 = !DILocation(line: 37, column: 11, scope: !592)
!642 = !DILocation(line: 37, column: 17, scope: !643)
!643 = !DILexicalBlockFile(scope: !644, file: !1, discriminator: 1)
!644 = distinct !DILexicalBlock(scope: !592, file: !1, line: 37, column: 3)
!645 = !DILocation(line: 38, column: 13, scope: !644)
!646 = !DILocation(line: 37, column: 3, scope: !643)
!647 = !DILocation(line: 38, column: 12, scope: !644)
!648 = distinct !{!648, !649}
!649 = !DILocation(line: 37, column: 3, scope: !585)
!650 = !DILocation(line: 38, column: 5, scope: !644)
!651 = !DILocation(line: 38, column: 22, scope: !644)
!652 = !DILocation(line: 38, column: 17, scope: !644)
!653 = distinct !{!653, !654}
!654 = !{!"llvm.loop.unroll.disable"}
!655 = !DILocation(line: 32, column: 5, scope: !656)
!656 = distinct !DILexicalBlock(scope: !610, file: !1, line: 31, column: 8)
!657 = !DILocation(line: 33, column: 5, scope: !656)
!658 = !DILocation(line: 39, column: 12, scope: !585)
!659 = !DILocation(line: 39, column: 10, scope: !585)
!660 = !DILocation(line: 41, column: 7, scope: !585)
!661 = !DILocation(line: 42, column: 3, scope: !585)
!662 = !DILocation(line: 44, column: 12, scope: !595)
!663 = !DILocation(line: 44, column: 23, scope: !664)
!664 = !DILexicalBlockFile(scope: !599, file: !1, discriminator: 1)
!665 = !DILocation(line: 44, column: 21, scope: !664)
!666 = !DILocation(line: 44, column: 3, scope: !664)
!667 = !DILocation(line: 46, column: 27, scope: !668)
!668 = !DILexicalBlockFile(scope: !669, file: !1, discriminator: 1)
!669 = distinct !DILexicalBlock(scope: !597, file: !1, line: 46, column: 7)
!670 = !DILocation(line: 46, column: 16, scope: !597)
!671 = !DILocation(line: 46, column: 25, scope: !668)
!672 = !DILocation(line: 46, column: 7, scope: !668)
!673 = !DILocation(line: 48, column: 24, scope: !674)
!674 = distinct !DILexicalBlock(scope: !669, file: !1, line: 47, column: 9)
!675 = !DILocation(line: 52, column: 12, scope: !601)
!676 = !DILocation(line: 52, column: 21, scope: !677)
!677 = !DILexicalBlockFile(scope: !605, file: !1, discriminator: 1)
!678 = !DILocation(line: 52, column: 3, scope: !677)
!679 = !DILocation(line: 54, column: 16, scope: !603)
!680 = !DILocation(line: 44, column: 30, scope: !681)
!681 = !DILexicalBlockFile(scope: !599, file: !1, discriminator: 3)
!682 = distinct !{!682, !683}
!683 = !DILocation(line: 44, column: 3, scope: !585)
!684 = !DILocation(line: 48, column: 31, scope: !674)
!685 = !DILocation(line: 48, column: 11, scope: !674)
!686 = !DILocation(line: 48, column: 22, scope: !674)
!687 = distinct !{!687, !688}
!688 = !DILocation(line: 46, column: 7, scope: !598)
!689 = !DILocation(line: 54, column: 27, scope: !690)
!690 = !DILexicalBlockFile(scope: !691, file: !1, discriminator: 1)
!691 = distinct !DILexicalBlock(scope: !603, file: !1, line: 54, column: 7)
!692 = !DILocation(line: 54, column: 25, scope: !690)
!693 = !DILocation(line: 54, column: 7, scope: !690)
!694 = !DILocation(line: 56, column: 24, scope: !695)
!695 = distinct !DILexicalBlock(scope: !691, file: !1, line: 55, column: 9)
!696 = !DILocation(line: 61, column: 1, scope: !585)
!697 = !DILocation(line: 58, column: 7, scope: !604)
!698 = !DILocation(line: 52, column: 23, scope: !677)
!699 = distinct !{!699, !700}
!700 = !DILocation(line: 52, column: 3, scope: !585)
!701 = !DILocation(line: 56, column: 11, scope: !695)
!702 = distinct !{!702, !703}
!703 = !DILocation(line: 54, column: 7, scope: !604)
!704 = distinct !DISubprogram(name: "fatal", linkageName: "_Z5fatalPc", scope: !1, file: !1, line: 64, type: !705, isLocal: false, isDefinition: true, scopeLine: 65, flags: DIFlagPrototyped, isOptimized: true, unit: !0, variables: !707)
!705 = !DISubroutineType(types: !706)
!706 = !{null, !16}
!707 = !{!708}
!708 = !DILocalVariable(name: "s", arg: 1, scope: !704, file: !1, line: 64, type: !16)
!709 = !DILocation(line: 64, column: 13, scope: !704)
!710 = !DILocation(line: 66, column: 11, scope: !704)
!711 = !DILocation(line: 66, column: 3, scope: !704)
!712 = !DILocation(line: 68, column: 1, scope: !704)
!713 = distinct !DISubprogram(name: "dynproc_kernel", linkageName: "_Z14dynproc_kerneliPiS_S_iiii", scope: !1, file: !1, line: 74, type: !714, isLocal: false, isDefinition: true, scopeLine: 83, flags: DIFlagPrototyped, isOptimized: true, unit: !0, variables: !716)
!714 = !DISubroutineType(types: !715)
!715 = !{null, !14, !22, !22, !22, !14, !14, !14, !14}
!716 = !{!717, !718, !719, !720, !721, !722, !723, !724}
!717 = !DILocalVariable(name: "iteration", arg: 1, scope: !713, file: !1, line: 75, type: !14)
!718 = !DILocalVariable(name: "gpuWall", arg: 2, scope: !713, file: !1, line: 76, type: !22)
!719 = !DILocalVariable(name: "gpuSrc", arg: 3, scope: !713, file: !1, line: 77, type: !22)
!720 = !DILocalVariable(name: "gpuResults", arg: 4, scope: !713, file: !1, line: 78, type: !22)
!721 = !DILocalVariable(name: "cols", arg: 5, scope: !713, file: !1, line: 79, type: !14)
!722 = !DILocalVariable(name: "rows", arg: 6, scope: !713, file: !1, line: 80, type: !14)
!723 = !DILocalVariable(name: "startStep", arg: 7, scope: !713, file: !1, line: 81, type: !14)
!724 = !DILocalVariable(name: "border", arg: 8, scope: !713, file: !1, line: 82, type: !14)
!725 = !DILocation(line: 75, column: 36, scope: !713)
!726 = !DILocation(line: 76, column: 37, scope: !713)
!727 = !DILocation(line: 77, column: 37, scope: !713)
!728 = !DILocation(line: 78, column: 37, scope: !713)
!729 = !DILocation(line: 79, column: 36, scope: !713)
!730 = !DILocation(line: 80, column: 36, scope: !713)
!731 = !DILocation(line: 81, column: 36, scope: !713)
!732 = !DILocation(line: 82, column: 36, scope: !713)
!733 = !DILocation(line: 83, column: 1, scope: !713)
!734 = !DILocation(line: 83, column: 1, scope: !735)
!735 = !DILexicalBlockFile(scope: !713, file: !1, discriminator: 1)
!736 = !DILocation(line: 83, column: 1, scope: !737)
!737 = !DILexicalBlockFile(scope: !713, file: !1, discriminator: 2)
!738 = !DILocation(line: 83, column: 1, scope: !739)
!739 = !DILexicalBlockFile(scope: !713, file: !1, discriminator: 3)
!740 = !DILocation(line: 83, column: 1, scope: !741)
!741 = !DILexicalBlockFile(scope: !713, file: !1, discriminator: 4)
!742 = !DILocation(line: 83, column: 1, scope: !743)
!743 = !DILexicalBlockFile(scope: !713, file: !1, discriminator: 5)
!744 = !DILocation(line: 83, column: 1, scope: !745)
!745 = !DILexicalBlockFile(scope: !713, file: !1, discriminator: 6)
!746 = !DILocation(line: 83, column: 1, scope: !747)
!747 = !DILexicalBlockFile(scope: !713, file: !1, discriminator: 7)
!748 = !DILocation(line: 83, column: 1, scope: !749)
!749 = !DILexicalBlockFile(scope: !713, file: !1, discriminator: 8)
!750 = !DILocation(line: 154, column: 1, scope: !713)
!751 = distinct !DISubprogram(name: "calc_path", linkageName: "_Z9calc_pathPiPS_iiiii", scope: !1, file: !1, line: 159, type: !752, isLocal: false, isDefinition: true, scopeLine: 161, flags: DIFlagPrototyped, isOptimized: true, unit: !0, variables: !754)
!752 = !DISubroutineType(types: !753)
!753 = !{!14, !22, !24, !14, !14, !14, !14, !14}
!754 = !{!755, !756, !757, !758, !759, !760, !761, !762, !786, !787, !788, !789, !791}
!755 = !DILocalVariable(name: "gpuWall", arg: 1, scope: !751, file: !1, line: 159, type: !22)
!756 = !DILocalVariable(name: "gpuResult", arg: 2, scope: !751, file: !1, line: 159, type: !24)
!757 = !DILocalVariable(name: "rows", arg: 3, scope: !751, file: !1, line: 159, type: !14)
!758 = !DILocalVariable(name: "cols", arg: 4, scope: !751, file: !1, line: 159, type: !14)
!759 = !DILocalVariable(name: "pyramid_height", arg: 5, scope: !751, file: !1, line: 160, type: !14)
!760 = !DILocalVariable(name: "blockCols", arg: 6, scope: !751, file: !1, line: 160, type: !14)
!761 = !DILocalVariable(name: "borderCols", arg: 7, scope: !751, file: !1, line: 160, type: !14)
!762 = !DILocalVariable(name: "dimBlock", scope: !751, file: !1, line: 162, type: !763)
!763 = !DIDerivedType(tag: DW_TAG_typedef, name: "dim3", file: !764, line: 427, baseType: !765)
!764 = !DIFile(filename: "/usr/local/cuda/include/vector_types.h", directory: "/home/ec2-user/DynamicAnalyis")
!765 = distinct !DICompositeType(tag: DW_TAG_structure_type, name: "dim3", file: !764, line: 417, size: 96, align: 32, elements: !766, identifier: "_ZTS4dim3")
!766 = !{!767, !768, !769, !770, !774, !783}
!767 = !DIDerivedType(tag: DW_TAG_member, name: "x", scope: !765, file: !764, line: 419, baseType: !387, size: 32, align: 32)
!768 = !DIDerivedType(tag: DW_TAG_member, name: "y", scope: !765, file: !764, line: 419, baseType: !387, size: 32, align: 32, offset: 32)
!769 = !DIDerivedType(tag: DW_TAG_member, name: "z", scope: !765, file: !764, line: 419, baseType: !387, size: 32, align: 32, offset: 64)
!770 = !DISubprogram(name: "dim3", scope: !765, file: !764, line: 421, type: !771, isLocal: false, isDefinition: false, scopeLine: 421, flags: DIFlagPrototyped, isOptimized: true)
!771 = !DISubroutineType(types: !772)
!772 = !{null, !773, !387, !387, !387}
!773 = !DIDerivedType(tag: DW_TAG_pointer_type, baseType: !765, size: 64, align: 64, flags: DIFlagArtificial | DIFlagObjectPointer)
!774 = !DISubprogram(name: "dim3", scope: !765, file: !764, line: 422, type: !775, isLocal: false, isDefinition: false, scopeLine: 422, flags: DIFlagPrototyped, isOptimized: true)
!775 = !DISubroutineType(types: !776)
!776 = !{null, !773, !777}
!777 = !DIDerivedType(tag: DW_TAG_typedef, name: "uint3", file: !764, line: 383, baseType: !778)
!778 = distinct !DICompositeType(tag: DW_TAG_structure_type, name: "uint3", file: !764, line: 190, size: 96, align: 32, elements: !779, identifier: "_ZTS5uint3")
!779 = !{!780, !781, !782}
!780 = !DIDerivedType(tag: DW_TAG_member, name: "x", scope: !778, file: !764, line: 192, baseType: !387, size: 32, align: 32)
!781 = !DIDerivedType(tag: DW_TAG_member, name: "y", scope: !778, file: !764, line: 192, baseType: !387, size: 32, align: 32, offset: 32)
!782 = !DIDerivedType(tag: DW_TAG_member, name: "z", scope: !778, file: !764, line: 192, baseType: !387, size: 32, align: 32, offset: 64)
!783 = !DISubprogram(name: "operator uint3", linkageName: "_ZN4dim3cv5uint3Ev", scope: !765, file: !764, line: 423, type: !784, isLocal: false, isDefinition: false, scopeLine: 423, flags: DIFlagPrototyped, isOptimized: true)
!784 = !DISubroutineType(types: !785)
!785 = !{!777, !773}
!786 = !DILocalVariable(name: "dimGrid", scope: !751, file: !1, line: 163, type: !763)
!787 = !DILocalVariable(name: "src", scope: !751, file: !1, line: 165, type: !14)
!788 = !DILocalVariable(name: "dst", scope: !751, file: !1, line: 165, type: !14)
!789 = !DILocalVariable(name: "t", scope: !790, file: !1, line: 166, type: !14)
!790 = distinct !DILexicalBlock(scope: !751, file: !1, line: 166, column: 3)
!791 = !DILocalVariable(name: "temp", scope: !792, file: !1, line: 167, type: !14)
!792 = distinct !DILexicalBlock(scope: !793, file: !1, line: 166, column: 50)
!793 = distinct !DILexicalBlock(scope: !790, file: !1, line: 166, column: 3)
!794 = !DILocation(line: 159, column: 20, scope: !751)
!795 = !DILocation(line: 159, column: 34, scope: !751)
!796 = !DILocation(line: 159, column: 52, scope: !751)
!797 = !DILocation(line: 159, column: 62, scope: !751)
!798 = !DILocation(line: 160, column: 19, scope: !751)
!799 = !DILocation(line: 160, column: 39, scope: !751)
!800 = !DILocation(line: 160, column: 54, scope: !751)
!801 = !DIExpression(DW_OP_deref)
!802 = !DILocation(line: 162, column: 8, scope: !751)
!803 = !DILocation(line: 163, column: 8, scope: !751)
!804 = !DILocation(line: 165, column: 7, scope: !751)
!805 = !DILocation(line: 165, column: 16, scope: !751)
!806 = !DILocation(line: 166, column: 12, scope: !790)
!807 = !DILocation(line: 166, column: 27, scope: !808)
!808 = !DILexicalBlockFile(scope: !793, file: !1, discriminator: 1)
!809 = !DILocation(line: 166, column: 21, scope: !808)
!810 = !DILocation(line: 166, column: 3, scope: !808)
!811 = !DILocation(line: 170, column: 22, scope: !792)
!812 = !DILocation(line: 175, column: 3, scope: !751)
!813 = !DILocation(line: 167, column: 9, scope: !792)
!814 = !DILocation(line: 170, column: 19, scope: !792)
!815 = !DILocation(line: 170, column: 5, scope: !792)
!816 = !DILocation(line: 171, column: 43, scope: !792)
!817 = !DILocation(line: 172, column: 52, scope: !792)
!818 = !DILocation(line: 172, column: 68, scope: !792)
!819 = !DILocation(line: 170, column: 5, scope: !820)
!820 = !DILexicalBlockFile(scope: !792, file: !1, discriminator: 1)
!821 = !DILocation(line: 166, column: 32, scope: !822)
!822 = !DILexicalBlockFile(scope: !793, file: !1, discriminator: 3)
!823 = distinct !{!823, !824}
!824 = !DILocation(line: 166, column: 3, scope: !751)
!825 = distinct !DISubprogram(name: "main", scope: !1, file: !1, line: 178, type: !826, isLocal: false, isDefinition: true, scopeLine: 179, flags: DIFlagPrototyped, isOptimized: true, unit: !0, variables: !828)
!826 = !DISubroutineType(types: !827)
!827 = !{!14, !14, !15}
!828 = !{!829, !830, !831}
!829 = !DILocalVariable(name: "argc", arg: 1, scope: !825, file: !1, line: 178, type: !14)
!830 = !DILocalVariable(name: "argv", arg: 2, scope: !825, file: !1, line: 178, type: !15)
!831 = !DILocalVariable(name: "num_devices", scope: !825, file: !1, line: 180, type: !14)
!832 = !DILocation(line: 178, column: 14, scope: !825)
!833 = !DILocation(line: 178, column: 27, scope: !825)
!834 = !DILocation(line: 180, column: 3, scope: !825)
!835 = !DILocation(line: 180, column: 7, scope: !825)
!836 = !DILocation(line: 181, column: 3, scope: !825)
!837 = !DILocation(line: 182, column: 7, scope: !838)
!838 = distinct !DILexicalBlock(scope: !825, file: !1, line: 182, column: 7)
!839 = !DILocation(line: 182, column: 19, scope: !838)
!840 = !DILocation(line: 182, column: 7, scope: !825)
!841 = !DILocation(line: 182, column: 24, scope: !842)
!842 = !DILexicalBlockFile(scope: !838, file: !1, discriminator: 1)
!843 = !DILocation(line: 184, column: 3, scope: !825)
!844 = !DILocation(line: 187, column: 1, scope: !825)
!845 = !DILocation(line: 186, column: 3, scope: !825)
!846 = distinct !DISubprogram(name: "run", linkageName: "_Z3runiPPc", scope: !1, file: !1, line: 189, type: !586, isLocal: false, isDefinition: true, scopeLine: 190, flags: DIFlagPrototyped, isOptimized: true, unit: !0, variables: !847)
!847 = !{!848, !849, !850, !851, !852, !853, !854, !858, !859, !860, !862}
!848 = !DILocalVariable(name: "argc", arg: 1, scope: !846, file: !1, line: 189, type: !14)
!849 = !DILocalVariable(name: "argv", arg: 2, scope: !846, file: !1, line: 189, type: !15)
!850 = !DILocalVariable(name: "borderCols", scope: !846, file: !1, line: 194, type: !14)
!851 = !DILocalVariable(name: "smallBlockCol", scope: !846, file: !1, line: 195, type: !14)
!852 = !DILocalVariable(name: "blockCols", scope: !846, file: !1, line: 196, type: !14)
!853 = !DILocalVariable(name: "gpuWall", scope: !846, file: !1, line: 201, type: !22)
!854 = !DILocalVariable(name: "gpuResult", scope: !846, file: !1, line: 201, type: !855)
!855 = !DICompositeType(tag: DW_TAG_array_type, baseType: !22, size: 128, align: 64, elements: !856)
!856 = !{!857}
!857 = !DISubrange(count: 2)
!858 = !DILocalVariable(name: "size", scope: !846, file: !1, line: 202, type: !14)
!859 = !DILocalVariable(name: "final_ret", scope: !846, file: !1, line: 211, type: !14)
!860 = !DILocalVariable(name: "i", scope: !861, file: !1, line: 218, type: !14)
!861 = distinct !DILexicalBlock(scope: !846, file: !1, line: 218, column: 3)
!862 = !DILocalVariable(name: "i", scope: !863, file: !1, line: 221, type: !14)
!863 = distinct !DILexicalBlock(scope: !846, file: !1, line: 221, column: 3)
!864 = !DILocation(line: 189, column: 14, scope: !846)
!865 = !DILocation(line: 189, column: 27, scope: !846)
!866 = !DILocation(line: 191, column: 3, scope: !846)
!867 = !DILocation(line: 194, column: 21, scope: !846)
!868 = !DILocation(line: 194, column: 7, scope: !846)
!869 = !DILocation(line: 195, column: 55, scope: !846)
!870 = !DILocation(line: 195, column: 33, scope: !846)
!871 = !DILocation(line: 195, column: 7, scope: !846)
!872 = !DILocation(line: 196, column: 19, scope: !846)
!873 = !DILocation(line: 196, column: 23, scope: !846)
!874 = !DILocation(line: 196, column: 44, scope: !846)
!875 = !DILocation(line: 196, column: 39, scope: !846)
!876 = !DILocation(line: 196, column: 37, scope: !846)
!877 = !DILocation(line: 196, column: 7, scope: !846)
!878 = !DILocation(line: 198, column: 3, scope: !846)
!879 = !DILocation(line: 201, column: 3, scope: !846)
!880 = !DILocation(line: 201, column: 18, scope: !846)
!881 = !DILocation(line: 202, column: 14, scope: !846)
!882 = !DILocation(line: 202, column: 19, scope: !846)
!883 = !DILocation(line: 202, column: 18, scope: !846)
!884 = !DILocation(line: 202, column: 7, scope: !846)
!885 = !DILocation(line: 204, column: 14, scope: !846)
!886 = !DILocation(line: 204, column: 49, scope: !846)
!887 = !DILocation(line: 204, column: 48, scope: !846)
!888 = !DILocation(line: 204, column: 3, scope: !846)
!889 = !DILocation(line: 205, column: 23, scope: !846)
!890 = !DILocation(line: 205, column: 14, scope: !846)
!891 = !DILocation(line: 205, column: 49, scope: !846)
!892 = !DILocation(line: 205, column: 48, scope: !846)
!893 = !DILocation(line: 205, column: 3, scope: !846)
!894 = !DILocation(line: 206, column: 14, scope: !846)
!895 = !DILocation(line: 206, column: 28, scope: !846)
!896 = !DILocation(line: 206, column: 46, scope: !846)
!897 = !DILocation(line: 206, column: 45, scope: !846)
!898 = !DILocation(line: 206, column: 3, scope: !846)
!899 = !DILocation(line: 207, column: 14, scope: !846)
!900 = !DILocation(line: 207, column: 50, scope: !846)
!901 = !DILocation(line: 207, column: 49, scope: !846)
!902 = !DILocation(line: 207, column: 44, scope: !846)
!903 = !DILocation(line: 207, column: 43, scope: !846)
!904 = !DILocation(line: 207, column: 3, scope: !846)
!905 = !DILocation(line: 208, column: 14, scope: !846)
!906 = !DILocation(line: 208, column: 23, scope: !846)
!907 = !DILocation(line: 208, column: 28, scope: !846)
!908 = !DILocation(line: 208, column: 27, scope: !846)
!909 = !DILocation(line: 208, column: 51, scope: !846)
!910 = !DILocation(line: 208, column: 46, scope: !846)
!911 = !DILocation(line: 208, column: 45, scope: !846)
!912 = !DILocation(line: 208, column: 3, scope: !846)
!913 = !DILocation(line: 211, column: 29, scope: !846)
!914 = !DILocation(line: 201, column: 8, scope: !846)
!915 = !DILocation(line: 211, column: 49, scope: !846)
!916 = !DILocation(line: 211, column: 55, scope: !846)
!917 = !DILocation(line: 212, column: 29, scope: !846)
!918 = !DILocation(line: 159, column: 20, scope: !751, inlinedAt: !919)
!919 = distinct !DILocation(line: 211, column: 19, scope: !846)
!920 = !DILocation(line: 159, column: 52, scope: !751, inlinedAt: !919)
!921 = !DILocation(line: 159, column: 62, scope: !751, inlinedAt: !919)
!922 = !DILocation(line: 160, column: 19, scope: !751, inlinedAt: !919)
!923 = !DILocation(line: 160, column: 39, scope: !751, inlinedAt: !919)
!924 = !DILocation(line: 160, column: 54, scope: !751, inlinedAt: !919)
!925 = !DILocation(line: 162, column: 8, scope: !751, inlinedAt: !919)
!926 = !DILocation(line: 163, column: 8, scope: !751, inlinedAt: !919)
!927 = !DILocation(line: 165, column: 7, scope: !751, inlinedAt: !919)
!928 = !DILocation(line: 165, column: 16, scope: !751, inlinedAt: !919)
!929 = !DILocation(line: 166, column: 12, scope: !790, inlinedAt: !919)
!930 = !DILocation(line: 166, column: 27, scope: !808, inlinedAt: !919)
!931 = !DILocation(line: 166, column: 21, scope: !808, inlinedAt: !919)
!932 = !DILocation(line: 166, column: 3, scope: !808, inlinedAt: !919)
!933 = !DILocation(line: 170, column: 22, scope: !792, inlinedAt: !919)
!934 = !DILocation(line: 211, column: 19, scope: !846)
!935 = !DILocation(line: 167, column: 9, scope: !792, inlinedAt: !919)
!936 = !DILocation(line: 170, column: 19, scope: !792, inlinedAt: !919)
!937 = !DILocation(line: 170, column: 5, scope: !792, inlinedAt: !919)
!938 = !DILocation(line: 171, column: 43, scope: !792, inlinedAt: !919)
!939 = !DILocation(line: 172, column: 52, scope: !792, inlinedAt: !919)
!940 = !DILocation(line: 172, column: 68, scope: !792, inlinedAt: !919)
!941 = !DILocation(line: 170, column: 5, scope: !820, inlinedAt: !919)
!942 = !DILocation(line: 166, column: 32, scope: !822, inlinedAt: !919)
!943 = !DILocation(line: 214, column: 56, scope: !846)
!944 = !DILocation(line: 211, column: 7, scope: !846)
!945 = !DILocation(line: 214, column: 14, scope: !846)
!946 = !DILocation(line: 214, column: 22, scope: !846)
!947 = !DILocation(line: 214, column: 55, scope: !846)
!948 = !DILocation(line: 214, column: 3, scope: !846)
!949 = !DILocation(line: 218, column: 12, scope: !861)
!950 = !DILocation(line: 218, column: 23, scope: !951)
!951 = !DILexicalBlockFile(scope: !952, file: !1, discriminator: 1)
!952 = distinct !DILexicalBlock(scope: !861, file: !1, line: 218, column: 3)
!953 = !DILocation(line: 218, column: 21, scope: !951)
!954 = !DILocation(line: 218, column: 3, scope: !951)
!955 = !DILocation(line: 219, column: 18, scope: !952)
!956 = !DILocation(line: 220, column: 3, scope: !846)
!957 = !DILocation(line: 221, column: 12, scope: !863)
!958 = !DILocation(line: 221, column: 23, scope: !959)
!959 = !DILexicalBlockFile(scope: !960, file: !1, discriminator: 1)
!960 = distinct !DILexicalBlock(scope: !863, file: !1, line: 221, column: 3)
!961 = !DILocation(line: 221, column: 21, scope: !959)
!962 = !DILocation(line: 221, column: 3, scope: !959)
!963 = !DILocation(line: 222, column: 18, scope: !960)
!964 = !DILocation(line: 219, column: 5, scope: !952)
!965 = distinct !{!965, !966}
!966 = !DILocation(line: 218, column: 3, scope: !846)
!967 = !DILocation(line: 223, column: 3, scope: !846)
!968 = !DILocation(line: 227, column: 12, scope: !846)
!969 = !DILocation(line: 227, column: 3, scope: !846)
!970 = !DILocation(line: 228, column: 12, scope: !846)
!971 = !DILocation(line: 228, column: 3, scope: !846)
!972 = !DILocation(line: 229, column: 12, scope: !846)
!973 = !DILocation(line: 229, column: 3, scope: !846)
!974 = !DILocation(line: 231, column: 13, scope: !846)
!975 = !DILocation(line: 231, column: 3, scope: !846)
!976 = !DILocation(line: 222, column: 5, scope: !960)
!977 = distinct !{!977, !978}
!978 = !DILocation(line: 221, column: 3, scope: !846)
!979 = !DILocation(line: 231, column: 3, scope: !980)
!980 = !DILexicalBlockFile(scope: !846, file: !1, discriminator: 1)
!981 = !DILocation(line: 232, column: 13, scope: !846)
!982 = !DILocation(line: 232, column: 3, scope: !846)
!983 = !DILocation(line: 232, column: 3, scope: !980)
!984 = !DILocation(line: 233, column: 13, scope: !846)
!985 = !DILocation(line: 233, column: 3, scope: !846)
!986 = !DILocation(line: 233, column: 3, scope: !980)
!987 = !DILocation(line: 235, column: 1, scope: !846)
