; ModuleID = 'Results/dwt2d/main.cu'
source_filename = "Results/dwt2d/main.cu"
target datalayout = "e-m:e-i64:64-f80:128-n8:16:32:64-S128"
target triple = "x86_64-unknown-linux-gnu"

%struct.option = type { i8*, i32, i32*, i32 }
%struct._IO_FILE = type { i32, i8*, i8*, i8*, i8*, i8*, i8*, i8*, i8*, i8*, i8*, i8*, %struct._IO_marker*, %struct._IO_FILE*, i32, i32, i64, i16, i8, [1 x i8], i8*, i64, i8*, i8*, i8*, i8*, i64, i32, [20 x i8] }
%struct._IO_marker = type { %struct._IO_marker*, %struct._IO_FILE*, i32 }
%struct.cudaDeviceProp = type { [256 x i8], i64, i64, i32, i32, i64, i32, [3 x i32], [3 x i32], i32, i64, i32, i32, i64, i64, i32, i32, i32, i32, i32, i32, i32, i32, i32, [2 x i32], [2 x i32], [3 x i32], [2 x i32], [3 x i32], [3 x i32], i32, [2 x i32], [3 x i32], [2 x i32], i32, [2 x i32], [3 x i32], [2 x i32], [3 x i32], i32, [2 x i32], i64, i32, i32, i32, i32, i32, i32, i32, i32, i32, i32, i32, i32, i32, i32, i32, i64, i32, i32, i32, i32 }
%struct.dwt = type { i8*, i8*, i8*, i32, i32, i32, i32 }

$_Z10processDWTIfEvP3dwtii = comdat any

$_Z10processDWTIiEvP3dwtii = comdat any

@.str = private unnamed_addr constant [26 x i8] c"~/rodinia_3.1/data/dwt2d/\00", align 1
@.str.1 = private unnamed_addr constant [20 x i8] c"Loading ipnput: %s\0A\00", align 1
@.str.2 = private unnamed_addr constant [17 x i8] c"cannot access %s\00", align 1
@.str.3 = private unnamed_addr constant [27 x i8] c"precteno %d, inputsize %d\0A\00", align 1
@.str.5 = private unnamed_addr constant [10 x i8] c"dimension\00", align 1
@.str.6 = private unnamed_addr constant [11 x i8] c"components\00", align 1
@.str.7 = private unnamed_addr constant [6 x i8] c"depth\00", align 1
@.str.8 = private unnamed_addr constant [6 x i8] c"level\00", align 1
@.str.9 = private unnamed_addr constant [7 x i8] c"device\00", align 1
@.str.10 = private unnamed_addr constant [8 x i8] c"forward\00", align 1
@.str.11 = private unnamed_addr constant [8 x i8] c"reverse\00", align 1
@.str.12 = private unnamed_addr constant [3 x i8] c"97\00", align 1
@.str.13 = private unnamed_addr constant [3 x i8] c"53\00", align 1
@.str.14 = private unnamed_addr constant [13 x i8] c"write-visual\00", align 1
@.str.15 = private unnamed_addr constant [5 x i8] c"help\00", align 1
@_ZZ4mainE8longopts = private unnamed_addr constant [11 x %struct.option] [%struct.option { i8* getelementptr inbounds ([10 x i8], [10 x i8]* @.str.5, i32 0, i32 0), i32 1, i32* null, i32 100 }, %struct.option { i8* getelementptr inbounds ([11 x i8], [11 x i8]* @.str.6, i32 0, i32 0), i32 1, i32* null, i32 99 }, %struct.option { i8* getelementptr inbounds ([6 x i8], [6 x i8]* @.str.7, i32 0, i32 0), i32 1, i32* null, i32 98 }, %struct.option { i8* getelementptr inbounds ([6 x i8], [6 x i8]* @.str.8, i32 0, i32 0), i32 1, i32* null, i32 108 }, %struct.option { i8* getelementptr inbounds ([7 x i8], [7 x i8]* @.str.9, i32 0, i32 0), i32 1, i32* null, i32 68 }, %struct.option { i8* getelementptr inbounds ([8 x i8], [8 x i8]* @.str.10, i32 0, i32 0), i32 0, i32* null, i32 102 }, %struct.option { i8* getelementptr inbounds ([8 x i8], [8 x i8]* @.str.11, i32 0, i32 0), i32 0, i32* null, i32 114 }, %struct.option { i8* getelementptr inbounds ([3 x i8], [3 x i8]* @.str.12, i32 0, i32 0), i32 0, i32* null, i32 57 }, %struct.option { i8* getelementptr inbounds ([3 x i8], [3 x i8]* @.str.13, i32 0, i32 0), i32 0, i32* null, i32 53 }, %struct.option { i8* getelementptr inbounds ([13 x i8], [13 x i8]* @.str.14, i32 0, i32 0), i32 0, i32* null, i32 119 }, %struct.option { i8* getelementptr inbounds ([5 x i8], [5 x i8]* @.str.15, i32 0, i32 0), i32 0, i32* null, i32 104 }], align 16
@.str.16 = private unnamed_addr constant [17 x i8] c"d:c:b:l:D:fr95wh\00", align 1
@optarg = external local_unnamed_addr global i8*, align 8
@optind = external local_unnamed_addr global i32, align 4
@stderr = external local_unnamed_addr global %struct._IO_FILE*, align 8
@.str.20 = private unnamed_addr constant [17 x i8] c"%s: %i: %s: %s.\0A\00", align 1
@.str.21 = private unnamed_addr constant [22 x i8] c"Results/dwt2d/main.cu\00", align 1
@.str.22 = private unnamed_addr constant [17 x i8] c"Get device count\00", align 1
@.str.24 = private unnamed_addr constant [81 x i8] c"Selected device %d is out of bound. Devices on your system are in range %d - %d\0A\00", align 1
@.str.25 = private unnamed_addr constant [22 x i8] c"Get device properties\00", align 1
@.str.26 = private unnamed_addr constant [33 x i8] c"Device %d does not support CUDA\0A\00", align 1
@.str.27 = private unnamed_addr constant [21 x i8] c"Using device %d: %s\0A\00", align 1
@.str.28 = private unnamed_addr constant [20 x i8] c"Set selected device\00", align 1
@.str.29 = private unnamed_addr constant [5 x i8] c".dwt\00", align 1
@.str.30 = private unnamed_addr constant [18 x i8] c"Source file:\09\09%s\0A\00", align 1
@.str.31 = private unnamed_addr constant [21 x i8] c" Dimensions:\09\09%dx%d\0A\00", align 1
@.str.32 = private unnamed_addr constant [23 x i8] c" Components count:\09%d\0A\00", align 1
@.str.33 = private unnamed_addr constant [17 x i8] c" Bit depth:\09\09%d\0A\00", align 1
@.str.34 = private unnamed_addr constant [18 x i8] c" DWT levels:\09\09%d\0A\00", align 1
@.str.35 = private unnamed_addr constant [24 x i8] c" Forward transform:\09%d\0A\00", align 1
@.str.36 = private unnamed_addr constant [21 x i8] c" 9/7 transform:\09\09%d\0A\00", align 1
@.str.37 = private unnamed_addr constant [18 x i8] c"Alloc host memory\00", align 1
@.str.38 = private unnamed_addr constant [15 x i8] c"Cuda free host\00", align 1
@.str.39 = private unnamed_addr constant [20 x i8] c"Alloc device memory\00", align 1
@.str.40 = private unnamed_addr constant [21 x i8] c"Memset device memory\00", align 1
@.str.41 = private unnamed_addr constant [10 x i8] c"Cuda free\00", align 1
@.str.42 = private unnamed_addr constant [5 x i8] c".out\00", align 1
@.str.43 = private unnamed_addr constant [9 x i8] c".lin.out\00", align 1
@.str.44 = private unnamed_addr constant [17 x i8] c"Cuda free device\00", align 1
@str = private unnamed_addr constant [467 x i8] c"dwt [otpions] src_img.rgb <out_img.dwt>\0A  -d, --dimension\09\09dimensions of src img, e.g. 1920x1080\0A  -c, --components\09\09number of color components, default 3\0A  -b, --depth\09\09\09bit depth, default 8\0A  -l, --level\09\09\09DWT level, default 3\0A  -D, --device\09\09\09cuda device\0A  -f, --forward\09\09\09forward transform\0A  -r, --reverse\09\09\09reverse transform\0A  -9, --97\09\09\099/7 transform\0A  -5, --53\09\09\095/3 transform\0A  -w  --write-visual\09\09write output in visual (tiled) fashion instead of the linear\00"
@str.45 = private unnamed_addr constant [23 x i8] c"No CUDA enabled device\00"
@str.46 = private unnamed_addr constant [28 x i8] c"Wrong or missing dimensions\00"
@str.47 = private unnamed_addr constant [28 x i8] c"Please supply src file name\00"

; Function Attrs: uwtable
define i32 @_Z6getImgPcPhi(i8* %srcFilename, i8* nocapture %srcImg, i32 %inputSize) local_unnamed_addr #0 !dbg !664 {
entry:
  tail call void @llvm.dbg.value(metadata i8* %srcFilename, i64 0, metadata !668, metadata !675), !dbg !676
  tail call void @llvm.dbg.value(metadata i8* %srcImg, i64 0, metadata !669, metadata !675), !dbg !677
  tail call void @llvm.dbg.value(metadata i32 %inputSize, i64 0, metadata !670, metadata !675), !dbg !678
  tail call void @llvm.dbg.value(metadata !679, i64 0, metadata !671, metadata !675), !dbg !680
  tail call void @llvm.dbg.value(metadata i8* null, i64 0, metadata !672, metadata !675), !dbg !681
  %call = tail call i64 @strlen(i8* %srcFilename) #11, !dbg !682
  %add2 = add i64 %call, 26, !dbg !684
  %call3 = tail call noalias i8* @malloc(i64 %add2) #10, !dbg !685
  tail call void @llvm.dbg.value(metadata i8* %call3, i64 0, metadata !672, metadata !675), !dbg !681
  %cmp = icmp eq i8* %call3, null, !dbg !687
  br i1 %cmp, label %if.end, label %if.then, !dbg !688

if.then:                                          ; preds = %entry
  store i8 0, i8* %call3, align 1, !dbg !689, !tbaa !691
  %strlen = tail call i64 @strlen(i8* nonnull %call3), !dbg !694
  %endptr = getelementptr i8, i8* %call3, i64 %strlen, !dbg !694
  tail call void @llvm.memcpy.p0i8.p0i8.i64(i8* %endptr, i8* getelementptr inbounds ([26 x i8], [26 x i8]* @.str, i64 0, i64 0), i64 26, i32 1, i1 false), !dbg !694
  %call5 = tail call i8* @strcat(i8* nonnull %call3, i8* %srcFilename) #10, !dbg !695
  tail call void @llvm.dbg.value(metadata i8* %call3, i64 0, metadata !668, metadata !675), !dbg !676
  br label %if.end, !dbg !696

if.end:                                           ; preds = %entry, %if.then
  %srcFilename.addr.0 = phi i8* [ %call3, %if.then ], [ %srcFilename, %entry ]
  %call6 = tail call i32 (i8*, ...) @printf(i8* getelementptr inbounds ([20 x i8], [20 x i8]* @.str.1, i64 0, i64 0), i8* %srcFilename.addr.0), !dbg !697
  %call7 = tail call i32 (i8*, i32, ...) @open(i8* %srcFilename.addr.0, i32 0, i32 420), !dbg !698
  tail call void @llvm.dbg.value(metadata i32 %call7, i64 0, metadata !673, metadata !675), !dbg !699
  %cmp8 = icmp eq i32 %call7, -1, !dbg !700
  br i1 %cmp8, label %if.then9, label %if.end11, !dbg !702

if.then9:                                         ; preds = %if.end
  %call10 = tail call i32* @__errno_location() #1, !dbg !703
  %0 = load i32, i32* %call10, align 4, !dbg !703, !tbaa !705
  tail call void (i32, i32, i8*, ...) @error(i32 0, i32 %0, i8* getelementptr inbounds ([17 x i8], [17 x i8]* @.str.2, i64 0, i64 0), i8* %srcFilename.addr.0), !dbg !707
  br label %cleanup, !dbg !709

if.end11:                                         ; preds = %if.end
  %conv = sext i32 %inputSize to i64, !dbg !710
  %call12 = tail call i64 @read(i32 %call7, i8* %srcImg, i64 %conv), !dbg !711
  %conv13 = trunc i64 %call12 to i32, !dbg !711
  tail call void @llvm.dbg.value(metadata i32 %conv13, i64 0, metadata !674, metadata !675), !dbg !712
  %call14 = tail call i32 (i8*, ...) @printf(i8* getelementptr inbounds ([27 x i8], [27 x i8]* @.str.3, i64 0, i64 0), i32 %conv13, i32 %inputSize), !dbg !713
  %call15 = tail call i32 @close(i32 %call7), !dbg !714
  br label %cleanup

cleanup:                                          ; preds = %if.end11, %if.then9
  %retval.0 = phi i32 [ -1, %if.then9 ], [ 0, %if.end11 ]
  ret i32 %retval.0, !dbg !715
}

; Function Attrs: nounwind readnone
declare void @llvm.dbg.declare(metadata, metadata, metadata) #1

; Function Attrs: argmemonly nounwind
declare void @llvm.lifetime.start(i64, i8* nocapture) #2

; Function Attrs: nounwind
declare noalias i8* @malloc(i64) local_unnamed_addr #3

; Function Attrs: nounwind readonly
declare i64 @strlen(i8* nocapture) local_unnamed_addr #4

; Function Attrs: nounwind
declare i8* @strcat(i8*, i8* nocapture readonly) local_unnamed_addr #3

; Function Attrs: nounwind
declare i32 @printf(i8* nocapture readonly, ...) local_unnamed_addr #3

declare i32 @open(i8* nocapture readonly, i32, ...) local_unnamed_addr #5

declare void @error(i32, i32, i8*, ...) local_unnamed_addr #5

; Function Attrs: nounwind readnone
declare i32* @__errno_location() local_unnamed_addr #6

declare i64 @read(i32, i8* nocapture, i64) local_unnamed_addr #5

declare i32 @close(i32) local_unnamed_addr #5

; Function Attrs: argmemonly nounwind
declare void @llvm.lifetime.end(i64, i8* nocapture) #2

; Function Attrs: nounwind uwtable
define void @_Z5usagev() local_unnamed_addr #7 !dbg !717 {
entry:
  %puts = tail call i32 @puts(i8* getelementptr inbounds ([467 x i8], [467 x i8]* @str, i64 0, i64 0)), !dbg !718
  ret void, !dbg !719
}

; Function Attrs: norecurse uwtable
define i32 @main(i32 %argc, i8** %argv) local_unnamed_addr #8 !dbg !720 {
entry:
  %optindex = alloca i32, align 4
  %longopts = alloca [11 x %struct.option], align 16
  %devCount = alloca i32, align 4
  %devProp = alloca %struct.cudaDeviceProp, align 8
  tail call void @llvm.dbg.value(metadata i32 %argc, i64 0, metadata !724, metadata !675), !dbg !837
  tail call void @llvm.dbg.value(metadata i8** %argv, i64 0, metadata !725, metadata !675), !dbg !838
  %0 = bitcast i32* %optindex to i8*, !dbg !839
  call void @llvm.lifetime.start(i64 4, i8* %0) #10, !dbg !839
  tail call void @llvm.dbg.value(metadata i32 0, i64 0, metadata !726, metadata !675), !dbg !840
  store i32 0, i32* %optindex, align 4, !dbg !840, !tbaa !705
  %1 = bitcast [11 x %struct.option]* %longopts to i8*, !dbg !841
  call void @llvm.lifetime.start(i64 352, i8* %1) #10, !dbg !841
  tail call void @llvm.dbg.declare(metadata [11 x %struct.option]* %longopts, metadata !728, metadata !675), !dbg !842
  call void @llvm.memcpy.p0i8.p0i8.i64(i8* %1, i8* bitcast ([11 x %struct.option]* @_ZZ4mainE8longopts to i8*), i64 352, i32 16, i1 false), !dbg !842
  tail call void @llvm.dbg.value(metadata i32 0, i64 0, metadata !739, metadata !675), !dbg !843
  tail call void @llvm.dbg.value(metadata i32 0, i64 0, metadata !740, metadata !675), !dbg !844
  tail call void @llvm.dbg.value(metadata i32 3, i64 0, metadata !741, metadata !675), !dbg !845
  tail call void @llvm.dbg.value(metadata i32 8, i64 0, metadata !742, metadata !675), !dbg !846
  tail call void @llvm.dbg.value(metadata i32 3, i64 0, metadata !743, metadata !675), !dbg !847
  tail call void @llvm.dbg.value(metadata i32 0, i64 0, metadata !744, metadata !675), !dbg !848
  tail call void @llvm.dbg.value(metadata i32 1, i64 0, metadata !745, metadata !675), !dbg !849
  tail call void @llvm.dbg.value(metadata i32 1, i64 0, metadata !746, metadata !675), !dbg !850
  tail call void @llvm.dbg.value(metadata i32 0, i64 0, metadata !747, metadata !675), !dbg !851
  %arraydecay = getelementptr inbounds [11 x %struct.option], [11 x %struct.option]* %longopts, i64 0, i64 0, !dbg !852
  br label %while.cond, !dbg !854

while.cond:                                       ; preds = %while.cond.backedge, %entry
  %device.0 = phi i32 [ 0, %entry ], [ %device.0.be, %while.cond.backedge ]
  %forward.0 = phi i32 [ 1, %entry ], [ %forward.0.be, %while.cond.backedge ]
  %dwt97.0 = phi i32 [ 1, %entry ], [ %dwt97.0.be, %while.cond.backedge ]
  %writeVisual.0 = phi i32 [ 0, %entry ], [ %writeVisual.0.be, %while.cond.backedge ]
  %dwtLvls.0 = phi i32 [ 3, %entry ], [ %dwtLvls.0.be, %while.cond.backedge ]
  %bitDepth.0 = phi i32 [ 8, %entry ], [ %bitDepth.0.be, %while.cond.backedge ]
  %compCount.0 = phi i32 [ 3, %entry ], [ %compCount.0.be, %while.cond.backedge ]
  %pixHeight.0 = phi i32 [ 0, %entry ], [ %pixHeight.0.be, %while.cond.backedge ]
  %pixWidth.0 = phi i32 [ 0, %entry ], [ %pixWidth.0.be, %while.cond.backedge ]
  call void @llvm.dbg.value(metadata i32* %optindex, i64 0, metadata !726, metadata !855), !dbg !840
  %call = call i32 @getopt_long(i32 %argc, i8** %argv, i8* getelementptr inbounds ([17 x i8], [17 x i8]* @.str.16, i64 0, i64 0), %struct.option* %arraydecay, i32* nonnull %optindex) #10, !dbg !856
  %sext = shl i32 %call, 24, !dbg !857
  %conv1 = ashr exact i32 %sext, 24, !dbg !857
  switch i32 %conv1, label %sw.default [
    i32 -1, label %while.end
    i32 100, label %sw.bb
    i32 99, label %sw.bb12
    i32 98, label %sw.bb14
    i32 108, label %sw.bb16
    i32 68, label %sw.bb18
    i32 102, label %while.cond.backedge
    i32 114, label %sw.bb21
    i32 57, label %sw.bb22
    i32 53, label %sw.bb23
    i32 119, label %sw.bb24
    i32 104, label %sw.bb25
    i32 63, label %cleanup157.loopexit
  ], !dbg !858

sw.bb:                                            ; preds = %while.cond
  %2 = load i8*, i8** @optarg, align 8, !dbg !859, !tbaa !862
  call void @llvm.dbg.value(metadata i8* %2, i64 0, metadata !386, metadata !675) #10, !dbg !864
  %call.i = call i64 @strtol(i8* nocapture nonnull %2, i8** null, i32 10) #10, !dbg !866
  %conv.i = trunc i64 %call.i to i32, !dbg !866
  call void @llvm.dbg.value(metadata i32 %conv.i, i64 0, metadata !739, metadata !675), !dbg !843
  %strchr = call i8* @strchr(i8* %2, i32 120), !dbg !867
  call void @llvm.dbg.value(metadata i8* %strchr, i64 0, metadata !748, metadata !675), !dbg !868
  %cmp5 = icmp eq i8* %strchr, null, !dbg !869
  %cmp6 = icmp eq i32 %conv.i, 0, !dbg !871
  %or.cond = or i1 %cmp5, %cmp6, !dbg !873
  br i1 %or.cond, label %if.then, label %lor.lhs.false7, !dbg !873

lor.lhs.false7:                                   ; preds = %sw.bb
  %call8 = call i64 @strlen(i8* %strchr) #11, !dbg !874
  %call9 = call i64 @strlen(i8* %2) #11, !dbg !876
  %cmp10 = icmp ult i64 %call8, %call9, !dbg !878
  br i1 %cmp10, label %if.end, label %if.then, !dbg !879

if.then:                                          ; preds = %lor.lhs.false7, %sw.bb
  %puts.i = call i32 @puts(i8* getelementptr inbounds ([467 x i8], [467 x i8]* @str, i64 0, i64 0)) #10, !dbg !880
  br label %cleanup157, !dbg !883

if.end:                                           ; preds = %lor.lhs.false7
  %add.ptr = getelementptr inbounds i8, i8* %strchr, i64 1, !dbg !884
  call void @llvm.dbg.value(metadata i8* %add.ptr, i64 0, metadata !386, metadata !675) #10, !dbg !885
  %call.i244 = call i64 @strtol(i8* nocapture nonnull %add.ptr, i8** null, i32 10) #10, !dbg !887
  %conv.i245 = trunc i64 %call.i244 to i32, !dbg !887
  call void @llvm.dbg.value(metadata i32 %conv.i245, i64 0, metadata !740, metadata !675), !dbg !844
  br label %while.cond.backedge, !dbg !888

sw.bb12:                                          ; preds = %while.cond
  %3 = load i8*, i8** @optarg, align 8, !dbg !889, !tbaa !862
  call void @llvm.dbg.value(metadata i8* %3, i64 0, metadata !386, metadata !675) #10, !dbg !890
  %call.i246 = call i64 @strtol(i8* nocapture nonnull %3, i8** null, i32 10) #10, !dbg !892
  %conv.i247 = trunc i64 %call.i246 to i32, !dbg !892
  call void @llvm.dbg.value(metadata i32 %conv.i247, i64 0, metadata !741, metadata !675), !dbg !845
  br label %while.cond.backedge, !dbg !893

sw.bb14:                                          ; preds = %while.cond
  %4 = load i8*, i8** @optarg, align 8, !dbg !894, !tbaa !862
  call void @llvm.dbg.value(metadata i8* %4, i64 0, metadata !386, metadata !675) #10, !dbg !895
  %call.i248 = call i64 @strtol(i8* nocapture nonnull %4, i8** null, i32 10) #10, !dbg !897
  %conv.i249 = trunc i64 %call.i248 to i32, !dbg !897
  call void @llvm.dbg.value(metadata i32 %conv.i249, i64 0, metadata !742, metadata !675), !dbg !846
  br label %while.cond.backedge, !dbg !898

sw.bb16:                                          ; preds = %while.cond
  %5 = load i8*, i8** @optarg, align 8, !dbg !899, !tbaa !862
  call void @llvm.dbg.value(metadata i8* %5, i64 0, metadata !386, metadata !675) #10, !dbg !900
  %call.i250 = call i64 @strtol(i8* nocapture nonnull %5, i8** null, i32 10) #10, !dbg !902
  %conv.i251 = trunc i64 %call.i250 to i32, !dbg !902
  call void @llvm.dbg.value(metadata i32 %conv.i251, i64 0, metadata !743, metadata !675), !dbg !847
  br label %while.cond.backedge, !dbg !903

sw.bb18:                                          ; preds = %while.cond
  %6 = load i8*, i8** @optarg, align 8, !dbg !904, !tbaa !862
  call void @llvm.dbg.value(metadata i8* %6, i64 0, metadata !386, metadata !675) #10, !dbg !905
  %call.i252 = call i64 @strtol(i8* nocapture nonnull %6, i8** null, i32 10) #10, !dbg !907
  %conv.i253 = trunc i64 %call.i252 to i32, !dbg !907
  call void @llvm.dbg.value(metadata i32 %conv.i253, i64 0, metadata !744, metadata !675), !dbg !848
  br label %while.cond.backedge, !dbg !908

sw.bb21:                                          ; preds = %while.cond
  call void @llvm.dbg.value(metadata i32 0, i64 0, metadata !745, metadata !675), !dbg !849
  br label %while.cond.backedge, !dbg !909

sw.bb22:                                          ; preds = %while.cond
  call void @llvm.dbg.value(metadata i32 1, i64 0, metadata !746, metadata !675), !dbg !850
  br label %while.cond.backedge, !dbg !910

sw.bb23:                                          ; preds = %while.cond
  call void @llvm.dbg.value(metadata i32 0, i64 0, metadata !746, metadata !675), !dbg !850
  br label %while.cond.backedge, !dbg !911

sw.bb24:                                          ; preds = %while.cond
  call void @llvm.dbg.value(metadata i32 1, i64 0, metadata !747, metadata !675), !dbg !851
  br label %while.cond.backedge, !dbg !912

while.cond.backedge:                              ; preds = %sw.bb24, %sw.bb23, %sw.bb22, %sw.bb21, %sw.bb18, %sw.bb16, %sw.bb14, %sw.bb12, %if.end, %while.cond
  %device.0.be = phi i32 [ %device.0, %sw.bb24 ], [ %device.0, %sw.bb23 ], [ %device.0, %sw.bb22 ], [ %device.0, %sw.bb21 ], [ %conv.i253, %sw.bb18 ], [ %device.0, %sw.bb16 ], [ %device.0, %sw.bb14 ], [ %device.0, %sw.bb12 ], [ %device.0, %if.end ], [ %device.0, %while.cond ]
  %forward.0.be = phi i32 [ %forward.0, %sw.bb24 ], [ %forward.0, %sw.bb23 ], [ %forward.0, %sw.bb22 ], [ 0, %sw.bb21 ], [ %forward.0, %sw.bb18 ], [ %forward.0, %sw.bb16 ], [ %forward.0, %sw.bb14 ], [ %forward.0, %sw.bb12 ], [ %forward.0, %if.end ], [ 1, %while.cond ]
  %dwt97.0.be = phi i32 [ %dwt97.0, %sw.bb24 ], [ 0, %sw.bb23 ], [ 1, %sw.bb22 ], [ %dwt97.0, %sw.bb21 ], [ %dwt97.0, %sw.bb18 ], [ %dwt97.0, %sw.bb16 ], [ %dwt97.0, %sw.bb14 ], [ %dwt97.0, %sw.bb12 ], [ %dwt97.0, %if.end ], [ %dwt97.0, %while.cond ]
  %writeVisual.0.be = phi i32 [ 1, %sw.bb24 ], [ %writeVisual.0, %sw.bb23 ], [ %writeVisual.0, %sw.bb22 ], [ %writeVisual.0, %sw.bb21 ], [ %writeVisual.0, %sw.bb18 ], [ %writeVisual.0, %sw.bb16 ], [ %writeVisual.0, %sw.bb14 ], [ %writeVisual.0, %sw.bb12 ], [ %writeVisual.0, %if.end ], [ %writeVisual.0, %while.cond ]
  %dwtLvls.0.be = phi i32 [ %dwtLvls.0, %sw.bb24 ], [ %dwtLvls.0, %sw.bb23 ], [ %dwtLvls.0, %sw.bb22 ], [ %dwtLvls.0, %sw.bb21 ], [ %dwtLvls.0, %sw.bb18 ], [ %conv.i251, %sw.bb16 ], [ %dwtLvls.0, %sw.bb14 ], [ %dwtLvls.0, %sw.bb12 ], [ %dwtLvls.0, %if.end ], [ %dwtLvls.0, %while.cond ]
  %bitDepth.0.be = phi i32 [ %bitDepth.0, %sw.bb24 ], [ %bitDepth.0, %sw.bb23 ], [ %bitDepth.0, %sw.bb22 ], [ %bitDepth.0, %sw.bb21 ], [ %bitDepth.0, %sw.bb18 ], [ %bitDepth.0, %sw.bb16 ], [ %conv.i249, %sw.bb14 ], [ %bitDepth.0, %sw.bb12 ], [ %bitDepth.0, %if.end ], [ %bitDepth.0, %while.cond ]
  %compCount.0.be = phi i32 [ %compCount.0, %sw.bb24 ], [ %compCount.0, %sw.bb23 ], [ %compCount.0, %sw.bb22 ], [ %compCount.0, %sw.bb21 ], [ %compCount.0, %sw.bb18 ], [ %compCount.0, %sw.bb16 ], [ %compCount.0, %sw.bb14 ], [ %conv.i247, %sw.bb12 ], [ %compCount.0, %if.end ], [ %compCount.0, %while.cond ]
  %pixHeight.0.be = phi i32 [ %pixHeight.0, %sw.bb24 ], [ %pixHeight.0, %sw.bb23 ], [ %pixHeight.0, %sw.bb22 ], [ %pixHeight.0, %sw.bb21 ], [ %pixHeight.0, %sw.bb18 ], [ %pixHeight.0, %sw.bb16 ], [ %pixHeight.0, %sw.bb14 ], [ %pixHeight.0, %sw.bb12 ], [ %conv.i245, %if.end ], [ %pixHeight.0, %while.cond ]
  %pixWidth.0.be = phi i32 [ %pixWidth.0, %sw.bb24 ], [ %pixWidth.0, %sw.bb23 ], [ %pixWidth.0, %sw.bb22 ], [ %pixWidth.0, %sw.bb21 ], [ %pixWidth.0, %sw.bb18 ], [ %pixWidth.0, %sw.bb16 ], [ %pixWidth.0, %sw.bb14 ], [ %pixWidth.0, %sw.bb12 ], [ %conv.i, %if.end ], [ %pixWidth.0, %while.cond ]
  br label %while.cond, !dbg !840

sw.bb25:                                          ; preds = %while.cond
  %puts.i254 = call i32 @puts(i8* getelementptr inbounds ([467 x i8], [467 x i8]* @str, i64 0, i64 0)) #10, !dbg !913
  br label %cleanup157, !dbg !915

sw.default:                                       ; preds = %while.cond
  %puts.i255 = call i32 @puts(i8* getelementptr inbounds ([467 x i8], [467 x i8]* @str, i64 0, i64 0)) #10, !dbg !916
  br label %cleanup157, !dbg !918

while.end:                                        ; preds = %while.cond
  %7 = load i32, i32* @optind, align 4, !dbg !919, !tbaa !705
  %sub = sub nsw i32 %argc, %7, !dbg !920
  call void @llvm.dbg.value(metadata i32 %sub, i64 0, metadata !724, metadata !675), !dbg !837
  %idx.ext = sext i32 %7 to i64, !dbg !921
  %add.ptr27 = getelementptr inbounds i8*, i8** %argv, i64 %idx.ext, !dbg !921
  call void @llvm.dbg.value(metadata i8** %add.ptr27, i64 0, metadata !725, metadata !675), !dbg !838
  %cmp28 = icmp eq i32 %sub, 0, !dbg !922
  br i1 %cmp28, label %if.then29, label %if.end31, !dbg !924

if.then29:                                        ; preds = %while.end
  %puts242 = call i32 @puts(i8* getelementptr inbounds ([28 x i8], [28 x i8]* @str.47, i64 0, i64 0)), !dbg !925
  %puts.i256 = call i32 @puts(i8* getelementptr inbounds ([467 x i8], [467 x i8]* @str, i64 0, i64 0)) #10, !dbg !927
  br label %cleanup157, !dbg !929

if.end31:                                         ; preds = %while.end
  %cmp32 = icmp slt i32 %pixWidth.0, 1, !dbg !930
  %cmp34 = icmp slt i32 %pixHeight.0, 1, !dbg !932
  %or.cond170 = or i1 %cmp34, %cmp32, !dbg !934
  br i1 %or.cond170, label %if.then35, label %if.end37, !dbg !934

if.then35:                                        ; preds = %if.end31
  %puts241 = call i32 @puts(i8* getelementptr inbounds ([28 x i8], [28 x i8]* @str.46, i64 0, i64 0)), !dbg !935
  %puts.i257 = call i32 @puts(i8* getelementptr inbounds ([467 x i8], [467 x i8]* @str, i64 0, i64 0)) #10, !dbg !937
  br label %cleanup157, !dbg !939

if.end37:                                         ; preds = %if.end31
  %cmp38 = icmp eq i32 %forward.0, 0, !dbg !940
  call void @llvm.dbg.value(metadata i32 0, i64 0, metadata !747, metadata !675), !dbg !851
  %.writeVisual.0 = select i1 %cmp38, i32 0, i32 %writeVisual.0, !dbg !942
  %8 = bitcast i32* %devCount to i8*, !dbg !943
  call void @llvm.lifetime.start(i64 4, i8* %8) #10, !dbg !943
  call void @llvm.dbg.value(metadata i32* %devCount, i64 0, metadata !749, metadata !855), !dbg !944
  %call41 = call i32 @cudaGetDeviceCount(i32* nonnull %devCount), !dbg !945
  %call42 = call i32 @cudaGetLastError(), !dbg !946
  call void @llvm.dbg.value(metadata i32 %call42, i64 0, metadata !750, metadata !675), !dbg !946
  %cmp43 = icmp eq i32 %call42, 0, !dbg !947
  br i1 %cmp43, label %if.end47, label %if.then44, !dbg !946

if.then44:                                        ; preds = %if.end37
  %9 = load %struct._IO_FILE*, %struct._IO_FILE** @stderr, align 8, !dbg !949, !tbaa !862
  %call45 = call i8* @cudaGetErrorString(i32 %call42), !dbg !949
  %call46 = call i32 (%struct._IO_FILE*, i8*, ...) @fprintf(%struct._IO_FILE* %9, i8* getelementptr inbounds ([17 x i8], [17 x i8]* @.str.20, i64 0, i64 0), i8* getelementptr inbounds ([22 x i8], [22 x i8]* @.str.21, i64 0, i64 0), i32 318, i8* getelementptr inbounds ([17 x i8], [17 x i8]* @.str.22, i64 0, i64 0), i8* %call45) #12, !dbg !952
  call void @exit(i32 -1) #13, !dbg !954
  unreachable, !dbg !949

if.end47:                                         ; preds = %if.end37
  %10 = load i32, i32* %devCount, align 4, !dbg !956, !tbaa !705
  call void @llvm.dbg.value(metadata i32 %10, i64 0, metadata !749, metadata !675), !dbg !944
  %cmp48 = icmp eq i32 %10, 0, !dbg !958
  br i1 %cmp48, label %if.then49, label %if.end51, !dbg !959

if.then49:                                        ; preds = %if.end47
  %puts = call i32 @puts(i8* getelementptr inbounds ([23 x i8], [23 x i8]* @str.45, i64 0, i64 0)), !dbg !960
  br label %cleanup156, !dbg !962

if.end51:                                         ; preds = %if.end47
  %cmp52 = icmp sgt i32 %device.0, -1, !dbg !963
  %cmp55 = icmp slt i32 %device.0, %10, !dbg !965
  %or.cond243 = and i1 %cmp52, %cmp55, !dbg !967
  br i1 %or.cond243, label %if.end59, label %if.then56, !dbg !967

if.then56:                                        ; preds = %if.end51
  %sub57 = add nsw i32 %10, -1, !dbg !968
  %call58 = call i32 (i8*, ...) @printf(i8* getelementptr inbounds ([81 x i8], [81 x i8]* @.str.24, i64 0, i64 0), i32 %device.0, i32 0, i32 %sub57), !dbg !970
  br label %cleanup156, !dbg !971

if.end59:                                         ; preds = %if.end51
  %11 = getelementptr inbounds %struct.cudaDeviceProp, %struct.cudaDeviceProp* %devProp, i64 0, i32 0, i64 0, !dbg !972
  call void @llvm.lifetime.start(i64 632, i8* %11) #10, !dbg !972
  call void @llvm.dbg.value(metadata %struct.cudaDeviceProp* %devProp, i64 0, metadata !753, metadata !855), !dbg !973
  %call60 = call i32 @cudaGetDeviceProperties(%struct.cudaDeviceProp* nonnull %devProp, i32 %device.0), !dbg !974
  %call62 = call i32 @cudaGetLastError(), !dbg !975
  call void @llvm.dbg.value(metadata i32 %call62, i64 0, metadata !827, metadata !675), !dbg !975
  %cmp63 = icmp eq i32 %call62, 0, !dbg !976
  br i1 %cmp63, label %if.end67, label %if.then64, !dbg !975

if.then64:                                        ; preds = %if.end59
  %12 = load %struct._IO_FILE*, %struct._IO_FILE** @stderr, align 8, !dbg !978, !tbaa !862
  %call65 = call i8* @cudaGetErrorString(i32 %call62), !dbg !978
  %call66 = call i32 (%struct._IO_FILE*, i8*, ...) @fprintf(%struct._IO_FILE* %12, i8* getelementptr inbounds ([17 x i8], [17 x i8]* @.str.20, i64 0, i64 0), i8* getelementptr inbounds ([22 x i8], [22 x i8]* @.str.21, i64 0, i64 0), i32 330, i8* getelementptr inbounds ([22 x i8], [22 x i8]* @.str.25, i64 0, i64 0), i8* %call65) #12, !dbg !981
  call void @exit(i32 -1) #13, !dbg !983
  unreachable, !dbg !978

if.end67:                                         ; preds = %if.end59
  %major = getelementptr inbounds %struct.cudaDeviceProp, %struct.cudaDeviceProp* %devProp, i64 0, i32 11, !dbg !985
  %13 = load i32, i32* %major, align 8, !dbg !985, !tbaa !987
  %cmp68 = icmp slt i32 %13, 1, !dbg !990
  br i1 %cmp68, label %if.then69, label %if.end71, !dbg !991

if.then69:                                        ; preds = %if.end67
  %call70 = call i32 (i8*, ...) @printf(i8* getelementptr inbounds ([33 x i8], [33 x i8]* @.str.26, i64 0, i64 0), i32 %device.0), !dbg !992
  br label %cleanup155, !dbg !994

if.end71:                                         ; preds = %if.end67
  %call73 = call i32 (i8*, ...) @printf(i8* getelementptr inbounds ([21 x i8], [21 x i8]* @.str.27, i64 0, i64 0), i32 %device.0, i8* nonnull %11), !dbg !995
  %call74 = call i32 @cudaSetDevice(i32 %device.0), !dbg !996
  %call76 = call i32 @cudaGetLastError(), !dbg !997
  call void @llvm.dbg.value(metadata i32 %call76, i64 0, metadata !829, metadata !675), !dbg !997
  %cmp77 = icmp eq i32 %call76, 0, !dbg !998
  br i1 %cmp77, label %if.end81, label %if.then78, !dbg !997

if.then78:                                        ; preds = %if.end71
  %14 = load %struct._IO_FILE*, %struct._IO_FILE** @stderr, align 8, !dbg !1000, !tbaa !862
  %call79 = call i8* @cudaGetErrorString(i32 %call76), !dbg !1000
  %call80 = call i32 (%struct._IO_FILE*, i8*, ...) @fprintf(%struct._IO_FILE* %14, i8* getelementptr inbounds ([17 x i8], [17 x i8]* @.str.20, i64 0, i64 0), i8* getelementptr inbounds ([22 x i8], [22 x i8]* @.str.21, i64 0, i64 0), i32 337, i8* getelementptr inbounds ([20 x i8], [20 x i8]* @.str.28, i64 0, i64 0), i8* %call79) #12, !dbg !1003
  call void @exit(i32 -1) #13, !dbg !1005
  unreachable, !dbg !1000

if.end81:                                         ; preds = %if.end71
  %call82 = call noalias i8* @malloc(i64 40) #10, !dbg !1007
  %15 = bitcast i8* %call82 to %struct.dwt*, !dbg !1008
  call void @llvm.dbg.value(metadata %struct.dwt* %15, i64 0, metadata !831, metadata !675), !dbg !1009
  %srcImg = getelementptr inbounds i8, i8* %call82, i64 16, !dbg !1010
  %16 = bitcast i8* %srcImg to i8**, !dbg !1010
  store i8* null, i8** %16, align 8, !dbg !1011, !tbaa !1012
  %pixWidth83 = getelementptr inbounds i8, i8* %call82, i64 24, !dbg !1014
  %17 = bitcast i8* %pixWidth83 to i32*, !dbg !1014
  store i32 %pixWidth.0, i32* %17, align 8, !dbg !1015, !tbaa !1016
  %pixHeight84 = getelementptr inbounds i8, i8* %call82, i64 28, !dbg !1017
  %18 = bitcast i8* %pixHeight84 to i32*, !dbg !1017
  store i32 %pixHeight.0, i32* %18, align 4, !dbg !1018, !tbaa !1019
  %components = getelementptr inbounds i8, i8* %call82, i64 32, !dbg !1020
  %19 = bitcast i8* %components to i32*, !dbg !1020
  store i32 %compCount.0, i32* %19, align 8, !dbg !1021, !tbaa !1022
  %dwtLvls85 = getelementptr inbounds i8, i8* %call82, i64 36, !dbg !1023
  %20 = bitcast i8* %dwtLvls85 to i32*, !dbg !1023
  store i32 %dwtLvls.0, i32* %20, align 4, !dbg !1024, !tbaa !1025
  %21 = load i8*, i8** %add.ptr27, align 8, !dbg !1026, !tbaa !862
  %call86 = call i64 @strlen(i8* %21) #11, !dbg !1027
  %call87 = call noalias i8* @malloc(i64 %call86) #10, !dbg !1028
  %srcFilename = bitcast i8* %call82 to i8**, !dbg !1031
  store i8* %call87, i8** %srcFilename, align 8, !dbg !1032, !tbaa !1033
  %call90 = call i8* @strcpy(i8* %call87, i8* %21) #10, !dbg !1034
  %cmp91 = icmp eq i32 %sub, 1, !dbg !1035
  br i1 %cmp91, label %if.then92, label %if.else, !dbg !1036

if.then92:                                        ; preds = %if.end81
  %call94 = call i64 @strlen(i8* %call87) #11, !dbg !1037
  %add = add i64 %call94, 4, !dbg !1038
  %call95 = call noalias i8* @malloc(i64 %add) #10, !dbg !1039
  %outFilename = getelementptr inbounds i8, i8* %call82, i64 8, !dbg !1041
  %22 = bitcast i8* %outFilename to i8**, !dbg !1041
  store i8* %call95, i8** %22, align 8, !dbg !1042, !tbaa !1043
  %call98 = call i8* @strcpy(i8* %call95, i8* %call87) #10, !dbg !1044
  %23 = load i8*, i8** %22, align 8, !dbg !1045, !tbaa !1043
  %24 = load i8*, i8** %srcFilename, align 8, !dbg !1046, !tbaa !1033
  %call101 = call i64 @strlen(i8* %24) #11, !dbg !1047
  %add.ptr102 = getelementptr inbounds i8, i8* %23, i64 %call101, !dbg !1048
  call void @llvm.memcpy.p0i8.p0i8.i64(i8* %add.ptr102, i8* getelementptr inbounds ([5 x i8], [5 x i8]* @.str.29, i64 0, i64 0), i64 5, i32 1, i1 false), !dbg !1049
  br label %if.end107, !dbg !1050

if.else:                                          ; preds = %if.end81
  %arrayidx104 = getelementptr inbounds i8*, i8** %add.ptr27, i64 1, !dbg !1051
  %25 = load i8*, i8** %arrayidx104, align 8, !dbg !1051, !tbaa !862
  %call105 = call noalias i8* @strdup(i8* %25) #10, !dbg !1053
  %outFilename106 = getelementptr inbounds i8, i8* %call82, i64 8, !dbg !1054
  %26 = bitcast i8* %outFilename106 to i8**, !dbg !1054
  store i8* %call105, i8** %26, align 8, !dbg !1055, !tbaa !1043
  br label %if.end107

if.end107:                                        ; preds = %if.else, %if.then92
  %27 = load i8*, i8** %srcFilename, align 8, !dbg !1056, !tbaa !1033
  %call109 = call i32 (i8*, ...) @printf(i8* getelementptr inbounds ([18 x i8], [18 x i8]* @.str.30, i64 0, i64 0), i8* %27), !dbg !1057
  %call110 = call i32 (i8*, ...) @printf(i8* getelementptr inbounds ([21 x i8], [21 x i8]* @.str.31, i64 0, i64 0), i32 %pixWidth.0, i32 %pixHeight.0), !dbg !1058
  %call111 = call i32 (i8*, ...) @printf(i8* getelementptr inbounds ([23 x i8], [23 x i8]* @.str.32, i64 0, i64 0), i32 %compCount.0), !dbg !1059
  %call112 = call i32 (i8*, ...) @printf(i8* getelementptr inbounds ([17 x i8], [17 x i8]* @.str.33, i64 0, i64 0), i32 %bitDepth.0), !dbg !1060
  %call113 = call i32 (i8*, ...) @printf(i8* getelementptr inbounds ([18 x i8], [18 x i8]* @.str.34, i64 0, i64 0), i32 %dwtLvls.0), !dbg !1061
  %call114 = call i32 (i8*, ...) @printf(i8* getelementptr inbounds ([24 x i8], [24 x i8]* @.str.35, i64 0, i64 0), i32 %forward.0), !dbg !1062
  %call115 = call i32 (i8*, ...) @printf(i8* getelementptr inbounds ([21 x i8], [21 x i8]* @.str.36, i64 0, i64 0), i32 %dwt97.0), !dbg !1063
  %mul = mul i32 %pixHeight.0, %compCount.0, !dbg !1064
  %mul116 = mul i32 %mul, %pixWidth.0, !dbg !1065
  call void @llvm.dbg.value(metadata i32 %mul116, i64 0, metadata !832, metadata !675), !dbg !1066
  %conv118 = sext i32 %mul116 to i64, !dbg !1067
  %call119 = call i32 @cudaMallocHost(i8** nonnull %16, i64 %conv118), !dbg !1068
  %call121 = call i32 @cudaGetLastError(), !dbg !1069
  call void @llvm.dbg.value(metadata i32 %call121, i64 0, metadata !833, metadata !675), !dbg !1069
  %cmp122 = icmp eq i32 %call121, 0, !dbg !1070
  br i1 %cmp122, label %if.end126, label %if.then123, !dbg !1069

if.then123:                                       ; preds = %if.end107
  %28 = load %struct._IO_FILE*, %struct._IO_FILE** @stderr, align 8, !dbg !1072, !tbaa !862
  %call124 = call i8* @cudaGetErrorString(i32 %call121), !dbg !1072
  %call125 = call i32 (%struct._IO_FILE*, i8*, ...) @fprintf(%struct._IO_FILE* %28, i8* getelementptr inbounds ([17 x i8], [17 x i8]* @.str.20, i64 0, i64 0), i8* getelementptr inbounds ([22 x i8], [22 x i8]* @.str.21, i64 0, i64 0), i32 372, i8* getelementptr inbounds ([18 x i8], [18 x i8]* @.str.37, i64 0, i64 0), i8* %call124) #12, !dbg !1075
  call void @exit(i32 -1) #13, !dbg !1077
  unreachable, !dbg !1072

if.end126:                                        ; preds = %if.end107
  %29 = load i8*, i8** %srcFilename, align 8, !dbg !1079, !tbaa !1033
  %30 = load i8*, i8** %16, align 8, !dbg !1081, !tbaa !1012
  %call129 = call i32 @_Z6getImgPcPhi(i8* %29, i8* %30, i32 %mul116), !dbg !1082
  %cmp130 = icmp eq i32 %call129, -1, !dbg !1083
  br i1 %cmp130, label %cleanup155, label %if.end132, !dbg !1084

if.end132:                                        ; preds = %if.end126
  %cmp133 = icmp eq i32 %forward.0, 1, !dbg !1085
  %cmp135 = icmp eq i32 %dwt97.0, 1, !dbg !1087
  br i1 %cmp133, label %if.then134, label %if.else139, !dbg !1090

if.then134:                                       ; preds = %if.end132
  br i1 %cmp135, label %if.then136, label %if.else137, !dbg !1091

if.then136:                                       ; preds = %if.then134
  call void @_Z10processDWTIfEvP3dwtii(%struct.dwt* nonnull %15, i32 1, i32 %.writeVisual.0), !dbg !1092
  br label %if.end144, !dbg !1092

if.else137:                                       ; preds = %if.then134
  call void @_Z10processDWTIiEvP3dwtii(%struct.dwt* nonnull %15, i32 1, i32 %.writeVisual.0), !dbg !1093
  br label %if.end144

if.else139:                                       ; preds = %if.end132
  br i1 %cmp135, label %if.then141, label %if.else142, !dbg !1094

if.then141:                                       ; preds = %if.else139
  call void @_Z10processDWTIfEvP3dwtii(%struct.dwt* nonnull %15, i32 %forward.0, i32 %.writeVisual.0), !dbg !1096
  br label %if.end144, !dbg !1096

if.else142:                                       ; preds = %if.else139
  call void @_Z10processDWTIiEvP3dwtii(%struct.dwt* nonnull %15, i32 %forward.0, i32 %.writeVisual.0), !dbg !1098
  br label %if.end144

if.end144:                                        ; preds = %if.then141, %if.else142, %if.then136, %if.else137
  %31 = load i8*, i8** %16, align 8, !dbg !1099, !tbaa !1012
  %call146 = call i32 @cudaFreeHost(i8* %31), !dbg !1100
  %call148 = call i32 @cudaGetLastError(), !dbg !1101
  call void @llvm.dbg.value(metadata i32 %call148, i64 0, metadata !835, metadata !675), !dbg !1101
  %cmp149 = icmp eq i32 %call148, 0, !dbg !1102
  br i1 %cmp149, label %cleanup155, label %if.then150, !dbg !1101

if.then150:                                       ; preds = %if.end144
  %32 = load %struct._IO_FILE*, %struct._IO_FILE** @stderr, align 8, !dbg !1104, !tbaa !862
  %call151 = call i8* @cudaGetErrorString(i32 %call148), !dbg !1104
  %call152 = call i32 (%struct._IO_FILE*, i8*, ...) @fprintf(%struct._IO_FILE* %32, i8* getelementptr inbounds ([17 x i8], [17 x i8]* @.str.20, i64 0, i64 0), i8* getelementptr inbounds ([22 x i8], [22 x i8]* @.str.21, i64 0, i64 0), i32 395, i8* getelementptr inbounds ([15 x i8], [15 x i8]* @.str.38, i64 0, i64 0), i8* %call151) #12, !dbg !1107
  call void @exit(i32 -1) #13, !dbg !1109
  unreachable, !dbg !1104

cleanup155:                                       ; preds = %if.end126, %if.end144, %if.then69
  %retval.0 = phi i32 [ -1, %if.then69 ], [ -1, %if.end126 ], [ 0, %if.end144 ]
  call void @llvm.lifetime.end(i64 632, i8* nonnull %11) #10, !dbg !1111
  br label %cleanup156

cleanup156:                                       ; preds = %cleanup155, %if.then56, %if.then49
  %retval.1 = phi i32 [ -1, %if.then49 ], [ -1, %if.then56 ], [ %retval.0, %cleanup155 ]
  call void @llvm.lifetime.end(i64 4, i8* %8) #10, !dbg !1111
  br label %cleanup157

cleanup157.loopexit:                              ; preds = %while.cond
  br label %cleanup157, !dbg !1111

cleanup157:                                       ; preds = %cleanup157.loopexit, %cleanup156, %if.then35, %if.then29, %sw.default, %sw.bb25, %if.then
  %retval.2 = phi i32 [ -1, %sw.default ], [ 0, %sw.bb25 ], [ -1, %if.then ], [ -1, %if.then29 ], [ -1, %if.then35 ], [ %retval.1, %cleanup156 ], [ -1, %cleanup157.loopexit ]
  call void @llvm.lifetime.end(i64 352, i8* %1) #10, !dbg !1111
  call void @llvm.lifetime.end(i64 4, i8* %0) #10, !dbg !1111
  ret i32 %retval.2, !dbg !1112
}

; Function Attrs: argmemonly nounwind
declare void @llvm.memcpy.p0i8.p0i8.i64(i8* nocapture writeonly, i8* nocapture readonly, i64, i32, i1) #2

; Function Attrs: nounwind
declare i32 @getopt_long(i32, i8**, i8*, %struct.option*, i32*) local_unnamed_addr #3

declare i32 @cudaGetDeviceCount(i32*) local_unnamed_addr #5

declare i32 @cudaGetLastError() local_unnamed_addr #5

; Function Attrs: nounwind
declare i32 @fprintf(%struct._IO_FILE* nocapture, i8* nocapture readonly, ...) local_unnamed_addr #3

declare i8* @cudaGetErrorString(i32) local_unnamed_addr #5

; Function Attrs: noreturn nounwind
declare void @exit(i32) local_unnamed_addr #9

declare i32 @cudaGetDeviceProperties(%struct.cudaDeviceProp*, i32) local_unnamed_addr #5

declare i32 @cudaSetDevice(i32) local_unnamed_addr #5

; Function Attrs: nounwind
declare i8* @strcpy(i8*, i8* nocapture readonly) local_unnamed_addr #3

; Function Attrs: nounwind
declare noalias i8* @strdup(i8* nocapture readonly) local_unnamed_addr #3

declare i32 @cudaMallocHost(i8**, i64) local_unnamed_addr #5

; Function Attrs: uwtable
define linkonce_odr void @_Z10processDWTIfEvP3dwtii(%struct.dwt* %d, i32 %forward, i32 %writeVisual) local_unnamed_addr #0 comdat !dbg !1114 {
entry:
  %c_r_out = alloca float*, align 8
  %backup = alloca float*, align 8
  %c_g_out = alloca float*, align 8
  %c_b_out = alloca float*, align 8
  %c_r = alloca float*, align 8
  %c_g = alloca float*, align 8
  %c_b = alloca float*, align 8
  %c_r184 = alloca float*, align 8
  tail call void @llvm.dbg.value(metadata %struct.dwt* %d, i64 0, metadata !1120, metadata !675), !dbg !1184
  tail call void @llvm.dbg.value(metadata i32 %forward, i64 0, metadata !1121, metadata !675), !dbg !1185
  tail call void @llvm.dbg.value(metadata i32 %writeVisual, i64 0, metadata !1122, metadata !675), !dbg !1186
  %pixWidth = getelementptr inbounds %struct.dwt, %struct.dwt* %d, i64 0, i32 3, !dbg !1187
  %0 = bitcast i32* %pixWidth to i64*, !dbg !1187
  %1 = load i64, i64* %0, align 8, !dbg !1187
  %2 = trunc i64 %1 to i32, !dbg !1187
  %3 = lshr i64 %1, 32, !dbg !1188
  %4 = trunc i64 %3 to i32, !dbg !1188
  %mul = shl i32 %2, 2, !dbg !1189
  %mul1 = mul i32 %mul, %4, !dbg !1190
  tail call void @llvm.dbg.value(metadata i32 %mul1, i64 0, metadata !1123, metadata !675), !dbg !1191
  %5 = bitcast float** %c_r_out to i8*, !dbg !1192
  call void @llvm.lifetime.start(i64 8, i8* %5) #10, !dbg !1192
  %6 = bitcast float** %backup to i8*, !dbg !1192
  call void @llvm.lifetime.start(i64 8, i8* %6) #10, !dbg !1192
  %7 = bitcast float** %c_r_out to i8**, !dbg !1193
  %conv3 = sext i32 %mul1 to i64, !dbg !1194
  %call = call i32 @cudaMalloc(i8** %7, i64 %conv3), !dbg !1195
  %call4 = call i32 @cudaGetLastError(), !dbg !1196
  call void @llvm.dbg.value(metadata i32 %call4, i64 0, metadata !1126, metadata !675), !dbg !1196
  %cmp = icmp eq i32 %call4, 0, !dbg !1197
  br i1 %cmp, label %if.end, label %if.then, !dbg !1196

if.then:                                          ; preds = %entry
  %8 = load %struct._IO_FILE*, %struct._IO_FILE** @stderr, align 8, !dbg !1199, !tbaa !862
  %call5 = call i8* @cudaGetErrorString(i32 %call4), !dbg !1199
  %call6 = call i32 (%struct._IO_FILE*, i8*, ...) @fprintf(%struct._IO_FILE* %8, i8* getelementptr inbounds ([17 x i8], [17 x i8]* @.str.20, i64 0, i64 0), i8* getelementptr inbounds ([22 x i8], [22 x i8]* @.str.21, i64 0, i64 0), i32 103, i8* getelementptr inbounds ([20 x i8], [20 x i8]* @.str.39, i64 0, i64 0), i8* %call5) #12, !dbg !1202
  call void @exit(i32 -1) #13, !dbg !1204
  unreachable, !dbg !1199

if.end:                                           ; preds = %entry
  %9 = load i8*, i8** %7, align 8, !dbg !1206, !tbaa !862
  %call8 = call i32 @cudaMemset(i8* %9, i32 0, i64 %conv3), !dbg !1207
  %call10 = call i32 @cudaGetLastError(), !dbg !1208
  call void @llvm.dbg.value(metadata i32 %call10, i64 0, metadata !1128, metadata !675), !dbg !1208
  %cmp11 = icmp eq i32 %call10, 0, !dbg !1209
  br i1 %cmp11, label %if.end15, label %if.then12, !dbg !1208

if.then12:                                        ; preds = %if.end
  %10 = load %struct._IO_FILE*, %struct._IO_FILE** @stderr, align 8, !dbg !1211, !tbaa !862
  %call13 = call i8* @cudaGetErrorString(i32 %call10), !dbg !1211
  %call14 = call i32 (%struct._IO_FILE*, i8*, ...) @fprintf(%struct._IO_FILE* %10, i8* getelementptr inbounds ([17 x i8], [17 x i8]* @.str.20, i64 0, i64 0), i8* getelementptr inbounds ([22 x i8], [22 x i8]* @.str.21, i64 0, i64 0), i32 105, i8* getelementptr inbounds ([21 x i8], [21 x i8]* @.str.40, i64 0, i64 0), i8* %call13) #12, !dbg !1214
  call void @exit(i32 -1) #13, !dbg !1216
  unreachable, !dbg !1211

if.end15:                                         ; preds = %if.end
  %11 = bitcast float** %backup to i8**, !dbg !1218
  %call17 = call i32 @cudaMalloc(i8** %11, i64 %conv3), !dbg !1219
  %call19 = call i32 @cudaGetLastError(), !dbg !1220
  call void @llvm.dbg.value(metadata i32 %call19, i64 0, metadata !1130, metadata !675), !dbg !1220
  %cmp20 = icmp eq i32 %call19, 0, !dbg !1221
  br i1 %cmp20, label %if.end24, label %if.then21, !dbg !1220

if.then21:                                        ; preds = %if.end15
  %12 = load %struct._IO_FILE*, %struct._IO_FILE** @stderr, align 8, !dbg !1223, !tbaa !862
  %call22 = call i8* @cudaGetErrorString(i32 %call19), !dbg !1223
  %call23 = call i32 (%struct._IO_FILE*, i8*, ...) @fprintf(%struct._IO_FILE* %12, i8* getelementptr inbounds ([17 x i8], [17 x i8]* @.str.20, i64 0, i64 0), i8* getelementptr inbounds ([22 x i8], [22 x i8]* @.str.21, i64 0, i64 0), i32 108, i8* getelementptr inbounds ([20 x i8], [20 x i8]* @.str.39, i64 0, i64 0), i8* %call22) #12, !dbg !1226
  call void @exit(i32 -1) #13, !dbg !1228
  unreachable, !dbg !1223

if.end24:                                         ; preds = %if.end15
  %13 = load i8*, i8** %11, align 8, !dbg !1230, !tbaa !862
  %call26 = call i32 @cudaMemset(i8* %13, i32 0, i64 %conv3), !dbg !1231
  %call28 = call i32 @cudaGetLastError(), !dbg !1232
  call void @llvm.dbg.value(metadata i32 %call28, i64 0, metadata !1132, metadata !675), !dbg !1232
  %cmp29 = icmp eq i32 %call28, 0, !dbg !1233
  br i1 %cmp29, label %if.end33, label %if.then30, !dbg !1232

if.then30:                                        ; preds = %if.end24
  %14 = load %struct._IO_FILE*, %struct._IO_FILE** @stderr, align 8, !dbg !1235, !tbaa !862
  %call31 = call i8* @cudaGetErrorString(i32 %call28), !dbg !1235
  %call32 = call i32 (%struct._IO_FILE*, i8*, ...) @fprintf(%struct._IO_FILE* %14, i8* getelementptr inbounds ([17 x i8], [17 x i8]* @.str.20, i64 0, i64 0), i8* getelementptr inbounds ([22 x i8], [22 x i8]* @.str.21, i64 0, i64 0), i32 110, i8* getelementptr inbounds ([21 x i8], [21 x i8]* @.str.40, i64 0, i64 0), i8* %call31) #12, !dbg !1238
  call void @exit(i32 -1) #13, !dbg !1240
  unreachable, !dbg !1235

if.end33:                                         ; preds = %if.end24
  %components = getelementptr inbounds %struct.dwt, %struct.dwt* %d, i64 0, i32 5, !dbg !1242
  %15 = load i32, i32* %components, align 8, !dbg !1242, !tbaa !1022
  switch i32 %15, label %if.end232 [
    i32 3, label %if.then35
    i32 1, label %if.then183
  ], !dbg !1243

if.then35:                                        ; preds = %if.end33
  %16 = bitcast float** %c_g_out to i8*, !dbg !1244
  call void @llvm.lifetime.start(i64 8, i8* %16) #10, !dbg !1244
  %17 = bitcast float** %c_b_out to i8*, !dbg !1244
  call void @llvm.lifetime.start(i64 8, i8* %17) #10, !dbg !1244
  %18 = bitcast float** %c_g_out to i8**, !dbg !1245
  %call37 = call i32 @cudaMalloc(i8** %18, i64 %conv3), !dbg !1246
  %call39 = call i32 @cudaGetLastError(), !dbg !1247
  call void @llvm.dbg.value(metadata i32 %call39, i64 0, metadata !1138, metadata !675), !dbg !1247
  %cmp40 = icmp eq i32 %call39, 0, !dbg !1248
  br i1 %cmp40, label %if.end44, label %if.then41, !dbg !1247

if.then41:                                        ; preds = %if.then35
  %19 = load %struct._IO_FILE*, %struct._IO_FILE** @stderr, align 8, !dbg !1250, !tbaa !862
  %call42 = call i8* @cudaGetErrorString(i32 %call39), !dbg !1250
  %call43 = call i32 (%struct._IO_FILE*, i8*, ...) @fprintf(%struct._IO_FILE* %19, i8* getelementptr inbounds ([17 x i8], [17 x i8]* @.str.20, i64 0, i64 0), i8* getelementptr inbounds ([22 x i8], [22 x i8]* @.str.21, i64 0, i64 0), i32 116, i8* getelementptr inbounds ([20 x i8], [20 x i8]* @.str.39, i64 0, i64 0), i8* %call42) #12, !dbg !1253
  call void @exit(i32 -1) #13, !dbg !1255
  unreachable, !dbg !1250

if.end44:                                         ; preds = %if.then35
  %20 = load i8*, i8** %18, align 8, !dbg !1257, !tbaa !862
  %call46 = call i32 @cudaMemset(i8* %20, i32 0, i64 %conv3), !dbg !1258
  %call48 = call i32 @cudaGetLastError(), !dbg !1259
  call void @llvm.dbg.value(metadata i32 %call48, i64 0, metadata !1140, metadata !675), !dbg !1259
  %cmp49 = icmp eq i32 %call48, 0, !dbg !1260
  br i1 %cmp49, label %if.end53, label %if.then50, !dbg !1259

if.then50:                                        ; preds = %if.end44
  %21 = load %struct._IO_FILE*, %struct._IO_FILE** @stderr, align 8, !dbg !1262, !tbaa !862
  %call51 = call i8* @cudaGetErrorString(i32 %call48), !dbg !1262
  %call52 = call i32 (%struct._IO_FILE*, i8*, ...) @fprintf(%struct._IO_FILE* %21, i8* getelementptr inbounds ([17 x i8], [17 x i8]* @.str.20, i64 0, i64 0), i8* getelementptr inbounds ([22 x i8], [22 x i8]* @.str.21, i64 0, i64 0), i32 118, i8* getelementptr inbounds ([21 x i8], [21 x i8]* @.str.40, i64 0, i64 0), i8* %call51) #12, !dbg !1265
  call void @exit(i32 -1) #13, !dbg !1267
  unreachable, !dbg !1262

if.end53:                                         ; preds = %if.end44
  %22 = bitcast float** %c_b_out to i8**, !dbg !1269
  %call55 = call i32 @cudaMalloc(i8** %22, i64 %conv3), !dbg !1270
  %call57 = call i32 @cudaGetLastError(), !dbg !1271
  call void @llvm.dbg.value(metadata i32 %call57, i64 0, metadata !1142, metadata !675), !dbg !1271
  %cmp58 = icmp eq i32 %call57, 0, !dbg !1272
  br i1 %cmp58, label %if.end62, label %if.then59, !dbg !1271

if.then59:                                        ; preds = %if.end53
  %23 = load %struct._IO_FILE*, %struct._IO_FILE** @stderr, align 8, !dbg !1274, !tbaa !862
  %call60 = call i8* @cudaGetErrorString(i32 %call57), !dbg !1274
  %call61 = call i32 (%struct._IO_FILE*, i8*, ...) @fprintf(%struct._IO_FILE* %23, i8* getelementptr inbounds ([17 x i8], [17 x i8]* @.str.20, i64 0, i64 0), i8* getelementptr inbounds ([22 x i8], [22 x i8]* @.str.21, i64 0, i64 0), i32 121, i8* getelementptr inbounds ([20 x i8], [20 x i8]* @.str.39, i64 0, i64 0), i8* %call60) #12, !dbg !1277
  call void @exit(i32 -1) #13, !dbg !1279
  unreachable, !dbg !1274

if.end62:                                         ; preds = %if.end53
  %24 = load i8*, i8** %22, align 8, !dbg !1281, !tbaa !862
  %call64 = call i32 @cudaMemset(i8* %24, i32 0, i64 %conv3), !dbg !1282
  %call66 = call i32 @cudaGetLastError(), !dbg !1283
  call void @llvm.dbg.value(metadata i32 %call66, i64 0, metadata !1144, metadata !675), !dbg !1283
  %cmp67 = icmp eq i32 %call66, 0, !dbg !1284
  br i1 %cmp67, label %if.end71, label %if.then68, !dbg !1283

if.then68:                                        ; preds = %if.end62
  %25 = load %struct._IO_FILE*, %struct._IO_FILE** @stderr, align 8, !dbg !1286, !tbaa !862
  %call69 = call i8* @cudaGetErrorString(i32 %call66), !dbg !1286
  %call70 = call i32 (%struct._IO_FILE*, i8*, ...) @fprintf(%struct._IO_FILE* %25, i8* getelementptr inbounds ([17 x i8], [17 x i8]* @.str.20, i64 0, i64 0), i8* getelementptr inbounds ([22 x i8], [22 x i8]* @.str.21, i64 0, i64 0), i32 123, i8* getelementptr inbounds ([21 x i8], [21 x i8]* @.str.40, i64 0, i64 0), i8* %call69) #12, !dbg !1289
  call void @exit(i32 -1) #13, !dbg !1291
  unreachable, !dbg !1286

if.end71:                                         ; preds = %if.end62
  %26 = bitcast float** %c_r to i8*, !dbg !1293
  call void @llvm.lifetime.start(i64 8, i8* %26) #10, !dbg !1293
  %27 = bitcast float** %c_g to i8*, !dbg !1293
  call void @llvm.lifetime.start(i64 8, i8* %27) #10, !dbg !1293
  %28 = bitcast float** %c_b to i8*, !dbg !1293
  call void @llvm.lifetime.start(i64 8, i8* %28) #10, !dbg !1293
  %29 = bitcast float** %c_r to i8**, !dbg !1294
  %call73 = call i32 @cudaMalloc(i8** %29, i64 %conv3), !dbg !1295
  %call75 = call i32 @cudaGetLastError(), !dbg !1296
  call void @llvm.dbg.value(metadata i32 %call75, i64 0, metadata !1149, metadata !675), !dbg !1296
  %cmp76 = icmp eq i32 %call75, 0, !dbg !1297
  br i1 %cmp76, label %if.end80, label %if.then77, !dbg !1296

if.then77:                                        ; preds = %if.end71
  %30 = load %struct._IO_FILE*, %struct._IO_FILE** @stderr, align 8, !dbg !1299, !tbaa !862
  %call78 = call i8* @cudaGetErrorString(i32 %call75), !dbg !1299
  %call79 = call i32 (%struct._IO_FILE*, i8*, ...) @fprintf(%struct._IO_FILE* %30, i8* getelementptr inbounds ([17 x i8], [17 x i8]* @.str.20, i64 0, i64 0), i8* getelementptr inbounds ([22 x i8], [22 x i8]* @.str.21, i64 0, i64 0), i32 128, i8* getelementptr inbounds ([20 x i8], [20 x i8]* @.str.39, i64 0, i64 0), i8* %call78) #12, !dbg !1302
  call void @exit(i32 -1) #13, !dbg !1304
  unreachable, !dbg !1299

if.end80:                                         ; preds = %if.end71
  %31 = load i8*, i8** %29, align 8, !dbg !1306, !tbaa !862
  %call82 = call i32 @cudaMemset(i8* %31, i32 0, i64 %conv3), !dbg !1307
  %call84 = call i32 @cudaGetLastError(), !dbg !1308
  call void @llvm.dbg.value(metadata i32 %call84, i64 0, metadata !1151, metadata !675), !dbg !1308
  %cmp85 = icmp eq i32 %call84, 0, !dbg !1309
  br i1 %cmp85, label %if.end89, label %if.then86, !dbg !1308

if.then86:                                        ; preds = %if.end80
  %32 = load %struct._IO_FILE*, %struct._IO_FILE** @stderr, align 8, !dbg !1311, !tbaa !862
  %call87 = call i8* @cudaGetErrorString(i32 %call84), !dbg !1311
  %call88 = call i32 (%struct._IO_FILE*, i8*, ...) @fprintf(%struct._IO_FILE* %32, i8* getelementptr inbounds ([17 x i8], [17 x i8]* @.str.20, i64 0, i64 0), i8* getelementptr inbounds ([22 x i8], [22 x i8]* @.str.21, i64 0, i64 0), i32 130, i8* getelementptr inbounds ([21 x i8], [21 x i8]* @.str.40, i64 0, i64 0), i8* %call87) #12, !dbg !1314
  call void @exit(i32 -1) #13, !dbg !1316
  unreachable, !dbg !1311

if.end89:                                         ; preds = %if.end80
  %33 = bitcast float** %c_g to i8**, !dbg !1318
  %call91 = call i32 @cudaMalloc(i8** %33, i64 %conv3), !dbg !1319
  %call93 = call i32 @cudaGetLastError(), !dbg !1320
  call void @llvm.dbg.value(metadata i32 %call93, i64 0, metadata !1153, metadata !675), !dbg !1320
  %cmp94 = icmp eq i32 %call93, 0, !dbg !1321
  br i1 %cmp94, label %if.end98, label %if.then95, !dbg !1320

if.then95:                                        ; preds = %if.end89
  %34 = load %struct._IO_FILE*, %struct._IO_FILE** @stderr, align 8, !dbg !1323, !tbaa !862
  %call96 = call i8* @cudaGetErrorString(i32 %call93), !dbg !1323
  %call97 = call i32 (%struct._IO_FILE*, i8*, ...) @fprintf(%struct._IO_FILE* %34, i8* getelementptr inbounds ([17 x i8], [17 x i8]* @.str.20, i64 0, i64 0), i8* getelementptr inbounds ([22 x i8], [22 x i8]* @.str.21, i64 0, i64 0), i32 133, i8* getelementptr inbounds ([20 x i8], [20 x i8]* @.str.39, i64 0, i64 0), i8* %call96) #12, !dbg !1326
  call void @exit(i32 -1) #13, !dbg !1328
  unreachable, !dbg !1323

if.end98:                                         ; preds = %if.end89
  %35 = load i8*, i8** %33, align 8, !dbg !1330, !tbaa !862
  %call100 = call i32 @cudaMemset(i8* %35, i32 0, i64 %conv3), !dbg !1331
  %call102 = call i32 @cudaGetLastError(), !dbg !1332
  call void @llvm.dbg.value(metadata i32 %call102, i64 0, metadata !1155, metadata !675), !dbg !1332
  %cmp103 = icmp eq i32 %call102, 0, !dbg !1333
  br i1 %cmp103, label %if.end107, label %if.then104, !dbg !1332

if.then104:                                       ; preds = %if.end98
  %36 = load %struct._IO_FILE*, %struct._IO_FILE** @stderr, align 8, !dbg !1335, !tbaa !862
  %call105 = call i8* @cudaGetErrorString(i32 %call102), !dbg !1335
  %call106 = call i32 (%struct._IO_FILE*, i8*, ...) @fprintf(%struct._IO_FILE* %36, i8* getelementptr inbounds ([17 x i8], [17 x i8]* @.str.20, i64 0, i64 0), i8* getelementptr inbounds ([22 x i8], [22 x i8]* @.str.21, i64 0, i64 0), i32 135, i8* getelementptr inbounds ([21 x i8], [21 x i8]* @.str.40, i64 0, i64 0), i8* %call105) #12, !dbg !1338
  call void @exit(i32 -1) #13, !dbg !1340
  unreachable, !dbg !1335

if.end107:                                        ; preds = %if.end98
  %37 = bitcast float** %c_b to i8**, !dbg !1342
  %call109 = call i32 @cudaMalloc(i8** %37, i64 %conv3), !dbg !1343
  %call111 = call i32 @cudaGetLastError(), !dbg !1344
  call void @llvm.dbg.value(metadata i32 %call111, i64 0, metadata !1157, metadata !675), !dbg !1344
  %cmp112 = icmp eq i32 %call111, 0, !dbg !1345
  br i1 %cmp112, label %if.end116, label %if.then113, !dbg !1344

if.then113:                                       ; preds = %if.end107
  %38 = load %struct._IO_FILE*, %struct._IO_FILE** @stderr, align 8, !dbg !1347, !tbaa !862
  %call114 = call i8* @cudaGetErrorString(i32 %call111), !dbg !1347
  %call115 = call i32 (%struct._IO_FILE*, i8*, ...) @fprintf(%struct._IO_FILE* %38, i8* getelementptr inbounds ([17 x i8], [17 x i8]* @.str.20, i64 0, i64 0), i8* getelementptr inbounds ([22 x i8], [22 x i8]* @.str.21, i64 0, i64 0), i32 138, i8* getelementptr inbounds ([20 x i8], [20 x i8]* @.str.39, i64 0, i64 0), i8* %call114) #12, !dbg !1350
  call void @exit(i32 -1) #13, !dbg !1352
  unreachable, !dbg !1347

if.end116:                                        ; preds = %if.end107
  %39 = load i8*, i8** %37, align 8, !dbg !1354, !tbaa !862
  %call118 = call i32 @cudaMemset(i8* %39, i32 0, i64 %conv3), !dbg !1355
  %call120 = call i32 @cudaGetLastError(), !dbg !1356
  call void @llvm.dbg.value(metadata i32 %call120, i64 0, metadata !1159, metadata !675), !dbg !1356
  %cmp121 = icmp eq i32 %call120, 0, !dbg !1357
  br i1 %cmp121, label %if.end125, label %if.then122, !dbg !1356

if.then122:                                       ; preds = %if.end116
  %40 = load %struct._IO_FILE*, %struct._IO_FILE** @stderr, align 8, !dbg !1359, !tbaa !862
  %call123 = call i8* @cudaGetErrorString(i32 %call120), !dbg !1359
  %call124 = call i32 (%struct._IO_FILE*, i8*, ...) @fprintf(%struct._IO_FILE* %40, i8* getelementptr inbounds ([17 x i8], [17 x i8]* @.str.20, i64 0, i64 0), i8* getelementptr inbounds ([22 x i8], [22 x i8]* @.str.21, i64 0, i64 0), i32 140, i8* getelementptr inbounds ([21 x i8], [21 x i8]* @.str.40, i64 0, i64 0), i8* %call123) #12, !dbg !1362
  call void @exit(i32 -1) #13, !dbg !1364
  unreachable, !dbg !1359

if.end125:                                        ; preds = %if.end116
  %41 = load float*, float** %c_r, align 8, !dbg !1366, !tbaa !862
  call void @llvm.dbg.value(metadata float* %41, i64 0, metadata !1146, metadata !675), !dbg !1367
  %42 = load float*, float** %c_g, align 8, !dbg !1368, !tbaa !862
  call void @llvm.dbg.value(metadata float* %42, i64 0, metadata !1147, metadata !675), !dbg !1369
  %43 = load float*, float** %c_b, align 8, !dbg !1370, !tbaa !862
  call void @llvm.dbg.value(metadata float* %43, i64 0, metadata !1148, metadata !675), !dbg !1371
  %srcImg = getelementptr inbounds %struct.dwt, %struct.dwt* %d, i64 0, i32 2, !dbg !1372
  %44 = load i8*, i8** %srcImg, align 8, !dbg !1372, !tbaa !1012
  %45 = load i64, i64* %0, align 8, !dbg !1373
  %46 = trunc i64 %45 to i32, !dbg !1373
  %47 = lshr i64 %45, 32, !dbg !1374
  %48 = trunc i64 %47 to i32, !dbg !1374
  call void @_Z15rgbToComponentsIfEvPT_S1_S1_Phii(float* %41, float* %42, float* %43, i8* %44, i32 %46, i32 %48), !dbg !1375
  %49 = load float*, float** %c_r, align 8, !dbg !1376, !tbaa !862
  call void @llvm.dbg.value(metadata float* %49, i64 0, metadata !1146, metadata !675), !dbg !1367
  %50 = load float*, float** %c_r_out, align 8, !dbg !1377, !tbaa !862
  call void @llvm.dbg.value(metadata float* %50, i64 0, metadata !1124, metadata !675), !dbg !1378
  %51 = load float*, float** %backup, align 8, !dbg !1379, !tbaa !862
  call void @llvm.dbg.value(metadata float* %51, i64 0, metadata !1125, metadata !675), !dbg !1380
  %52 = load i64, i64* %0, align 8, !dbg !1381
  %53 = trunc i64 %52 to i32, !dbg !1381
  %54 = lshr i64 %52, 32, !dbg !1382
  %55 = trunc i64 %54 to i32, !dbg !1382
  %dwtLvls = getelementptr inbounds %struct.dwt, %struct.dwt* %d, i64 0, i32 6, !dbg !1383
  %56 = load i32, i32* %dwtLvls, align 4, !dbg !1383, !tbaa !1025
  %tobool = icmp ne i32 %forward, 0, !dbg !1384
  %call130 = call i32 @_Z11nStage2dDWTIfEiPT_S1_S1_iiib(float* %49, float* %50, float* %51, i32 %53, i32 %55, i32 %56, i1 zeroext %tobool), !dbg !1385
  %57 = load float*, float** %c_g, align 8, !dbg !1386, !tbaa !862
  call void @llvm.dbg.value(metadata float* %57, i64 0, metadata !1147, metadata !675), !dbg !1369
  %58 = load float*, float** %c_g_out, align 8, !dbg !1387, !tbaa !862
  call void @llvm.dbg.value(metadata float* %58, i64 0, metadata !1134, metadata !675), !dbg !1388
  %59 = load float*, float** %backup, align 8, !dbg !1389, !tbaa !862
  call void @llvm.dbg.value(metadata float* %59, i64 0, metadata !1125, metadata !675), !dbg !1380
  %60 = load i64, i64* %0, align 8, !dbg !1390
  %61 = trunc i64 %60 to i32, !dbg !1390
  %62 = lshr i64 %60, 32, !dbg !1391
  %63 = trunc i64 %62 to i32, !dbg !1391
  %64 = load i32, i32* %dwtLvls, align 4, !dbg !1392, !tbaa !1025
  %call135 = call i32 @_Z11nStage2dDWTIfEiPT_S1_S1_iiib(float* %57, float* %58, float* %59, i32 %61, i32 %63, i32 %64, i1 zeroext %tobool), !dbg !1393
  %65 = load float*, float** %c_b, align 8, !dbg !1394, !tbaa !862
  call void @llvm.dbg.value(metadata float* %65, i64 0, metadata !1148, metadata !675), !dbg !1371
  %66 = load float*, float** %c_b_out, align 8, !dbg !1395, !tbaa !862
  call void @llvm.dbg.value(metadata float* %66, i64 0, metadata !1137, metadata !675), !dbg !1396
  %67 = load float*, float** %backup, align 8, !dbg !1397, !tbaa !862
  call void @llvm.dbg.value(metadata float* %67, i64 0, metadata !1125, metadata !675), !dbg !1380
  %68 = load i64, i64* %0, align 8, !dbg !1398
  %69 = trunc i64 %68 to i32, !dbg !1398
  %70 = lshr i64 %68, 32, !dbg !1399
  %71 = trunc i64 %70 to i32, !dbg !1399
  %72 = load i32, i32* %dwtLvls, align 4, !dbg !1400, !tbaa !1025
  %call140 = call i32 @_Z11nStage2dDWTIfEiPT_S1_S1_iiib(float* %65, float* %66, float* %67, i32 %69, i32 %71, i32 %72, i1 zeroext %tobool), !dbg !1401
  %73 = load i8*, i8** %29, align 8, !dbg !1402, !tbaa !862
  %call141 = call i32 @cudaFree(i8* %73), !dbg !1403
  %call143 = call i32 @cudaGetLastError(), !dbg !1404
  call void @llvm.dbg.value(metadata i32 %call143, i64 0, metadata !1161, metadata !675), !dbg !1404
  %cmp144 = icmp eq i32 %call143, 0, !dbg !1405
  br i1 %cmp144, label %if.end148, label %if.then145, !dbg !1404

if.then145:                                       ; preds = %if.end125
  %74 = load %struct._IO_FILE*, %struct._IO_FILE** @stderr, align 8, !dbg !1407, !tbaa !862
  %call146 = call i8* @cudaGetErrorString(i32 %call143), !dbg !1407
  %call147 = call i32 (%struct._IO_FILE*, i8*, ...) @fprintf(%struct._IO_FILE* %74, i8* getelementptr inbounds ([17 x i8], [17 x i8]* @.str.20, i64 0, i64 0), i8* getelementptr inbounds ([22 x i8], [22 x i8]* @.str.21, i64 0, i64 0), i32 177, i8* getelementptr inbounds ([10 x i8], [10 x i8]* @.str.41, i64 0, i64 0), i8* %call146) #12, !dbg !1410
  call void @exit(i32 -1) #13, !dbg !1412
  unreachable, !dbg !1407

if.end148:                                        ; preds = %if.end125
  %75 = load i8*, i8** %33, align 8, !dbg !1414, !tbaa !862
  %call149 = call i32 @cudaFree(i8* %75), !dbg !1415
  %call151 = call i32 @cudaGetLastError(), !dbg !1416
  call void @llvm.dbg.value(metadata i32 %call151, i64 0, metadata !1163, metadata !675), !dbg !1416
  %cmp152 = icmp eq i32 %call151, 0, !dbg !1417
  br i1 %cmp152, label %if.end156, label %if.then153, !dbg !1416

if.then153:                                       ; preds = %if.end148
  %76 = load %struct._IO_FILE*, %struct._IO_FILE** @stderr, align 8, !dbg !1419, !tbaa !862
  %call154 = call i8* @cudaGetErrorString(i32 %call151), !dbg !1419
  %call155 = call i32 (%struct._IO_FILE*, i8*, ...) @fprintf(%struct._IO_FILE* %76, i8* getelementptr inbounds ([17 x i8], [17 x i8]* @.str.20, i64 0, i64 0), i8* getelementptr inbounds ([22 x i8], [22 x i8]* @.str.21, i64 0, i64 0), i32 179, i8* getelementptr inbounds ([10 x i8], [10 x i8]* @.str.41, i64 0, i64 0), i8* %call154) #12, !dbg !1422
  call void @exit(i32 -1) #13, !dbg !1424
  unreachable, !dbg !1419

if.end156:                                        ; preds = %if.end148
  %77 = load i8*, i8** %37, align 8, !dbg !1426, !tbaa !862
  %call157 = call i32 @cudaFree(i8* %77), !dbg !1427
  %call159 = call i32 @cudaGetLastError(), !dbg !1428
  call void @llvm.dbg.value(metadata i32 %call159, i64 0, metadata !1165, metadata !675), !dbg !1428
  %cmp160 = icmp eq i32 %call159, 0, !dbg !1429
  br i1 %cmp160, label %if.end164, label %if.then161, !dbg !1428

if.then161:                                       ; preds = %if.end156
  %78 = load %struct._IO_FILE*, %struct._IO_FILE** @stderr, align 8, !dbg !1431, !tbaa !862
  %call162 = call i8* @cudaGetErrorString(i32 %call159), !dbg !1431
  %call163 = call i32 (%struct._IO_FILE*, i8*, ...) @fprintf(%struct._IO_FILE* %78, i8* getelementptr inbounds ([17 x i8], [17 x i8]* @.str.20, i64 0, i64 0), i8* getelementptr inbounds ([22 x i8], [22 x i8]* @.str.21, i64 0, i64 0), i32 181, i8* getelementptr inbounds ([10 x i8], [10 x i8]* @.str.41, i64 0, i64 0), i8* %call162) #12, !dbg !1434
  call void @exit(i32 -1) #13, !dbg !1436
  unreachable, !dbg !1431

if.end164:                                        ; preds = %if.end156
  %79 = load i8*, i8** %18, align 8, !dbg !1438, !tbaa !862
  %call165 = call i32 @cudaFree(i8* %79), !dbg !1439
  %call167 = call i32 @cudaGetLastError(), !dbg !1440
  call void @llvm.dbg.value(metadata i32 %call167, i64 0, metadata !1167, metadata !675), !dbg !1440
  %cmp168 = icmp eq i32 %call167, 0, !dbg !1441
  br i1 %cmp168, label %if.end172, label %if.then169, !dbg !1440

if.then169:                                       ; preds = %if.end164
  %80 = load %struct._IO_FILE*, %struct._IO_FILE** @stderr, align 8, !dbg !1443, !tbaa !862
  %call170 = call i8* @cudaGetErrorString(i32 %call167), !dbg !1443
  %call171 = call i32 (%struct._IO_FILE*, i8*, ...) @fprintf(%struct._IO_FILE* %80, i8* getelementptr inbounds ([17 x i8], [17 x i8]* @.str.20, i64 0, i64 0), i8* getelementptr inbounds ([22 x i8], [22 x i8]* @.str.21, i64 0, i64 0), i32 183, i8* getelementptr inbounds ([10 x i8], [10 x i8]* @.str.41, i64 0, i64 0), i8* %call170) #12, !dbg !1446
  call void @exit(i32 -1) #13, !dbg !1448
  unreachable, !dbg !1443

if.end172:                                        ; preds = %if.end164
  %81 = load i8*, i8** %22, align 8, !dbg !1450, !tbaa !862
  %call173 = call i32 @cudaFree(i8* %81), !dbg !1451
  %call175 = call i32 @cudaGetLastError(), !dbg !1452
  call void @llvm.dbg.value(metadata i32 %call175, i64 0, metadata !1169, metadata !675), !dbg !1452
  %cmp176 = icmp eq i32 %call175, 0, !dbg !1453
  br i1 %cmp176, label %if.end180, label %if.then177, !dbg !1452

if.then177:                                       ; preds = %if.end172
  %82 = load %struct._IO_FILE*, %struct._IO_FILE** @stderr, align 8, !dbg !1455, !tbaa !862
  %call178 = call i8* @cudaGetErrorString(i32 %call175), !dbg !1455
  %call179 = call i32 (%struct._IO_FILE*, i8*, ...) @fprintf(%struct._IO_FILE* %82, i8* getelementptr inbounds ([17 x i8], [17 x i8]* @.str.20, i64 0, i64 0), i8* getelementptr inbounds ([22 x i8], [22 x i8]* @.str.21, i64 0, i64 0), i32 185, i8* getelementptr inbounds ([10 x i8], [10 x i8]* @.str.41, i64 0, i64 0), i8* %call178) #12, !dbg !1458
  call void @exit(i32 -1) #13, !dbg !1460
  unreachable, !dbg !1455

if.end180:                                        ; preds = %if.end172
  call void @llvm.lifetime.end(i64 8, i8* nonnull %28) #10, !dbg !1462
  call void @llvm.lifetime.end(i64 8, i8* nonnull %27) #10, !dbg !1462
  call void @llvm.lifetime.end(i64 8, i8* nonnull %26) #10, !dbg !1462
  call void @llvm.lifetime.end(i64 8, i8* nonnull %17) #10, !dbg !1462
  call void @llvm.lifetime.end(i64 8, i8* nonnull %16) #10, !dbg !1462
  br label %if.end232, !dbg !1463

if.then183:                                       ; preds = %if.end33
  %83 = bitcast float** %c_r184 to i8*, !dbg !1464
  call void @llvm.lifetime.start(i64 8, i8* %83) #10, !dbg !1464
  %84 = bitcast float** %c_r184 to i8**, !dbg !1465
  %call186 = call i32 @cudaMalloc(i8** %84, i64 %conv3), !dbg !1466
  %call188 = call i32 @cudaGetLastError(), !dbg !1467
  call void @llvm.dbg.value(metadata i32 %call188, i64 0, metadata !1174, metadata !675), !dbg !1467
  %cmp189 = icmp eq i32 %call188, 0, !dbg !1468
  br i1 %cmp189, label %if.end193, label %if.then190, !dbg !1467

if.then190:                                       ; preds = %if.then183
  %85 = load %struct._IO_FILE*, %struct._IO_FILE** @stderr, align 8, !dbg !1470, !tbaa !862
  %call191 = call i8* @cudaGetErrorString(i32 %call188), !dbg !1470
  %call192 = call i32 (%struct._IO_FILE*, i8*, ...) @fprintf(%struct._IO_FILE* %85, i8* getelementptr inbounds ([17 x i8], [17 x i8]* @.str.20, i64 0, i64 0), i8* getelementptr inbounds ([22 x i8], [22 x i8]* @.str.21, i64 0, i64 0), i32 192, i8* getelementptr inbounds ([20 x i8], [20 x i8]* @.str.39, i64 0, i64 0), i8* %call191) #12, !dbg !1473
  call void @exit(i32 -1) #13, !dbg !1475
  unreachable, !dbg !1470

if.end193:                                        ; preds = %if.then183
  %86 = load i8*, i8** %84, align 8, !dbg !1477, !tbaa !862
  %call195 = call i32 @cudaMemset(i8* %86, i32 0, i64 %conv3), !dbg !1478
  %call197 = call i32 @cudaGetLastError(), !dbg !1479
  call void @llvm.dbg.value(metadata i32 %call197, i64 0, metadata !1176, metadata !675), !dbg !1479
  %cmp198 = icmp eq i32 %call197, 0, !dbg !1480
  br i1 %cmp198, label %if.end202, label %if.then199, !dbg !1479

if.then199:                                       ; preds = %if.end193
  %87 = load %struct._IO_FILE*, %struct._IO_FILE** @stderr, align 8, !dbg !1482, !tbaa !862
  %call200 = call i8* @cudaGetErrorString(i32 %call197), !dbg !1482
  %call201 = call i32 (%struct._IO_FILE*, i8*, ...) @fprintf(%struct._IO_FILE* %87, i8* getelementptr inbounds ([17 x i8], [17 x i8]* @.str.20, i64 0, i64 0), i8* getelementptr inbounds ([22 x i8], [22 x i8]* @.str.21, i64 0, i64 0), i32 194, i8* getelementptr inbounds ([21 x i8], [21 x i8]* @.str.40, i64 0, i64 0), i8* %call200) #12, !dbg !1485
  call void @exit(i32 -1) #13, !dbg !1487
  unreachable, !dbg !1482

if.end202:                                        ; preds = %if.end193
  %88 = load float*, float** %c_r184, align 8, !dbg !1489, !tbaa !862
  call void @llvm.dbg.value(metadata float* %88, i64 0, metadata !1171, metadata !675), !dbg !1490
  %srcImg203 = getelementptr inbounds %struct.dwt, %struct.dwt* %d, i64 0, i32 2, !dbg !1491
  %89 = load i8*, i8** %srcImg203, align 8, !dbg !1491, !tbaa !1012
  %90 = load i64, i64* %0, align 8, !dbg !1492
  %91 = trunc i64 %90 to i32, !dbg !1492
  %92 = lshr i64 %90, 32, !dbg !1493
  %93 = trunc i64 %92 to i32, !dbg !1493
  call void @_Z13bwToComponentIfEvPT_Phii(float* %88, i8* %89, i32 %91, i32 %93), !dbg !1494
  %94 = load float*, float** %c_r184, align 8, !dbg !1495, !tbaa !862
  call void @llvm.dbg.value(metadata float* %94, i64 0, metadata !1171, metadata !675), !dbg !1490
  %95 = load float*, float** %c_r_out, align 8, !dbg !1496, !tbaa !862
  call void @llvm.dbg.value(metadata float* %95, i64 0, metadata !1124, metadata !675), !dbg !1378
  %96 = load float*, float** %backup, align 8, !dbg !1497, !tbaa !862
  call void @llvm.dbg.value(metadata float* %96, i64 0, metadata !1125, metadata !675), !dbg !1380
  %97 = load i64, i64* %0, align 8, !dbg !1498
  %98 = trunc i64 %97 to i32, !dbg !1498
  %99 = lshr i64 %97, 32, !dbg !1499
  %100 = trunc i64 %99 to i32, !dbg !1499
  %dwtLvls208 = getelementptr inbounds %struct.dwt, %struct.dwt* %d, i64 0, i32 6, !dbg !1500
  %101 = load i32, i32* %dwtLvls208, align 4, !dbg !1500, !tbaa !1025
  %tobool209 = icmp ne i32 %forward, 0, !dbg !1501
  %call210 = call i32 @_Z11nStage2dDWTIfEiPT_S1_S1_iiib(float* %94, float* %95, float* %96, i32 %98, i32 %100, i32 %101, i1 zeroext %tobool209), !dbg !1502
  %tobool211 = icmp eq i32 %writeVisual, 0, !dbg !1503
  %102 = load float*, float** %c_r_out, align 8, !dbg !1505, !tbaa !862
  call void @llvm.dbg.value(metadata float* %102, i64 0, metadata !1124, metadata !675), !dbg !1378
  %103 = load i64, i64* %0, align 8, !dbg !1507
  %104 = trunc i64 %103 to i32, !dbg !1507
  %105 = lshr i64 %103, 32, !dbg !1508
  %106 = trunc i64 %105 to i32, !dbg !1508
  %107 = getelementptr inbounds %struct.dwt, %struct.dwt* %d, i64 0, i32 1, !dbg !1509
  %108 = load i8*, i8** %107, align 8, !dbg !1509, !tbaa !1043
  br i1 %tobool211, label %if.else217, label %if.then212, !dbg !1510

if.then212:                                       ; preds = %if.end202
  %109 = load i32, i32* %dwtLvls208, align 4, !dbg !1511, !tbaa !1025
  %call216 = call i32 @_Z16writeNStage2DDWTIfEiPT_iiiPKcS3_(float* %102, i32 %104, i32 %106, i32 %109, i8* %108, i8* getelementptr inbounds ([5 x i8], [5 x i8]* @.str.42, i64 0, i64 0)), !dbg !1512
  br label %if.end222, !dbg !1513

if.else217:                                       ; preds = %if.end202
  %call221 = call i32 @_Z11writeLinearIfEiPT_iiPKcS3_(float* %102, i32 %104, i32 %106, i8* %108, i8* getelementptr inbounds ([9 x i8], [9 x i8]* @.str.43, i64 0, i64 0)), !dbg !1514
  br label %if.end222

if.end222:                                        ; preds = %if.else217, %if.then212
  %110 = load i8*, i8** %84, align 8, !dbg !1516, !tbaa !862
  %call223 = call i32 @cudaFree(i8* %110), !dbg !1517
  %call225 = call i32 @cudaGetLastError(), !dbg !1518
  call void @llvm.dbg.value(metadata i32 %call225, i64 0, metadata !1178, metadata !675), !dbg !1518
  %cmp226 = icmp eq i32 %call225, 0, !dbg !1519
  br i1 %cmp226, label %if.end230, label %if.then227, !dbg !1518

if.then227:                                       ; preds = %if.end222
  %111 = load %struct._IO_FILE*, %struct._IO_FILE** @stderr, align 8, !dbg !1521, !tbaa !862
  %call228 = call i8* @cudaGetErrorString(i32 %call225), !dbg !1521
  %call229 = call i32 (%struct._IO_FILE*, i8*, ...) @fprintf(%struct._IO_FILE* %111, i8* getelementptr inbounds ([17 x i8], [17 x i8]* @.str.20, i64 0, i64 0), i8* getelementptr inbounds ([22 x i8], [22 x i8]* @.str.21, i64 0, i64 0), i32 210, i8* getelementptr inbounds ([10 x i8], [10 x i8]* @.str.41, i64 0, i64 0), i8* %call228) #12, !dbg !1524
  call void @exit(i32 -1) #13, !dbg !1526
  unreachable, !dbg !1521

if.end230:                                        ; preds = %if.end222
  call void @llvm.lifetime.end(i64 8, i8* nonnull %83) #10, !dbg !1528
  br label %if.end232, !dbg !1529

if.end232:                                        ; preds = %if.end33, %if.end230, %if.end180
  %112 = load i8*, i8** %7, align 8, !dbg !1530, !tbaa !862
  %call233 = call i32 @cudaFree(i8* %112), !dbg !1531
  %call235 = call i32 @cudaGetLastError(), !dbg !1532
  call void @llvm.dbg.value(metadata i32 %call235, i64 0, metadata !1180, metadata !675), !dbg !1532
  %cmp236 = icmp eq i32 %call235, 0, !dbg !1533
  br i1 %cmp236, label %if.end240, label %if.then237, !dbg !1532

if.then237:                                       ; preds = %if.end232
  %113 = load %struct._IO_FILE*, %struct._IO_FILE** @stderr, align 8, !dbg !1535, !tbaa !862
  %call238 = call i8* @cudaGetErrorString(i32 %call235), !dbg !1535
  %call239 = call i32 (%struct._IO_FILE*, i8*, ...) @fprintf(%struct._IO_FILE* %113, i8* getelementptr inbounds ([17 x i8], [17 x i8]* @.str.20, i64 0, i64 0), i8* getelementptr inbounds ([22 x i8], [22 x i8]* @.str.21, i64 0, i64 0), i32 214, i8* getelementptr inbounds ([17 x i8], [17 x i8]* @.str.44, i64 0, i64 0), i8* %call238) #12, !dbg !1538
  call void @exit(i32 -1) #13, !dbg !1540
  unreachable, !dbg !1535

if.end240:                                        ; preds = %if.end232
  %114 = load i8*, i8** %11, align 8, !dbg !1542, !tbaa !862
  %call241 = call i32 @cudaFree(i8* %114), !dbg !1543
  %call243 = call i32 @cudaGetLastError(), !dbg !1544
  call void @llvm.dbg.value(metadata i32 %call243, i64 0, metadata !1182, metadata !675), !dbg !1544
  %cmp244 = icmp eq i32 %call243, 0, !dbg !1545
  br i1 %cmp244, label %if.end248, label %if.then245, !dbg !1544

if.then245:                                       ; preds = %if.end240
  %115 = load %struct._IO_FILE*, %struct._IO_FILE** @stderr, align 8, !dbg !1547, !tbaa !862
  %call246 = call i8* @cudaGetErrorString(i32 %call243), !dbg !1547
  %call247 = call i32 (%struct._IO_FILE*, i8*, ...) @fprintf(%struct._IO_FILE* %115, i8* getelementptr inbounds ([17 x i8], [17 x i8]* @.str.20, i64 0, i64 0), i8* getelementptr inbounds ([22 x i8], [22 x i8]* @.str.21, i64 0, i64 0), i32 216, i8* getelementptr inbounds ([17 x i8], [17 x i8]* @.str.44, i64 0, i64 0), i8* %call246) #12, !dbg !1550
  call void @exit(i32 -1) #13, !dbg !1552
  unreachable, !dbg !1547

if.end248:                                        ; preds = %if.end240
  call void @llvm.lifetime.end(i64 8, i8* nonnull %6) #10, !dbg !1554
  call void @llvm.lifetime.end(i64 8, i8* nonnull %5) #10, !dbg !1554
  ret void, !dbg !1554
}

; Function Attrs: uwtable
define linkonce_odr void @_Z10processDWTIiEvP3dwtii(%struct.dwt* %d, i32 %forward, i32 %writeVisual) local_unnamed_addr #0 comdat !dbg !1555 {
entry:
  %c_r_out = alloca i32*, align 8
  %backup = alloca i32*, align 8
  %c_g_out = alloca i32*, align 8
  %c_b_out = alloca i32*, align 8
  %c_r = alloca i32*, align 8
  %c_g = alloca i32*, align 8
  %c_b = alloca i32*, align 8
  %c_r184 = alloca i32*, align 8
  tail call void @llvm.dbg.value(metadata %struct.dwt* %d, i64 0, metadata !1559, metadata !675), !dbg !1623
  tail call void @llvm.dbg.value(metadata i32 %forward, i64 0, metadata !1560, metadata !675), !dbg !1624
  tail call void @llvm.dbg.value(metadata i32 %writeVisual, i64 0, metadata !1561, metadata !675), !dbg !1625
  %pixWidth = getelementptr inbounds %struct.dwt, %struct.dwt* %d, i64 0, i32 3, !dbg !1626
  %0 = bitcast i32* %pixWidth to i64*, !dbg !1626
  %1 = load i64, i64* %0, align 8, !dbg !1626
  %2 = trunc i64 %1 to i32, !dbg !1626
  %3 = lshr i64 %1, 32, !dbg !1627
  %4 = trunc i64 %3 to i32, !dbg !1627
  %mul = shl i32 %2, 2, !dbg !1628
  %mul1 = mul i32 %mul, %4, !dbg !1629
  tail call void @llvm.dbg.value(metadata i32 %mul1, i64 0, metadata !1562, metadata !675), !dbg !1630
  %5 = bitcast i32** %c_r_out to i8*, !dbg !1631
  call void @llvm.lifetime.start(i64 8, i8* %5) #10, !dbg !1631
  %6 = bitcast i32** %backup to i8*, !dbg !1631
  call void @llvm.lifetime.start(i64 8, i8* %6) #10, !dbg !1631
  %7 = bitcast i32** %c_r_out to i8**, !dbg !1632
  %conv3 = sext i32 %mul1 to i64, !dbg !1633
  %call = call i32 @cudaMalloc(i8** %7, i64 %conv3), !dbg !1634
  %call4 = call i32 @cudaGetLastError(), !dbg !1635
  call void @llvm.dbg.value(metadata i32 %call4, i64 0, metadata !1565, metadata !675), !dbg !1635
  %cmp = icmp eq i32 %call4, 0, !dbg !1636
  br i1 %cmp, label %if.end, label %if.then, !dbg !1635

if.then:                                          ; preds = %entry
  %8 = load %struct._IO_FILE*, %struct._IO_FILE** @stderr, align 8, !dbg !1638, !tbaa !862
  %call5 = call i8* @cudaGetErrorString(i32 %call4), !dbg !1638
  %call6 = call i32 (%struct._IO_FILE*, i8*, ...) @fprintf(%struct._IO_FILE* %8, i8* getelementptr inbounds ([17 x i8], [17 x i8]* @.str.20, i64 0, i64 0), i8* getelementptr inbounds ([22 x i8], [22 x i8]* @.str.21, i64 0, i64 0), i32 103, i8* getelementptr inbounds ([20 x i8], [20 x i8]* @.str.39, i64 0, i64 0), i8* %call5) #12, !dbg !1641
  call void @exit(i32 -1) #13, !dbg !1643
  unreachable, !dbg !1638

if.end:                                           ; preds = %entry
  %9 = load i8*, i8** %7, align 8, !dbg !1645, !tbaa !862
  %call8 = call i32 @cudaMemset(i8* %9, i32 0, i64 %conv3), !dbg !1646
  %call10 = call i32 @cudaGetLastError(), !dbg !1647
  call void @llvm.dbg.value(metadata i32 %call10, i64 0, metadata !1567, metadata !675), !dbg !1647
  %cmp11 = icmp eq i32 %call10, 0, !dbg !1648
  br i1 %cmp11, label %if.end15, label %if.then12, !dbg !1647

if.then12:                                        ; preds = %if.end
  %10 = load %struct._IO_FILE*, %struct._IO_FILE** @stderr, align 8, !dbg !1650, !tbaa !862
  %call13 = call i8* @cudaGetErrorString(i32 %call10), !dbg !1650
  %call14 = call i32 (%struct._IO_FILE*, i8*, ...) @fprintf(%struct._IO_FILE* %10, i8* getelementptr inbounds ([17 x i8], [17 x i8]* @.str.20, i64 0, i64 0), i8* getelementptr inbounds ([22 x i8], [22 x i8]* @.str.21, i64 0, i64 0), i32 105, i8* getelementptr inbounds ([21 x i8], [21 x i8]* @.str.40, i64 0, i64 0), i8* %call13) #12, !dbg !1653
  call void @exit(i32 -1) #13, !dbg !1655
  unreachable, !dbg !1650

if.end15:                                         ; preds = %if.end
  %11 = bitcast i32** %backup to i8**, !dbg !1657
  %call17 = call i32 @cudaMalloc(i8** %11, i64 %conv3), !dbg !1658
  %call19 = call i32 @cudaGetLastError(), !dbg !1659
  call void @llvm.dbg.value(metadata i32 %call19, i64 0, metadata !1569, metadata !675), !dbg !1659
  %cmp20 = icmp eq i32 %call19, 0, !dbg !1660
  br i1 %cmp20, label %if.end24, label %if.then21, !dbg !1659

if.then21:                                        ; preds = %if.end15
  %12 = load %struct._IO_FILE*, %struct._IO_FILE** @stderr, align 8, !dbg !1662, !tbaa !862
  %call22 = call i8* @cudaGetErrorString(i32 %call19), !dbg !1662
  %call23 = call i32 (%struct._IO_FILE*, i8*, ...) @fprintf(%struct._IO_FILE* %12, i8* getelementptr inbounds ([17 x i8], [17 x i8]* @.str.20, i64 0, i64 0), i8* getelementptr inbounds ([22 x i8], [22 x i8]* @.str.21, i64 0, i64 0), i32 108, i8* getelementptr inbounds ([20 x i8], [20 x i8]* @.str.39, i64 0, i64 0), i8* %call22) #12, !dbg !1665
  call void @exit(i32 -1) #13, !dbg !1667
  unreachable, !dbg !1662

if.end24:                                         ; preds = %if.end15
  %13 = load i8*, i8** %11, align 8, !dbg !1669, !tbaa !862
  %call26 = call i32 @cudaMemset(i8* %13, i32 0, i64 %conv3), !dbg !1670
  %call28 = call i32 @cudaGetLastError(), !dbg !1671
  call void @llvm.dbg.value(metadata i32 %call28, i64 0, metadata !1571, metadata !675), !dbg !1671
  %cmp29 = icmp eq i32 %call28, 0, !dbg !1672
  br i1 %cmp29, label %if.end33, label %if.then30, !dbg !1671

if.then30:                                        ; preds = %if.end24
  %14 = load %struct._IO_FILE*, %struct._IO_FILE** @stderr, align 8, !dbg !1674, !tbaa !862
  %call31 = call i8* @cudaGetErrorString(i32 %call28), !dbg !1674
  %call32 = call i32 (%struct._IO_FILE*, i8*, ...) @fprintf(%struct._IO_FILE* %14, i8* getelementptr inbounds ([17 x i8], [17 x i8]* @.str.20, i64 0, i64 0), i8* getelementptr inbounds ([22 x i8], [22 x i8]* @.str.21, i64 0, i64 0), i32 110, i8* getelementptr inbounds ([21 x i8], [21 x i8]* @.str.40, i64 0, i64 0), i8* %call31) #12, !dbg !1677
  call void @exit(i32 -1) #13, !dbg !1679
  unreachable, !dbg !1674

if.end33:                                         ; preds = %if.end24
  %components = getelementptr inbounds %struct.dwt, %struct.dwt* %d, i64 0, i32 5, !dbg !1681
  %15 = load i32, i32* %components, align 8, !dbg !1681, !tbaa !1022
  switch i32 %15, label %if.end232 [
    i32 3, label %if.then35
    i32 1, label %if.then183
  ], !dbg !1682

if.then35:                                        ; preds = %if.end33
  %16 = bitcast i32** %c_g_out to i8*, !dbg !1683
  call void @llvm.lifetime.start(i64 8, i8* %16) #10, !dbg !1683
  %17 = bitcast i32** %c_b_out to i8*, !dbg !1683
  call void @llvm.lifetime.start(i64 8, i8* %17) #10, !dbg !1683
  %18 = bitcast i32** %c_g_out to i8**, !dbg !1684
  %call37 = call i32 @cudaMalloc(i8** %18, i64 %conv3), !dbg !1685
  %call39 = call i32 @cudaGetLastError(), !dbg !1686
  call void @llvm.dbg.value(metadata i32 %call39, i64 0, metadata !1577, metadata !675), !dbg !1686
  %cmp40 = icmp eq i32 %call39, 0, !dbg !1687
  br i1 %cmp40, label %if.end44, label %if.then41, !dbg !1686

if.then41:                                        ; preds = %if.then35
  %19 = load %struct._IO_FILE*, %struct._IO_FILE** @stderr, align 8, !dbg !1689, !tbaa !862
  %call42 = call i8* @cudaGetErrorString(i32 %call39), !dbg !1689
  %call43 = call i32 (%struct._IO_FILE*, i8*, ...) @fprintf(%struct._IO_FILE* %19, i8* getelementptr inbounds ([17 x i8], [17 x i8]* @.str.20, i64 0, i64 0), i8* getelementptr inbounds ([22 x i8], [22 x i8]* @.str.21, i64 0, i64 0), i32 116, i8* getelementptr inbounds ([20 x i8], [20 x i8]* @.str.39, i64 0, i64 0), i8* %call42) #12, !dbg !1692
  call void @exit(i32 -1) #13, !dbg !1694
  unreachable, !dbg !1689

if.end44:                                         ; preds = %if.then35
  %20 = load i8*, i8** %18, align 8, !dbg !1696, !tbaa !862
  %call46 = call i32 @cudaMemset(i8* %20, i32 0, i64 %conv3), !dbg !1697
  %call48 = call i32 @cudaGetLastError(), !dbg !1698
  call void @llvm.dbg.value(metadata i32 %call48, i64 0, metadata !1579, metadata !675), !dbg !1698
  %cmp49 = icmp eq i32 %call48, 0, !dbg !1699
  br i1 %cmp49, label %if.end53, label %if.then50, !dbg !1698

if.then50:                                        ; preds = %if.end44
  %21 = load %struct._IO_FILE*, %struct._IO_FILE** @stderr, align 8, !dbg !1701, !tbaa !862
  %call51 = call i8* @cudaGetErrorString(i32 %call48), !dbg !1701
  %call52 = call i32 (%struct._IO_FILE*, i8*, ...) @fprintf(%struct._IO_FILE* %21, i8* getelementptr inbounds ([17 x i8], [17 x i8]* @.str.20, i64 0, i64 0), i8* getelementptr inbounds ([22 x i8], [22 x i8]* @.str.21, i64 0, i64 0), i32 118, i8* getelementptr inbounds ([21 x i8], [21 x i8]* @.str.40, i64 0, i64 0), i8* %call51) #12, !dbg !1704
  call void @exit(i32 -1) #13, !dbg !1706
  unreachable, !dbg !1701

if.end53:                                         ; preds = %if.end44
  %22 = bitcast i32** %c_b_out to i8**, !dbg !1708
  %call55 = call i32 @cudaMalloc(i8** %22, i64 %conv3), !dbg !1709
  %call57 = call i32 @cudaGetLastError(), !dbg !1710
  call void @llvm.dbg.value(metadata i32 %call57, i64 0, metadata !1581, metadata !675), !dbg !1710
  %cmp58 = icmp eq i32 %call57, 0, !dbg !1711
  br i1 %cmp58, label %if.end62, label %if.then59, !dbg !1710

if.then59:                                        ; preds = %if.end53
  %23 = load %struct._IO_FILE*, %struct._IO_FILE** @stderr, align 8, !dbg !1713, !tbaa !862
  %call60 = call i8* @cudaGetErrorString(i32 %call57), !dbg !1713
  %call61 = call i32 (%struct._IO_FILE*, i8*, ...) @fprintf(%struct._IO_FILE* %23, i8* getelementptr inbounds ([17 x i8], [17 x i8]* @.str.20, i64 0, i64 0), i8* getelementptr inbounds ([22 x i8], [22 x i8]* @.str.21, i64 0, i64 0), i32 121, i8* getelementptr inbounds ([20 x i8], [20 x i8]* @.str.39, i64 0, i64 0), i8* %call60) #12, !dbg !1716
  call void @exit(i32 -1) #13, !dbg !1718
  unreachable, !dbg !1713

if.end62:                                         ; preds = %if.end53
  %24 = load i8*, i8** %22, align 8, !dbg !1720, !tbaa !862
  %call64 = call i32 @cudaMemset(i8* %24, i32 0, i64 %conv3), !dbg !1721
  %call66 = call i32 @cudaGetLastError(), !dbg !1722
  call void @llvm.dbg.value(metadata i32 %call66, i64 0, metadata !1583, metadata !675), !dbg !1722
  %cmp67 = icmp eq i32 %call66, 0, !dbg !1723
  br i1 %cmp67, label %if.end71, label %if.then68, !dbg !1722

if.then68:                                        ; preds = %if.end62
  %25 = load %struct._IO_FILE*, %struct._IO_FILE** @stderr, align 8, !dbg !1725, !tbaa !862
  %call69 = call i8* @cudaGetErrorString(i32 %call66), !dbg !1725
  %call70 = call i32 (%struct._IO_FILE*, i8*, ...) @fprintf(%struct._IO_FILE* %25, i8* getelementptr inbounds ([17 x i8], [17 x i8]* @.str.20, i64 0, i64 0), i8* getelementptr inbounds ([22 x i8], [22 x i8]* @.str.21, i64 0, i64 0), i32 123, i8* getelementptr inbounds ([21 x i8], [21 x i8]* @.str.40, i64 0, i64 0), i8* %call69) #12, !dbg !1728
  call void @exit(i32 -1) #13, !dbg !1730
  unreachable, !dbg !1725

if.end71:                                         ; preds = %if.end62
  %26 = bitcast i32** %c_r to i8*, !dbg !1732
  call void @llvm.lifetime.start(i64 8, i8* %26) #10, !dbg !1732
  %27 = bitcast i32** %c_g to i8*, !dbg !1732
  call void @llvm.lifetime.start(i64 8, i8* %27) #10, !dbg !1732
  %28 = bitcast i32** %c_b to i8*, !dbg !1732
  call void @llvm.lifetime.start(i64 8, i8* %28) #10, !dbg !1732
  %29 = bitcast i32** %c_r to i8**, !dbg !1733
  %call73 = call i32 @cudaMalloc(i8** %29, i64 %conv3), !dbg !1734
  %call75 = call i32 @cudaGetLastError(), !dbg !1735
  call void @llvm.dbg.value(metadata i32 %call75, i64 0, metadata !1588, metadata !675), !dbg !1735
  %cmp76 = icmp eq i32 %call75, 0, !dbg !1736
  br i1 %cmp76, label %if.end80, label %if.then77, !dbg !1735

if.then77:                                        ; preds = %if.end71
  %30 = load %struct._IO_FILE*, %struct._IO_FILE** @stderr, align 8, !dbg !1738, !tbaa !862
  %call78 = call i8* @cudaGetErrorString(i32 %call75), !dbg !1738
  %call79 = call i32 (%struct._IO_FILE*, i8*, ...) @fprintf(%struct._IO_FILE* %30, i8* getelementptr inbounds ([17 x i8], [17 x i8]* @.str.20, i64 0, i64 0), i8* getelementptr inbounds ([22 x i8], [22 x i8]* @.str.21, i64 0, i64 0), i32 128, i8* getelementptr inbounds ([20 x i8], [20 x i8]* @.str.39, i64 0, i64 0), i8* %call78) #12, !dbg !1741
  call void @exit(i32 -1) #13, !dbg !1743
  unreachable, !dbg !1738

if.end80:                                         ; preds = %if.end71
  %31 = load i8*, i8** %29, align 8, !dbg !1745, !tbaa !862
  %call82 = call i32 @cudaMemset(i8* %31, i32 0, i64 %conv3), !dbg !1746
  %call84 = call i32 @cudaGetLastError(), !dbg !1747
  call void @llvm.dbg.value(metadata i32 %call84, i64 0, metadata !1590, metadata !675), !dbg !1747
  %cmp85 = icmp eq i32 %call84, 0, !dbg !1748
  br i1 %cmp85, label %if.end89, label %if.then86, !dbg !1747

if.then86:                                        ; preds = %if.end80
  %32 = load %struct._IO_FILE*, %struct._IO_FILE** @stderr, align 8, !dbg !1750, !tbaa !862
  %call87 = call i8* @cudaGetErrorString(i32 %call84), !dbg !1750
  %call88 = call i32 (%struct._IO_FILE*, i8*, ...) @fprintf(%struct._IO_FILE* %32, i8* getelementptr inbounds ([17 x i8], [17 x i8]* @.str.20, i64 0, i64 0), i8* getelementptr inbounds ([22 x i8], [22 x i8]* @.str.21, i64 0, i64 0), i32 130, i8* getelementptr inbounds ([21 x i8], [21 x i8]* @.str.40, i64 0, i64 0), i8* %call87) #12, !dbg !1753
  call void @exit(i32 -1) #13, !dbg !1755
  unreachable, !dbg !1750

if.end89:                                         ; preds = %if.end80
  %33 = bitcast i32** %c_g to i8**, !dbg !1757
  %call91 = call i32 @cudaMalloc(i8** %33, i64 %conv3), !dbg !1758
  %call93 = call i32 @cudaGetLastError(), !dbg !1759
  call void @llvm.dbg.value(metadata i32 %call93, i64 0, metadata !1592, metadata !675), !dbg !1759
  %cmp94 = icmp eq i32 %call93, 0, !dbg !1760
  br i1 %cmp94, label %if.end98, label %if.then95, !dbg !1759

if.then95:                                        ; preds = %if.end89
  %34 = load %struct._IO_FILE*, %struct._IO_FILE** @stderr, align 8, !dbg !1762, !tbaa !862
  %call96 = call i8* @cudaGetErrorString(i32 %call93), !dbg !1762
  %call97 = call i32 (%struct._IO_FILE*, i8*, ...) @fprintf(%struct._IO_FILE* %34, i8* getelementptr inbounds ([17 x i8], [17 x i8]* @.str.20, i64 0, i64 0), i8* getelementptr inbounds ([22 x i8], [22 x i8]* @.str.21, i64 0, i64 0), i32 133, i8* getelementptr inbounds ([20 x i8], [20 x i8]* @.str.39, i64 0, i64 0), i8* %call96) #12, !dbg !1765
  call void @exit(i32 -1) #13, !dbg !1767
  unreachable, !dbg !1762

if.end98:                                         ; preds = %if.end89
  %35 = load i8*, i8** %33, align 8, !dbg !1769, !tbaa !862
  %call100 = call i32 @cudaMemset(i8* %35, i32 0, i64 %conv3), !dbg !1770
  %call102 = call i32 @cudaGetLastError(), !dbg !1771
  call void @llvm.dbg.value(metadata i32 %call102, i64 0, metadata !1594, metadata !675), !dbg !1771
  %cmp103 = icmp eq i32 %call102, 0, !dbg !1772
  br i1 %cmp103, label %if.end107, label %if.then104, !dbg !1771

if.then104:                                       ; preds = %if.end98
  %36 = load %struct._IO_FILE*, %struct._IO_FILE** @stderr, align 8, !dbg !1774, !tbaa !862
  %call105 = call i8* @cudaGetErrorString(i32 %call102), !dbg !1774
  %call106 = call i32 (%struct._IO_FILE*, i8*, ...) @fprintf(%struct._IO_FILE* %36, i8* getelementptr inbounds ([17 x i8], [17 x i8]* @.str.20, i64 0, i64 0), i8* getelementptr inbounds ([22 x i8], [22 x i8]* @.str.21, i64 0, i64 0), i32 135, i8* getelementptr inbounds ([21 x i8], [21 x i8]* @.str.40, i64 0, i64 0), i8* %call105) #12, !dbg !1777
  call void @exit(i32 -1) #13, !dbg !1779
  unreachable, !dbg !1774

if.end107:                                        ; preds = %if.end98
  %37 = bitcast i32** %c_b to i8**, !dbg !1781
  %call109 = call i32 @cudaMalloc(i8** %37, i64 %conv3), !dbg !1782
  %call111 = call i32 @cudaGetLastError(), !dbg !1783
  call void @llvm.dbg.value(metadata i32 %call111, i64 0, metadata !1596, metadata !675), !dbg !1783
  %cmp112 = icmp eq i32 %call111, 0, !dbg !1784
  br i1 %cmp112, label %if.end116, label %if.then113, !dbg !1783

if.then113:                                       ; preds = %if.end107
  %38 = load %struct._IO_FILE*, %struct._IO_FILE** @stderr, align 8, !dbg !1786, !tbaa !862
  %call114 = call i8* @cudaGetErrorString(i32 %call111), !dbg !1786
  %call115 = call i32 (%struct._IO_FILE*, i8*, ...) @fprintf(%struct._IO_FILE* %38, i8* getelementptr inbounds ([17 x i8], [17 x i8]* @.str.20, i64 0, i64 0), i8* getelementptr inbounds ([22 x i8], [22 x i8]* @.str.21, i64 0, i64 0), i32 138, i8* getelementptr inbounds ([20 x i8], [20 x i8]* @.str.39, i64 0, i64 0), i8* %call114) #12, !dbg !1789
  call void @exit(i32 -1) #13, !dbg !1791
  unreachable, !dbg !1786

if.end116:                                        ; preds = %if.end107
  %39 = load i8*, i8** %37, align 8, !dbg !1793, !tbaa !862
  %call118 = call i32 @cudaMemset(i8* %39, i32 0, i64 %conv3), !dbg !1794
  %call120 = call i32 @cudaGetLastError(), !dbg !1795
  call void @llvm.dbg.value(metadata i32 %call120, i64 0, metadata !1598, metadata !675), !dbg !1795
  %cmp121 = icmp eq i32 %call120, 0, !dbg !1796
  br i1 %cmp121, label %if.end125, label %if.then122, !dbg !1795

if.then122:                                       ; preds = %if.end116
  %40 = load %struct._IO_FILE*, %struct._IO_FILE** @stderr, align 8, !dbg !1798, !tbaa !862
  %call123 = call i8* @cudaGetErrorString(i32 %call120), !dbg !1798
  %call124 = call i32 (%struct._IO_FILE*, i8*, ...) @fprintf(%struct._IO_FILE* %40, i8* getelementptr inbounds ([17 x i8], [17 x i8]* @.str.20, i64 0, i64 0), i8* getelementptr inbounds ([22 x i8], [22 x i8]* @.str.21, i64 0, i64 0), i32 140, i8* getelementptr inbounds ([21 x i8], [21 x i8]* @.str.40, i64 0, i64 0), i8* %call123) #12, !dbg !1801
  call void @exit(i32 -1) #13, !dbg !1803
  unreachable, !dbg !1798

if.end125:                                        ; preds = %if.end116
  %41 = load i32*, i32** %c_r, align 8, !dbg !1805, !tbaa !862
  call void @llvm.dbg.value(metadata i32* %41, i64 0, metadata !1585, metadata !675), !dbg !1806
  %42 = load i32*, i32** %c_g, align 8, !dbg !1807, !tbaa !862
  call void @llvm.dbg.value(metadata i32* %42, i64 0, metadata !1586, metadata !675), !dbg !1808
  %43 = load i32*, i32** %c_b, align 8, !dbg !1809, !tbaa !862
  call void @llvm.dbg.value(metadata i32* %43, i64 0, metadata !1587, metadata !675), !dbg !1810
  %srcImg = getelementptr inbounds %struct.dwt, %struct.dwt* %d, i64 0, i32 2, !dbg !1811
  %44 = load i8*, i8** %srcImg, align 8, !dbg !1811, !tbaa !1012
  %45 = load i64, i64* %0, align 8, !dbg !1812
  %46 = trunc i64 %45 to i32, !dbg !1812
  %47 = lshr i64 %45, 32, !dbg !1813
  %48 = trunc i64 %47 to i32, !dbg !1813
  call void @_Z15rgbToComponentsIiEvPT_S1_S1_Phii(i32* %41, i32* %42, i32* %43, i8* %44, i32 %46, i32 %48), !dbg !1814
  %49 = load i32*, i32** %c_r, align 8, !dbg !1815, !tbaa !862
  call void @llvm.dbg.value(metadata i32* %49, i64 0, metadata !1585, metadata !675), !dbg !1806
  %50 = load i32*, i32** %c_r_out, align 8, !dbg !1816, !tbaa !862
  call void @llvm.dbg.value(metadata i32* %50, i64 0, metadata !1563, metadata !675), !dbg !1817
  %51 = load i32*, i32** %backup, align 8, !dbg !1818, !tbaa !862
  call void @llvm.dbg.value(metadata i32* %51, i64 0, metadata !1564, metadata !675), !dbg !1819
  %52 = load i64, i64* %0, align 8, !dbg !1820
  %53 = trunc i64 %52 to i32, !dbg !1820
  %54 = lshr i64 %52, 32, !dbg !1821
  %55 = trunc i64 %54 to i32, !dbg !1821
  %dwtLvls = getelementptr inbounds %struct.dwt, %struct.dwt* %d, i64 0, i32 6, !dbg !1822
  %56 = load i32, i32* %dwtLvls, align 4, !dbg !1822, !tbaa !1025
  %tobool = icmp ne i32 %forward, 0, !dbg !1823
  %call130 = call i32 @_Z11nStage2dDWTIiEiPT_S1_S1_iiib(i32* %49, i32* %50, i32* %51, i32 %53, i32 %55, i32 %56, i1 zeroext %tobool), !dbg !1824
  %57 = load i32*, i32** %c_g, align 8, !dbg !1825, !tbaa !862
  call void @llvm.dbg.value(metadata i32* %57, i64 0, metadata !1586, metadata !675), !dbg !1808
  %58 = load i32*, i32** %c_g_out, align 8, !dbg !1826, !tbaa !862
  call void @llvm.dbg.value(metadata i32* %58, i64 0, metadata !1573, metadata !675), !dbg !1827
  %59 = load i32*, i32** %backup, align 8, !dbg !1828, !tbaa !862
  call void @llvm.dbg.value(metadata i32* %59, i64 0, metadata !1564, metadata !675), !dbg !1819
  %60 = load i64, i64* %0, align 8, !dbg !1829
  %61 = trunc i64 %60 to i32, !dbg !1829
  %62 = lshr i64 %60, 32, !dbg !1830
  %63 = trunc i64 %62 to i32, !dbg !1830
  %64 = load i32, i32* %dwtLvls, align 4, !dbg !1831, !tbaa !1025
  %call135 = call i32 @_Z11nStage2dDWTIiEiPT_S1_S1_iiib(i32* %57, i32* %58, i32* %59, i32 %61, i32 %63, i32 %64, i1 zeroext %tobool), !dbg !1832
  %65 = load i32*, i32** %c_b, align 8, !dbg !1833, !tbaa !862
  call void @llvm.dbg.value(metadata i32* %65, i64 0, metadata !1587, metadata !675), !dbg !1810
  %66 = load i32*, i32** %c_b_out, align 8, !dbg !1834, !tbaa !862
  call void @llvm.dbg.value(metadata i32* %66, i64 0, metadata !1576, metadata !675), !dbg !1835
  %67 = load i32*, i32** %backup, align 8, !dbg !1836, !tbaa !862
  call void @llvm.dbg.value(metadata i32* %67, i64 0, metadata !1564, metadata !675), !dbg !1819
  %68 = load i64, i64* %0, align 8, !dbg !1837
  %69 = trunc i64 %68 to i32, !dbg !1837
  %70 = lshr i64 %68, 32, !dbg !1838
  %71 = trunc i64 %70 to i32, !dbg !1838
  %72 = load i32, i32* %dwtLvls, align 4, !dbg !1839, !tbaa !1025
  %call140 = call i32 @_Z11nStage2dDWTIiEiPT_S1_S1_iiib(i32* %65, i32* %66, i32* %67, i32 %69, i32 %71, i32 %72, i1 zeroext %tobool), !dbg !1840
  %73 = load i8*, i8** %29, align 8, !dbg !1841, !tbaa !862
  %call141 = call i32 @cudaFree(i8* %73), !dbg !1842
  %call143 = call i32 @cudaGetLastError(), !dbg !1843
  call void @llvm.dbg.value(metadata i32 %call143, i64 0, metadata !1600, metadata !675), !dbg !1843
  %cmp144 = icmp eq i32 %call143, 0, !dbg !1844
  br i1 %cmp144, label %if.end148, label %if.then145, !dbg !1843

if.then145:                                       ; preds = %if.end125
  %74 = load %struct._IO_FILE*, %struct._IO_FILE** @stderr, align 8, !dbg !1846, !tbaa !862
  %call146 = call i8* @cudaGetErrorString(i32 %call143), !dbg !1846
  %call147 = call i32 (%struct._IO_FILE*, i8*, ...) @fprintf(%struct._IO_FILE* %74, i8* getelementptr inbounds ([17 x i8], [17 x i8]* @.str.20, i64 0, i64 0), i8* getelementptr inbounds ([22 x i8], [22 x i8]* @.str.21, i64 0, i64 0), i32 177, i8* getelementptr inbounds ([10 x i8], [10 x i8]* @.str.41, i64 0, i64 0), i8* %call146) #12, !dbg !1849
  call void @exit(i32 -1) #13, !dbg !1851
  unreachable, !dbg !1846

if.end148:                                        ; preds = %if.end125
  %75 = load i8*, i8** %33, align 8, !dbg !1853, !tbaa !862
  %call149 = call i32 @cudaFree(i8* %75), !dbg !1854
  %call151 = call i32 @cudaGetLastError(), !dbg !1855
  call void @llvm.dbg.value(metadata i32 %call151, i64 0, metadata !1602, metadata !675), !dbg !1855
  %cmp152 = icmp eq i32 %call151, 0, !dbg !1856
  br i1 %cmp152, label %if.end156, label %if.then153, !dbg !1855

if.then153:                                       ; preds = %if.end148
  %76 = load %struct._IO_FILE*, %struct._IO_FILE** @stderr, align 8, !dbg !1858, !tbaa !862
  %call154 = call i8* @cudaGetErrorString(i32 %call151), !dbg !1858
  %call155 = call i32 (%struct._IO_FILE*, i8*, ...) @fprintf(%struct._IO_FILE* %76, i8* getelementptr inbounds ([17 x i8], [17 x i8]* @.str.20, i64 0, i64 0), i8* getelementptr inbounds ([22 x i8], [22 x i8]* @.str.21, i64 0, i64 0), i32 179, i8* getelementptr inbounds ([10 x i8], [10 x i8]* @.str.41, i64 0, i64 0), i8* %call154) #12, !dbg !1861
  call void @exit(i32 -1) #13, !dbg !1863
  unreachable, !dbg !1858

if.end156:                                        ; preds = %if.end148
  %77 = load i8*, i8** %37, align 8, !dbg !1865, !tbaa !862
  %call157 = call i32 @cudaFree(i8* %77), !dbg !1866
  %call159 = call i32 @cudaGetLastError(), !dbg !1867
  call void @llvm.dbg.value(metadata i32 %call159, i64 0, metadata !1604, metadata !675), !dbg !1867
  %cmp160 = icmp eq i32 %call159, 0, !dbg !1868
  br i1 %cmp160, label %if.end164, label %if.then161, !dbg !1867

if.then161:                                       ; preds = %if.end156
  %78 = load %struct._IO_FILE*, %struct._IO_FILE** @stderr, align 8, !dbg !1870, !tbaa !862
  %call162 = call i8* @cudaGetErrorString(i32 %call159), !dbg !1870
  %call163 = call i32 (%struct._IO_FILE*, i8*, ...) @fprintf(%struct._IO_FILE* %78, i8* getelementptr inbounds ([17 x i8], [17 x i8]* @.str.20, i64 0, i64 0), i8* getelementptr inbounds ([22 x i8], [22 x i8]* @.str.21, i64 0, i64 0), i32 181, i8* getelementptr inbounds ([10 x i8], [10 x i8]* @.str.41, i64 0, i64 0), i8* %call162) #12, !dbg !1873
  call void @exit(i32 -1) #13, !dbg !1875
  unreachable, !dbg !1870

if.end164:                                        ; preds = %if.end156
  %79 = load i8*, i8** %18, align 8, !dbg !1877, !tbaa !862
  %call165 = call i32 @cudaFree(i8* %79), !dbg !1878
  %call167 = call i32 @cudaGetLastError(), !dbg !1879
  call void @llvm.dbg.value(metadata i32 %call167, i64 0, metadata !1606, metadata !675), !dbg !1879
  %cmp168 = icmp eq i32 %call167, 0, !dbg !1880
  br i1 %cmp168, label %if.end172, label %if.then169, !dbg !1879

if.then169:                                       ; preds = %if.end164
  %80 = load %struct._IO_FILE*, %struct._IO_FILE** @stderr, align 8, !dbg !1882, !tbaa !862
  %call170 = call i8* @cudaGetErrorString(i32 %call167), !dbg !1882
  %call171 = call i32 (%struct._IO_FILE*, i8*, ...) @fprintf(%struct._IO_FILE* %80, i8* getelementptr inbounds ([17 x i8], [17 x i8]* @.str.20, i64 0, i64 0), i8* getelementptr inbounds ([22 x i8], [22 x i8]* @.str.21, i64 0, i64 0), i32 183, i8* getelementptr inbounds ([10 x i8], [10 x i8]* @.str.41, i64 0, i64 0), i8* %call170) #12, !dbg !1885
  call void @exit(i32 -1) #13, !dbg !1887
  unreachable, !dbg !1882

if.end172:                                        ; preds = %if.end164
  %81 = load i8*, i8** %22, align 8, !dbg !1889, !tbaa !862
  %call173 = call i32 @cudaFree(i8* %81), !dbg !1890
  %call175 = call i32 @cudaGetLastError(), !dbg !1891
  call void @llvm.dbg.value(metadata i32 %call175, i64 0, metadata !1608, metadata !675), !dbg !1891
  %cmp176 = icmp eq i32 %call175, 0, !dbg !1892
  br i1 %cmp176, label %if.end180, label %if.then177, !dbg !1891

if.then177:                                       ; preds = %if.end172
  %82 = load %struct._IO_FILE*, %struct._IO_FILE** @stderr, align 8, !dbg !1894, !tbaa !862
  %call178 = call i8* @cudaGetErrorString(i32 %call175), !dbg !1894
  %call179 = call i32 (%struct._IO_FILE*, i8*, ...) @fprintf(%struct._IO_FILE* %82, i8* getelementptr inbounds ([17 x i8], [17 x i8]* @.str.20, i64 0, i64 0), i8* getelementptr inbounds ([22 x i8], [22 x i8]* @.str.21, i64 0, i64 0), i32 185, i8* getelementptr inbounds ([10 x i8], [10 x i8]* @.str.41, i64 0, i64 0), i8* %call178) #12, !dbg !1897
  call void @exit(i32 -1) #13, !dbg !1899
  unreachable, !dbg !1894

if.end180:                                        ; preds = %if.end172
  call void @llvm.lifetime.end(i64 8, i8* nonnull %28) #10, !dbg !1901
  call void @llvm.lifetime.end(i64 8, i8* nonnull %27) #10, !dbg !1901
  call void @llvm.lifetime.end(i64 8, i8* nonnull %26) #10, !dbg !1901
  call void @llvm.lifetime.end(i64 8, i8* nonnull %17) #10, !dbg !1901
  call void @llvm.lifetime.end(i64 8, i8* nonnull %16) #10, !dbg !1901
  br label %if.end232, !dbg !1902

if.then183:                                       ; preds = %if.end33
  %83 = bitcast i32** %c_r184 to i8*, !dbg !1903
  call void @llvm.lifetime.start(i64 8, i8* %83) #10, !dbg !1903
  %84 = bitcast i32** %c_r184 to i8**, !dbg !1904
  %call186 = call i32 @cudaMalloc(i8** %84, i64 %conv3), !dbg !1905
  %call188 = call i32 @cudaGetLastError(), !dbg !1906
  call void @llvm.dbg.value(metadata i32 %call188, i64 0, metadata !1613, metadata !675), !dbg !1906
  %cmp189 = icmp eq i32 %call188, 0, !dbg !1907
  br i1 %cmp189, label %if.end193, label %if.then190, !dbg !1906

if.then190:                                       ; preds = %if.then183
  %85 = load %struct._IO_FILE*, %struct._IO_FILE** @stderr, align 8, !dbg !1909, !tbaa !862
  %call191 = call i8* @cudaGetErrorString(i32 %call188), !dbg !1909
  %call192 = call i32 (%struct._IO_FILE*, i8*, ...) @fprintf(%struct._IO_FILE* %85, i8* getelementptr inbounds ([17 x i8], [17 x i8]* @.str.20, i64 0, i64 0), i8* getelementptr inbounds ([22 x i8], [22 x i8]* @.str.21, i64 0, i64 0), i32 192, i8* getelementptr inbounds ([20 x i8], [20 x i8]* @.str.39, i64 0, i64 0), i8* %call191) #12, !dbg !1912
  call void @exit(i32 -1) #13, !dbg !1914
  unreachable, !dbg !1909

if.end193:                                        ; preds = %if.then183
  %86 = load i8*, i8** %84, align 8, !dbg !1916, !tbaa !862
  %call195 = call i32 @cudaMemset(i8* %86, i32 0, i64 %conv3), !dbg !1917
  %call197 = call i32 @cudaGetLastError(), !dbg !1918
  call void @llvm.dbg.value(metadata i32 %call197, i64 0, metadata !1615, metadata !675), !dbg !1918
  %cmp198 = icmp eq i32 %call197, 0, !dbg !1919
  br i1 %cmp198, label %if.end202, label %if.then199, !dbg !1918

if.then199:                                       ; preds = %if.end193
  %87 = load %struct._IO_FILE*, %struct._IO_FILE** @stderr, align 8, !dbg !1921, !tbaa !862
  %call200 = call i8* @cudaGetErrorString(i32 %call197), !dbg !1921
  %call201 = call i32 (%struct._IO_FILE*, i8*, ...) @fprintf(%struct._IO_FILE* %87, i8* getelementptr inbounds ([17 x i8], [17 x i8]* @.str.20, i64 0, i64 0), i8* getelementptr inbounds ([22 x i8], [22 x i8]* @.str.21, i64 0, i64 0), i32 194, i8* getelementptr inbounds ([21 x i8], [21 x i8]* @.str.40, i64 0, i64 0), i8* %call200) #12, !dbg !1924
  call void @exit(i32 -1) #13, !dbg !1926
  unreachable, !dbg !1921

if.end202:                                        ; preds = %if.end193
  %88 = load i32*, i32** %c_r184, align 8, !dbg !1928, !tbaa !862
  call void @llvm.dbg.value(metadata i32* %88, i64 0, metadata !1610, metadata !675), !dbg !1929
  %srcImg203 = getelementptr inbounds %struct.dwt, %struct.dwt* %d, i64 0, i32 2, !dbg !1930
  %89 = load i8*, i8** %srcImg203, align 8, !dbg !1930, !tbaa !1012
  %90 = load i64, i64* %0, align 8, !dbg !1931
  %91 = trunc i64 %90 to i32, !dbg !1931
  %92 = lshr i64 %90, 32, !dbg !1932
  %93 = trunc i64 %92 to i32, !dbg !1932
  call void @_Z13bwToComponentIiEvPT_Phii(i32* %88, i8* %89, i32 %91, i32 %93), !dbg !1933
  %94 = load i32*, i32** %c_r184, align 8, !dbg !1934, !tbaa !862
  call void @llvm.dbg.value(metadata i32* %94, i64 0, metadata !1610, metadata !675), !dbg !1929
  %95 = load i32*, i32** %c_r_out, align 8, !dbg !1935, !tbaa !862
  call void @llvm.dbg.value(metadata i32* %95, i64 0, metadata !1563, metadata !675), !dbg !1817
  %96 = load i32*, i32** %backup, align 8, !dbg !1936, !tbaa !862
  call void @llvm.dbg.value(metadata i32* %96, i64 0, metadata !1564, metadata !675), !dbg !1819
  %97 = load i64, i64* %0, align 8, !dbg !1937
  %98 = trunc i64 %97 to i32, !dbg !1937
  %99 = lshr i64 %97, 32, !dbg !1938
  %100 = trunc i64 %99 to i32, !dbg !1938
  %dwtLvls208 = getelementptr inbounds %struct.dwt, %struct.dwt* %d, i64 0, i32 6, !dbg !1939
  %101 = load i32, i32* %dwtLvls208, align 4, !dbg !1939, !tbaa !1025
  %tobool209 = icmp ne i32 %forward, 0, !dbg !1940
  %call210 = call i32 @_Z11nStage2dDWTIiEiPT_S1_S1_iiib(i32* %94, i32* %95, i32* %96, i32 %98, i32 %100, i32 %101, i1 zeroext %tobool209), !dbg !1941
  %tobool211 = icmp eq i32 %writeVisual, 0, !dbg !1942
  %102 = load i32*, i32** %c_r_out, align 8, !dbg !1944, !tbaa !862
  call void @llvm.dbg.value(metadata i32* %102, i64 0, metadata !1563, metadata !675), !dbg !1817
  %103 = load i64, i64* %0, align 8, !dbg !1946
  %104 = trunc i64 %103 to i32, !dbg !1946
  %105 = lshr i64 %103, 32, !dbg !1947
  %106 = trunc i64 %105 to i32, !dbg !1947
  %107 = getelementptr inbounds %struct.dwt, %struct.dwt* %d, i64 0, i32 1, !dbg !1948
  %108 = load i8*, i8** %107, align 8, !dbg !1948, !tbaa !1043
  br i1 %tobool211, label %if.else217, label %if.then212, !dbg !1949

if.then212:                                       ; preds = %if.end202
  %109 = load i32, i32* %dwtLvls208, align 4, !dbg !1950, !tbaa !1025
  %call216 = call i32 @_Z16writeNStage2DDWTIiEiPT_iiiPKcS3_(i32* %102, i32 %104, i32 %106, i32 %109, i8* %108, i8* getelementptr inbounds ([5 x i8], [5 x i8]* @.str.42, i64 0, i64 0)), !dbg !1951
  br label %if.end222, !dbg !1952

if.else217:                                       ; preds = %if.end202
  %call221 = call i32 @_Z11writeLinearIiEiPT_iiPKcS3_(i32* %102, i32 %104, i32 %106, i8* %108, i8* getelementptr inbounds ([9 x i8], [9 x i8]* @.str.43, i64 0, i64 0)), !dbg !1953
  br label %if.end222

if.end222:                                        ; preds = %if.else217, %if.then212
  %110 = load i8*, i8** %84, align 8, !dbg !1955, !tbaa !862
  %call223 = call i32 @cudaFree(i8* %110), !dbg !1956
  %call225 = call i32 @cudaGetLastError(), !dbg !1957
  call void @llvm.dbg.value(metadata i32 %call225, i64 0, metadata !1617, metadata !675), !dbg !1957
  %cmp226 = icmp eq i32 %call225, 0, !dbg !1958
  br i1 %cmp226, label %if.end230, label %if.then227, !dbg !1957

if.then227:                                       ; preds = %if.end222
  %111 = load %struct._IO_FILE*, %struct._IO_FILE** @stderr, align 8, !dbg !1960, !tbaa !862
  %call228 = call i8* @cudaGetErrorString(i32 %call225), !dbg !1960
  %call229 = call i32 (%struct._IO_FILE*, i8*, ...) @fprintf(%struct._IO_FILE* %111, i8* getelementptr inbounds ([17 x i8], [17 x i8]* @.str.20, i64 0, i64 0), i8* getelementptr inbounds ([22 x i8], [22 x i8]* @.str.21, i64 0, i64 0), i32 210, i8* getelementptr inbounds ([10 x i8], [10 x i8]* @.str.41, i64 0, i64 0), i8* %call228) #12, !dbg !1963
  call void @exit(i32 -1) #13, !dbg !1965
  unreachable, !dbg !1960

if.end230:                                        ; preds = %if.end222
  call void @llvm.lifetime.end(i64 8, i8* nonnull %83) #10, !dbg !1967
  br label %if.end232, !dbg !1968

if.end232:                                        ; preds = %if.end33, %if.end230, %if.end180
  %112 = load i8*, i8** %7, align 8, !dbg !1969, !tbaa !862
  %call233 = call i32 @cudaFree(i8* %112), !dbg !1970
  %call235 = call i32 @cudaGetLastError(), !dbg !1971
  call void @llvm.dbg.value(metadata i32 %call235, i64 0, metadata !1619, metadata !675), !dbg !1971
  %cmp236 = icmp eq i32 %call235, 0, !dbg !1972
  br i1 %cmp236, label %if.end240, label %if.then237, !dbg !1971

if.then237:                                       ; preds = %if.end232
  %113 = load %struct._IO_FILE*, %struct._IO_FILE** @stderr, align 8, !dbg !1974, !tbaa !862
  %call238 = call i8* @cudaGetErrorString(i32 %call235), !dbg !1974
  %call239 = call i32 (%struct._IO_FILE*, i8*, ...) @fprintf(%struct._IO_FILE* %113, i8* getelementptr inbounds ([17 x i8], [17 x i8]* @.str.20, i64 0, i64 0), i8* getelementptr inbounds ([22 x i8], [22 x i8]* @.str.21, i64 0, i64 0), i32 214, i8* getelementptr inbounds ([17 x i8], [17 x i8]* @.str.44, i64 0, i64 0), i8* %call238) #12, !dbg !1977
  call void @exit(i32 -1) #13, !dbg !1979
  unreachable, !dbg !1974

if.end240:                                        ; preds = %if.end232
  %114 = load i8*, i8** %11, align 8, !dbg !1981, !tbaa !862
  %call241 = call i32 @cudaFree(i8* %114), !dbg !1982
  %call243 = call i32 @cudaGetLastError(), !dbg !1983
  call void @llvm.dbg.value(metadata i32 %call243, i64 0, metadata !1621, metadata !675), !dbg !1983
  %cmp244 = icmp eq i32 %call243, 0, !dbg !1984
  br i1 %cmp244, label %if.end248, label %if.then245, !dbg !1983

if.then245:                                       ; preds = %if.end240
  %115 = load %struct._IO_FILE*, %struct._IO_FILE** @stderr, align 8, !dbg !1986, !tbaa !862
  %call246 = call i8* @cudaGetErrorString(i32 %call243), !dbg !1986
  %call247 = call i32 (%struct._IO_FILE*, i8*, ...) @fprintf(%struct._IO_FILE* %115, i8* getelementptr inbounds ([17 x i8], [17 x i8]* @.str.20, i64 0, i64 0), i8* getelementptr inbounds ([22 x i8], [22 x i8]* @.str.21, i64 0, i64 0), i32 216, i8* getelementptr inbounds ([17 x i8], [17 x i8]* @.str.44, i64 0, i64 0), i8* %call246) #12, !dbg !1989
  call void @exit(i32 -1) #13, !dbg !1991
  unreachable, !dbg !1986

if.end248:                                        ; preds = %if.end240
  call void @llvm.lifetime.end(i64 8, i8* nonnull %6) #10, !dbg !1993
  call void @llvm.lifetime.end(i64 8, i8* nonnull %5) #10, !dbg !1993
  ret void, !dbg !1993
}

declare i32 @cudaFreeHost(i8*) local_unnamed_addr #5

; Function Attrs: nounwind
declare i64 @strtol(i8* readonly, i8** nocapture, i32) local_unnamed_addr #3

declare i32 @cudaMalloc(i8**, i64) local_unnamed_addr #5

declare i32 @cudaMemset(i8*, i32, i64) local_unnamed_addr #5

declare void @_Z15rgbToComponentsIfEvPT_S1_S1_Phii(float*, float*, float*, i8*, i32, i32) local_unnamed_addr #5

declare i32 @_Z11nStage2dDWTIfEiPT_S1_S1_iiib(float*, float*, float*, i32, i32, i32, i1 zeroext) local_unnamed_addr #5

declare i32 @cudaFree(i8*) local_unnamed_addr #5

declare void @_Z13bwToComponentIfEvPT_Phii(float*, i8*, i32, i32) local_unnamed_addr #5

declare i32 @_Z16writeNStage2DDWTIfEiPT_iiiPKcS3_(float*, i32, i32, i32, i8*, i8*) local_unnamed_addr #5

declare i32 @_Z11writeLinearIfEiPT_iiPKcS3_(float*, i32, i32, i8*, i8*) local_unnamed_addr #5

declare void @_Z15rgbToComponentsIiEvPT_S1_S1_Phii(i32*, i32*, i32*, i8*, i32, i32) local_unnamed_addr #5

declare i32 @_Z11nStage2dDWTIiEiPT_S1_S1_iiib(i32*, i32*, i32*, i32, i32, i32, i1 zeroext) local_unnamed_addr #5

declare void @_Z13bwToComponentIiEvPT_Phii(i32*, i8*, i32, i32) local_unnamed_addr #5

declare i32 @_Z16writeNStage2DDWTIiEiPT_iiiPKcS3_(i32*, i32, i32, i32, i8*, i8*) local_unnamed_addr #5

declare i32 @_Z11writeLinearIiEiPT_iiPKcS3_(i32*, i32, i32, i8*, i8*) local_unnamed_addr #5

; Function Attrs: nounwind readnone
declare void @llvm.dbg.value(metadata, i64, metadata, metadata) #1

; Function Attrs: nounwind
declare i32 @puts(i8* nocapture readonly) #10

; Function Attrs: nounwind readonly
declare i8* @strchr(i8*, i32) #11

attributes #0 = { uwtable "correctly-rounded-divide-sqrt-fp-math"="false" "disable-tail-calls"="false" "less-precise-fpmad"="false" "no-frame-pointer-elim"="false" "no-infs-fp-math"="false" "no-jump-tables"="false" "no-nans-fp-math"="false" "no-signed-zeros-fp-math"="false" "stack-protector-buffer-size"="8" "target-cpu"="x86-64" "target-features"="+fxsr,+mmx,+sse,+sse2,+x87" "unsafe-fp-math"="false" "use-soft-float"="false" }
attributes #1 = { nounwind readnone }
attributes #2 = { argmemonly nounwind }
attributes #3 = { nounwind "correctly-rounded-divide-sqrt-fp-math"="false" "disable-tail-calls"="false" "less-precise-fpmad"="false" "no-frame-pointer-elim"="false" "no-infs-fp-math"="false" "no-nans-fp-math"="false" "no-signed-zeros-fp-math"="false" "stack-protector-buffer-size"="8" "target-cpu"="x86-64" "target-features"="+fxsr,+mmx,+sse,+sse2,+x87" "unsafe-fp-math"="false" "use-soft-float"="false" }
attributes #4 = { nounwind readonly "correctly-rounded-divide-sqrt-fp-math"="false" "disable-tail-calls"="false" "less-precise-fpmad"="false" "no-frame-pointer-elim"="false" "no-infs-fp-math"="false" "no-nans-fp-math"="false" "no-signed-zeros-fp-math"="false" "stack-protector-buffer-size"="8" "target-cpu"="x86-64" "target-features"="+fxsr,+mmx,+sse,+sse2,+x87" "unsafe-fp-math"="false" "use-soft-float"="false" }
attributes #5 = { "correctly-rounded-divide-sqrt-fp-math"="false" "disable-tail-calls"="false" "less-precise-fpmad"="false" "no-frame-pointer-elim"="false" "no-infs-fp-math"="false" "no-nans-fp-math"="false" "no-signed-zeros-fp-math"="false" "stack-protector-buffer-size"="8" "target-cpu"="x86-64" "target-features"="+fxsr,+mmx,+sse,+sse2,+x87" "unsafe-fp-math"="false" "use-soft-float"="false" }
attributes #6 = { nounwind readnone "correctly-rounded-divide-sqrt-fp-math"="false" "disable-tail-calls"="false" "less-precise-fpmad"="false" "no-frame-pointer-elim"="false" "no-infs-fp-math"="false" "no-nans-fp-math"="false" "no-signed-zeros-fp-math"="false" "stack-protector-buffer-size"="8" "target-cpu"="x86-64" "target-features"="+fxsr,+mmx,+sse,+sse2,+x87" "unsafe-fp-math"="false" "use-soft-float"="false" }
attributes #7 = { nounwind uwtable "correctly-rounded-divide-sqrt-fp-math"="false" "disable-tail-calls"="false" "less-precise-fpmad"="false" "no-frame-pointer-elim"="false" "no-infs-fp-math"="false" "no-jump-tables"="false" "no-nans-fp-math"="false" "no-signed-zeros-fp-math"="false" "stack-protector-buffer-size"="8" "target-cpu"="x86-64" "target-features"="+fxsr,+mmx,+sse,+sse2,+x87" "unsafe-fp-math"="false" "use-soft-float"="false" }
attributes #8 = { norecurse uwtable "correctly-rounded-divide-sqrt-fp-math"="false" "disable-tail-calls"="false" "less-precise-fpmad"="false" "no-frame-pointer-elim"="false" "no-infs-fp-math"="false" "no-jump-tables"="false" "no-nans-fp-math"="false" "no-signed-zeros-fp-math"="false" "stack-protector-buffer-size"="8" "target-cpu"="x86-64" "target-features"="+fxsr,+mmx,+sse,+sse2,+x87" "unsafe-fp-math"="false" "use-soft-float"="false" }
attributes #9 = { noreturn nounwind "correctly-rounded-divide-sqrt-fp-math"="false" "disable-tail-calls"="false" "less-precise-fpmad"="false" "no-frame-pointer-elim"="false" "no-infs-fp-math"="false" "no-nans-fp-math"="false" "no-signed-zeros-fp-math"="false" "stack-protector-buffer-size"="8" "target-cpu"="x86-64" "target-features"="+fxsr,+mmx,+sse,+sse2,+x87" "unsafe-fp-math"="false" "use-soft-float"="false" }
attributes #10 = { nounwind }
attributes #11 = { nounwind readonly }
attributes #12 = { cold }
attributes #13 = { noreturn nounwind }

!llvm.dbg.cu = !{!0}
!llvm.module.flags = !{!661, !662}
!llvm.ident = !{!663}

!0 = distinct !DICompileUnit(language: DW_LANG_C_plus_plus, file: !1, producer: "clang version 4.0.0 (trunk 279478) (llvm/trunk 279476)", isOptimized: true, runtimeVersion: 0, emissionKind: FullDebug, enums: !2, retainedTypes: !86, imports: !105)
!1 = !DIFile(filename: "Results/dwt2d/main.cu", directory: "/home/ec2-user/DynamicAnalyis")
!2 = !{!3}
!3 = !DICompositeType(tag: DW_TAG_enumeration_type, name: "cudaError", file: !4, line: 151, size: 32, align: 32, elements: !5, identifier: "_ZTS9cudaError")
!4 = !DIFile(filename: "/usr/local/cuda/include/driver_types.h", directory: "/home/ec2-user/DynamicAnalyis")
!5 = !{!6, !7, !8, !9, !10, !11, !12, !13, !14, !15, !16, !17, !18, !19, !20, !21, !22, !23, !24, !25, !26, !27, !28, !29, !30, !31, !32, !33, !34, !35, !36, !37, !38, !39, !40, !41, !42, !43, !44, !45, !46, !47, !48, !49, !50, !51, !52, !53, !54, !55, !56, !57, !58, !59, !60, !61, !62, !63, !64, !65, !66, !67, !68, !69, !70, !71, !72, !73, !74, !75, !76, !77, !78, !79, !80, !81, !82, !83, !84, !85}
!6 = !DIEnumerator(name: "cudaSuccess", value: 0)
!7 = !DIEnumerator(name: "cudaErrorMissingConfiguration", value: 1)
!8 = !DIEnumerator(name: "cudaErrorMemoryAllocation", value: 2)
!9 = !DIEnumerator(name: "cudaErrorInitializationError", value: 3)
!10 = !DIEnumerator(name: "cudaErrorLaunchFailure", value: 4)
!11 = !DIEnumerator(name: "cudaErrorPriorLaunchFailure", value: 5)
!12 = !DIEnumerator(name: "cudaErrorLaunchTimeout", value: 6)
!13 = !DIEnumerator(name: "cudaErrorLaunchOutOfResources", value: 7)
!14 = !DIEnumerator(name: "cudaErrorInvalidDeviceFunction", value: 8)
!15 = !DIEnumerator(name: "cudaErrorInvalidConfiguration", value: 9)
!16 = !DIEnumerator(name: "cudaErrorInvalidDevice", value: 10)
!17 = !DIEnumerator(name: "cudaErrorInvalidValue", value: 11)
!18 = !DIEnumerator(name: "cudaErrorInvalidPitchValue", value: 12)
!19 = !DIEnumerator(name: "cudaErrorInvalidSymbol", value: 13)
!20 = !DIEnumerator(name: "cudaErrorMapBufferObjectFailed", value: 14)
!21 = !DIEnumerator(name: "cudaErrorUnmapBufferObjectFailed", value: 15)
!22 = !DIEnumerator(name: "cudaErrorInvalidHostPointer", value: 16)
!23 = !DIEnumerator(name: "cudaErrorInvalidDevicePointer", value: 17)
!24 = !DIEnumerator(name: "cudaErrorInvalidTexture", value: 18)
!25 = !DIEnumerator(name: "cudaErrorInvalidTextureBinding", value: 19)
!26 = !DIEnumerator(name: "cudaErrorInvalidChannelDescriptor", value: 20)
!27 = !DIEnumerator(name: "cudaErrorInvalidMemcpyDirection", value: 21)
!28 = !DIEnumerator(name: "cudaErrorAddressOfConstant", value: 22)
!29 = !DIEnumerator(name: "cudaErrorTextureFetchFailed", value: 23)
!30 = !DIEnumerator(name: "cudaErrorTextureNotBound", value: 24)
!31 = !DIEnumerator(name: "cudaErrorSynchronizationError", value: 25)
!32 = !DIEnumerator(name: "cudaErrorInvalidFilterSetting", value: 26)
!33 = !DIEnumerator(name: "cudaErrorInvalidNormSetting", value: 27)
!34 = !DIEnumerator(name: "cudaErrorMixedDeviceExecution", value: 28)
!35 = !DIEnumerator(name: "cudaErrorCudartUnloading", value: 29)
!36 = !DIEnumerator(name: "cudaErrorUnknown", value: 30)
!37 = !DIEnumerator(name: "cudaErrorNotYetImplemented", value: 31)
!38 = !DIEnumerator(name: "cudaErrorMemoryValueTooLarge", value: 32)
!39 = !DIEnumerator(name: "cudaErrorInvalidResourceHandle", value: 33)
!40 = !DIEnumerator(name: "cudaErrorNotReady", value: 34)
!41 = !DIEnumerator(name: "cudaErrorInsufficientDriver", value: 35)
!42 = !DIEnumerator(name: "cudaErrorSetOnActiveProcess", value: 36)
!43 = !DIEnumerator(name: "cudaErrorInvalidSurface", value: 37)
!44 = !DIEnumerator(name: "cudaErrorNoDevice", value: 38)
!45 = !DIEnumerator(name: "cudaErrorECCUncorrectable", value: 39)
!46 = !DIEnumerator(name: "cudaErrorSharedObjectSymbolNotFound", value: 40)
!47 = !DIEnumerator(name: "cudaErrorSharedObjectInitFailed", value: 41)
!48 = !DIEnumerator(name: "cudaErrorUnsupportedLimit", value: 42)
!49 = !DIEnumerator(name: "cudaErrorDuplicateVariableName", value: 43)
!50 = !DIEnumerator(name: "cudaErrorDuplicateTextureName", value: 44)
!51 = !DIEnumerator(name: "cudaErrorDuplicateSurfaceName", value: 45)
!52 = !DIEnumerator(name: "cudaErrorDevicesUnavailable", value: 46)
!53 = !DIEnumerator(name: "cudaErrorInvalidKernelImage", value: 47)
!54 = !DIEnumerator(name: "cudaErrorNoKernelImageForDevice", value: 48)
!55 = !DIEnumerator(name: "cudaErrorIncompatibleDriverContext", value: 49)
!56 = !DIEnumerator(name: "cudaErrorPeerAccessAlreadyEnabled", value: 50)
!57 = !DIEnumerator(name: "cudaErrorPeerAccessNotEnabled", value: 51)
!58 = !DIEnumerator(name: "cudaErrorDeviceAlreadyInUse", value: 54)
!59 = !DIEnumerator(name: "cudaErrorProfilerDisabled", value: 55)
!60 = !DIEnumerator(name: "cudaErrorProfilerNotInitialized", value: 56)
!61 = !DIEnumerator(name: "cudaErrorProfilerAlreadyStarted", value: 57)
!62 = !DIEnumerator(name: "cudaErrorProfilerAlreadyStopped", value: 58)
!63 = !DIEnumerator(name: "cudaErrorAssert", value: 59)
!64 = !DIEnumerator(name: "cudaErrorTooManyPeers", value: 60)
!65 = !DIEnumerator(name: "cudaErrorHostMemoryAlreadyRegistered", value: 61)
!66 = !DIEnumerator(name: "cudaErrorHostMemoryNotRegistered", value: 62)
!67 = !DIEnumerator(name: "cudaErrorOperatingSystem", value: 63)
!68 = !DIEnumerator(name: "cudaErrorPeerAccessUnsupported", value: 64)
!69 = !DIEnumerator(name: "cudaErrorLaunchMaxDepthExceeded", value: 65)
!70 = !DIEnumerator(name: "cudaErrorLaunchFileScopedTex", value: 66)
!71 = !DIEnumerator(name: "cudaErrorLaunchFileScopedSurf", value: 67)
!72 = !DIEnumerator(name: "cudaErrorSyncDepthExceeded", value: 68)
!73 = !DIEnumerator(name: "cudaErrorLaunchPendingCountExceeded", value: 69)
!74 = !DIEnumerator(name: "cudaErrorNotPermitted", value: 70)
!75 = !DIEnumerator(name: "cudaErrorNotSupported", value: 71)
!76 = !DIEnumerator(name: "cudaErrorHardwareStackError", value: 72)
!77 = !DIEnumerator(name: "cudaErrorIllegalInstruction", value: 73)
!78 = !DIEnumerator(name: "cudaErrorMisalignedAddress", value: 74)
!79 = !DIEnumerator(name: "cudaErrorInvalidAddressSpace", value: 75)
!80 = !DIEnumerator(name: "cudaErrorInvalidPc", value: 76)
!81 = !DIEnumerator(name: "cudaErrorIllegalAddress", value: 77)
!82 = !DIEnumerator(name: "cudaErrorInvalidPtx", value: 78)
!83 = !DIEnumerator(name: "cudaErrorInvalidGraphicsContext", value: 79)
!84 = !DIEnumerator(name: "cudaErrorStartupFailure", value: 127)
!85 = !DIEnumerator(name: "cudaErrorApiFailureBase", value: 10000)
!86 = !{!87, !89, !102, !98, !104}
!87 = !DIDerivedType(tag: DW_TAG_pointer_type, baseType: !88, size: 64, align: 64)
!88 = !DIBasicType(name: "char", size: 8, align: 8, encoding: DW_ATE_signed_char)
!89 = !DIDerivedType(tag: DW_TAG_pointer_type, baseType: !90, size: 64, align: 64)
!90 = distinct !DICompositeType(tag: DW_TAG_structure_type, name: "dwt", file: !1, line: 42, size: 320, align: 64, elements: !91, identifier: "_ZTS3dwt")
!91 = !{!92, !93, !94, !97, !99, !100, !101}
!92 = !DIDerivedType(tag: DW_TAG_member, name: "srcFilename", scope: !90, file: !1, line: 43, baseType: !87, size: 64, align: 64)
!93 = !DIDerivedType(tag: DW_TAG_member, name: "outFilename", scope: !90, file: !1, line: 44, baseType: !87, size: 64, align: 64, offset: 64)
!94 = !DIDerivedType(tag: DW_TAG_member, name: "srcImg", scope: !90, file: !1, line: 45, baseType: !95, size: 64, align: 64, offset: 128)
!95 = !DIDerivedType(tag: DW_TAG_pointer_type, baseType: !96, size: 64, align: 64)
!96 = !DIBasicType(name: "unsigned char", size: 8, align: 8, encoding: DW_ATE_unsigned_char)
!97 = !DIDerivedType(tag: DW_TAG_member, name: "pixWidth", scope: !90, file: !1, line: 46, baseType: !98, size: 32, align: 32, offset: 192)
!98 = !DIBasicType(name: "int", size: 32, align: 32, encoding: DW_ATE_signed)
!99 = !DIDerivedType(tag: DW_TAG_member, name: "pixHeight", scope: !90, file: !1, line: 47, baseType: !98, size: 32, align: 32, offset: 224)
!100 = !DIDerivedType(tag: DW_TAG_member, name: "components", scope: !90, file: !1, line: 48, baseType: !98, size: 32, align: 32, offset: 256)
!101 = !DIDerivedType(tag: DW_TAG_member, name: "dwtLvls", scope: !90, file: !1, line: 49, baseType: !98, size: 32, align: 32, offset: 288)
!102 = !DIDerivedType(tag: DW_TAG_pointer_type, baseType: !103, size: 64, align: 64)
!103 = !DIDerivedType(tag: DW_TAG_pointer_type, baseType: null, size: 64, align: 64)
!104 = !DIDerivedType(tag: DW_TAG_pointer_type, baseType: !87, size: 64, align: 64)
!105 = !{!106, !113, !118, !120, !122, !124, !126, !130, !132, !134, !136, !138, !140, !142, !144, !146, !148, !150, !152, !154, !156, !158, !162, !164, !166, !168, !172, !177, !179, !181, !186, !190, !192, !194, !196, !198, !200, !202, !204, !206, !211, !215, !217, !219, !223, !225, !227, !229, !231, !233, !237, !239, !241, !246, !253, !257, !259, !261, !265, !267, !269, !273, !275, !277, !281, !283, !285, !287, !289, !291, !293, !295, !297, !299, !304, !306, !308, !312, !314, !316, !318, !320, !322, !324, !326, !330, !334, !336, !338, !343, !345, !347, !349, !351, !353, !355, !359, !365, !369, !373, !378, !381, !387, !391, !404, !408, !412, !416, !420, !424, !426, !430, !434, !438, !446, !450, !454, !458, !462, !467, !472, !476, !480, !482, !490, !494, !502, !504, !506, !510, !514, !518, !523, !527, !532, !533, !534, !535, !538, !539, !540, !541, !542, !543, !544, !547, !549, !551, !553, !555, !557, !559, !561, !564, !566, !568, !570, !572, !574, !576, !578, !580, !582, !584, !586, !588, !590, !592, !594, !596, !598, !600, !602, !604, !606, !608, !610, !612, !614, !616, !618, !620, !622, !624, !626, !628, !632, !633, !635, !637, !639, !641, !643, !645, !647, !649, !651, !653, !655, !657, !659}
!106 = !DIImportedEntity(tag: DW_TAG_imported_declaration, scope: !107, entity: !109, line: 189)
!107 = !DINamespace(name: "std", scope: null, file: !108, line: 188)
!108 = !DIFile(filename: "/usr/local/bin/../lib/clang/4.0.0/include/__clang_cuda_math_forward_declares.h", directory: "/home/ec2-user/DynamicAnalyis")
!109 = !DISubprogram(name: "abs", linkageName: "_ZL3absx", scope: !108, file: !108, line: 44, type: !110, isLocal: true, isDefinition: false, flags: DIFlagPrototyped, isOptimized: true)
!110 = !DISubroutineType(types: !111)
!111 = !{!112, !112}
!112 = !DIBasicType(name: "long long int", size: 64, align: 64, encoding: DW_ATE_signed)
!113 = !DIImportedEntity(tag: DW_TAG_imported_declaration, scope: !107, entity: !114, line: 190)
!114 = !DISubprogram(name: "acos", linkageName: "_ZL4acosf", scope: !108, file: !108, line: 46, type: !115, isLocal: true, isDefinition: false, flags: DIFlagPrototyped, isOptimized: true)
!115 = !DISubroutineType(types: !116)
!116 = !{!117, !117}
!117 = !DIBasicType(name: "float", size: 32, align: 32, encoding: DW_ATE_float)
!118 = !DIImportedEntity(tag: DW_TAG_imported_declaration, scope: !107, entity: !119, line: 191)
!119 = !DISubprogram(name: "acosh", linkageName: "_ZL5acoshf", scope: !108, file: !108, line: 48, type: !115, isLocal: true, isDefinition: false, flags: DIFlagPrototyped, isOptimized: true)
!120 = !DIImportedEntity(tag: DW_TAG_imported_declaration, scope: !107, entity: !121, line: 192)
!121 = !DISubprogram(name: "asin", linkageName: "_ZL4asinf", scope: !108, file: !108, line: 50, type: !115, isLocal: true, isDefinition: false, flags: DIFlagPrototyped, isOptimized: true)
!122 = !DIImportedEntity(tag: DW_TAG_imported_declaration, scope: !107, entity: !123, line: 193)
!123 = !DISubprogram(name: "asinh", linkageName: "_ZL5asinhf", scope: !108, file: !108, line: 52, type: !115, isLocal: true, isDefinition: false, flags: DIFlagPrototyped, isOptimized: true)
!124 = !DIImportedEntity(tag: DW_TAG_imported_declaration, scope: !107, entity: !125, line: 194)
!125 = !DISubprogram(name: "atan", linkageName: "_ZL4atanf", scope: !108, file: !108, line: 56, type: !115, isLocal: true, isDefinition: false, flags: DIFlagPrototyped, isOptimized: true)
!126 = !DIImportedEntity(tag: DW_TAG_imported_declaration, scope: !107, entity: !127, line: 195)
!127 = !DISubprogram(name: "atan2", linkageName: "_ZL5atan2ff", scope: !108, file: !108, line: 54, type: !128, isLocal: true, isDefinition: false, flags: DIFlagPrototyped, isOptimized: true)
!128 = !DISubroutineType(types: !129)
!129 = !{!117, !117, !117}
!130 = !DIImportedEntity(tag: DW_TAG_imported_declaration, scope: !107, entity: !131, line: 196)
!131 = !DISubprogram(name: "atanh", linkageName: "_ZL5atanhf", scope: !108, file: !108, line: 58, type: !115, isLocal: true, isDefinition: false, flags: DIFlagPrototyped, isOptimized: true)
!132 = !DIImportedEntity(tag: DW_TAG_imported_declaration, scope: !107, entity: !133, line: 197)
!133 = !DISubprogram(name: "cbrt", linkageName: "_ZL4cbrtf", scope: !108, file: !108, line: 60, type: !115, isLocal: true, isDefinition: false, flags: DIFlagPrototyped, isOptimized: true)
!134 = !DIImportedEntity(tag: DW_TAG_imported_declaration, scope: !107, entity: !135, line: 198)
!135 = !DISubprogram(name: "ceil", linkageName: "_ZL4ceilf", scope: !108, file: !108, line: 62, type: !115, isLocal: true, isDefinition: false, flags: DIFlagPrototyped, isOptimized: true)
!136 = !DIImportedEntity(tag: DW_TAG_imported_declaration, scope: !107, entity: !137, line: 199)
!137 = !DISubprogram(name: "copysign", linkageName: "_ZL8copysignff", scope: !108, file: !108, line: 64, type: !128, isLocal: true, isDefinition: false, flags: DIFlagPrototyped, isOptimized: true)
!138 = !DIImportedEntity(tag: DW_TAG_imported_declaration, scope: !107, entity: !139, line: 200)
!139 = !DISubprogram(name: "cos", linkageName: "_ZL3cosf", scope: !108, file: !108, line: 66, type: !115, isLocal: true, isDefinition: false, flags: DIFlagPrototyped, isOptimized: true)
!140 = !DIImportedEntity(tag: DW_TAG_imported_declaration, scope: !107, entity: !141, line: 201)
!141 = !DISubprogram(name: "cosh", linkageName: "_ZL4coshf", scope: !108, file: !108, line: 68, type: !115, isLocal: true, isDefinition: false, flags: DIFlagPrototyped, isOptimized: true)
!142 = !DIImportedEntity(tag: DW_TAG_imported_declaration, scope: !107, entity: !143, line: 202)
!143 = !DISubprogram(name: "erf", linkageName: "_ZL3erff", scope: !108, file: !108, line: 72, type: !115, isLocal: true, isDefinition: false, flags: DIFlagPrototyped, isOptimized: true)
!144 = !DIImportedEntity(tag: DW_TAG_imported_declaration, scope: !107, entity: !145, line: 203)
!145 = !DISubprogram(name: "erfc", linkageName: "_ZL4erfcf", scope: !108, file: !108, line: 70, type: !115, isLocal: true, isDefinition: false, flags: DIFlagPrototyped, isOptimized: true)
!146 = !DIImportedEntity(tag: DW_TAG_imported_declaration, scope: !107, entity: !147, line: 204)
!147 = !DISubprogram(name: "exp", linkageName: "_ZL3expf", scope: !108, file: !108, line: 76, type: !115, isLocal: true, isDefinition: false, flags: DIFlagPrototyped, isOptimized: true)
!148 = !DIImportedEntity(tag: DW_TAG_imported_declaration, scope: !107, entity: !149, line: 205)
!149 = !DISubprogram(name: "exp2", linkageName: "_ZL4exp2f", scope: !108, file: !108, line: 74, type: !115, isLocal: true, isDefinition: false, flags: DIFlagPrototyped, isOptimized: true)
!150 = !DIImportedEntity(tag: DW_TAG_imported_declaration, scope: !107, entity: !151, line: 206)
!151 = !DISubprogram(name: "expm1", linkageName: "_ZL5expm1f", scope: !108, file: !108, line: 78, type: !115, isLocal: true, isDefinition: false, flags: DIFlagPrototyped, isOptimized: true)
!152 = !DIImportedEntity(tag: DW_TAG_imported_declaration, scope: !107, entity: !153, line: 207)
!153 = !DISubprogram(name: "fabs", linkageName: "_ZL4fabsf", scope: !108, file: !108, line: 80, type: !115, isLocal: true, isDefinition: false, flags: DIFlagPrototyped, isOptimized: true)
!154 = !DIImportedEntity(tag: DW_TAG_imported_declaration, scope: !107, entity: !155, line: 208)
!155 = !DISubprogram(name: "fdim", linkageName: "_ZL4fdimff", scope: !108, file: !108, line: 82, type: !128, isLocal: true, isDefinition: false, flags: DIFlagPrototyped, isOptimized: true)
!156 = !DIImportedEntity(tag: DW_TAG_imported_declaration, scope: !107, entity: !157, line: 209)
!157 = !DISubprogram(name: "floor", linkageName: "_ZL5floorf", scope: !108, file: !108, line: 84, type: !115, isLocal: true, isDefinition: false, flags: DIFlagPrototyped, isOptimized: true)
!158 = !DIImportedEntity(tag: DW_TAG_imported_declaration, scope: !107, entity: !159, line: 210)
!159 = !DISubprogram(name: "fma", linkageName: "_ZL3fmafff", scope: !108, file: !108, line: 86, type: !160, isLocal: true, isDefinition: false, flags: DIFlagPrototyped, isOptimized: true)
!160 = !DISubroutineType(types: !161)
!161 = !{!117, !117, !117, !117}
!162 = !DIImportedEntity(tag: DW_TAG_imported_declaration, scope: !107, entity: !163, line: 211)
!163 = !DISubprogram(name: "fmax", linkageName: "_ZL4fmaxff", scope: !108, file: !108, line: 88, type: !128, isLocal: true, isDefinition: false, flags: DIFlagPrototyped, isOptimized: true)
!164 = !DIImportedEntity(tag: DW_TAG_imported_declaration, scope: !107, entity: !165, line: 212)
!165 = !DISubprogram(name: "fmin", linkageName: "_ZL4fminff", scope: !108, file: !108, line: 90, type: !128, isLocal: true, isDefinition: false, flags: DIFlagPrototyped, isOptimized: true)
!166 = !DIImportedEntity(tag: DW_TAG_imported_declaration, scope: !107, entity: !167, line: 213)
!167 = !DISubprogram(name: "fmod", linkageName: "_ZL4fmodff", scope: !108, file: !108, line: 92, type: !128, isLocal: true, isDefinition: false, flags: DIFlagPrototyped, isOptimized: true)
!168 = !DIImportedEntity(tag: DW_TAG_imported_declaration, scope: !107, entity: !169, line: 214)
!169 = !DISubprogram(name: "fpclassify", linkageName: "_ZL10fpclassifyf", scope: !108, file: !108, line: 94, type: !170, isLocal: true, isDefinition: false, flags: DIFlagPrototyped, isOptimized: true)
!170 = !DISubroutineType(types: !171)
!171 = !{!98, !117}
!172 = !DIImportedEntity(tag: DW_TAG_imported_declaration, scope: !107, entity: !173, line: 215)
!173 = !DISubprogram(name: "frexp", linkageName: "_ZL5frexpfPi", scope: !108, file: !108, line: 96, type: !174, isLocal: true, isDefinition: false, flags: DIFlagPrototyped, isOptimized: true)
!174 = !DISubroutineType(types: !175)
!175 = !{!117, !117, !176}
!176 = !DIDerivedType(tag: DW_TAG_pointer_type, baseType: !98, size: 64, align: 64)
!177 = !DIImportedEntity(tag: DW_TAG_imported_declaration, scope: !107, entity: !178, line: 216)
!178 = !DISubprogram(name: "hypot", linkageName: "_ZL5hypotff", scope: !108, file: !108, line: 98, type: !128, isLocal: true, isDefinition: false, flags: DIFlagPrototyped, isOptimized: true)
!179 = !DIImportedEntity(tag: DW_TAG_imported_declaration, scope: !107, entity: !180, line: 217)
!180 = !DISubprogram(name: "ilogb", linkageName: "_ZL5ilogbf", scope: !108, file: !108, line: 100, type: !170, isLocal: true, isDefinition: false, flags: DIFlagPrototyped, isOptimized: true)
!181 = !DIImportedEntity(tag: DW_TAG_imported_declaration, scope: !107, entity: !182, line: 218)
!182 = !DISubprogram(name: "isfinite", linkageName: "_ZL8isfinitef", scope: !108, file: !108, line: 102, type: !183, isLocal: true, isDefinition: false, flags: DIFlagPrototyped, isOptimized: true)
!183 = !DISubroutineType(types: !184)
!184 = !{!185, !117}
!185 = !DIBasicType(name: "bool", size: 8, align: 8, encoding: DW_ATE_boolean)
!186 = !DIImportedEntity(tag: DW_TAG_imported_declaration, scope: !107, entity: !187, line: 219)
!187 = !DISubprogram(name: "isgreater", linkageName: "_ZL9isgreaterff", scope: !108, file: !108, line: 106, type: !188, isLocal: true, isDefinition: false, flags: DIFlagPrototyped, isOptimized: true)
!188 = !DISubroutineType(types: !189)
!189 = !{!185, !117, !117}
!190 = !DIImportedEntity(tag: DW_TAG_imported_declaration, scope: !107, entity: !191, line: 220)
!191 = !DISubprogram(name: "isgreaterequal", linkageName: "_ZL14isgreaterequalff", scope: !108, file: !108, line: 105, type: !188, isLocal: true, isDefinition: false, flags: DIFlagPrototyped, isOptimized: true)
!192 = !DIImportedEntity(tag: DW_TAG_imported_declaration, scope: !107, entity: !193, line: 221)
!193 = !DISubprogram(name: "isinf", linkageName: "_ZL5isinff", scope: !108, file: !108, line: 108, type: !183, isLocal: true, isDefinition: false, flags: DIFlagPrototyped, isOptimized: true)
!194 = !DIImportedEntity(tag: DW_TAG_imported_declaration, scope: !107, entity: !195, line: 222)
!195 = !DISubprogram(name: "isless", linkageName: "_ZL6islessff", scope: !108, file: !108, line: 112, type: !188, isLocal: true, isDefinition: false, flags: DIFlagPrototyped, isOptimized: true)
!196 = !DIImportedEntity(tag: DW_TAG_imported_declaration, scope: !107, entity: !197, line: 223)
!197 = !DISubprogram(name: "islessequal", linkageName: "_ZL11islessequalff", scope: !108, file: !108, line: 111, type: !188, isLocal: true, isDefinition: false, flags: DIFlagPrototyped, isOptimized: true)
!198 = !DIImportedEntity(tag: DW_TAG_imported_declaration, scope: !107, entity: !199, line: 224)
!199 = !DISubprogram(name: "islessgreater", linkageName: "_ZL13islessgreaterff", scope: !108, file: !108, line: 114, type: !188, isLocal: true, isDefinition: false, flags: DIFlagPrototyped, isOptimized: true)
!200 = !DIImportedEntity(tag: DW_TAG_imported_declaration, scope: !107, entity: !201, line: 225)
!201 = !DISubprogram(name: "isnan", linkageName: "_ZL5isnanf", scope: !108, file: !108, line: 116, type: !183, isLocal: true, isDefinition: false, flags: DIFlagPrototyped, isOptimized: true)
!202 = !DIImportedEntity(tag: DW_TAG_imported_declaration, scope: !107, entity: !203, line: 226)
!203 = !DISubprogram(name: "isnormal", linkageName: "_ZL8isnormalf", scope: !108, file: !108, line: 118, type: !183, isLocal: true, isDefinition: false, flags: DIFlagPrototyped, isOptimized: true)
!204 = !DIImportedEntity(tag: DW_TAG_imported_declaration, scope: !107, entity: !205, line: 227)
!205 = !DISubprogram(name: "isunordered", linkageName: "_ZL11isunorderedff", scope: !108, file: !108, line: 120, type: !188, isLocal: true, isDefinition: false, flags: DIFlagPrototyped, isOptimized: true)
!206 = !DIImportedEntity(tag: DW_TAG_imported_declaration, scope: !107, entity: !207, line: 228)
!207 = !DISubprogram(name: "labs", linkageName: "_ZL4labsl", scope: !108, file: !108, line: 121, type: !208, isLocal: true, isDefinition: false, flags: DIFlagPrototyped, isOptimized: true)
!208 = !DISubroutineType(types: !209)
!209 = !{!210, !210}
!210 = !DIBasicType(name: "long int", size: 64, align: 64, encoding: DW_ATE_signed)
!211 = !DIImportedEntity(tag: DW_TAG_imported_declaration, scope: !107, entity: !212, line: 229)
!212 = !DISubprogram(name: "ldexp", linkageName: "_ZL5ldexpfi", scope: !108, file: !108, line: 123, type: !213, isLocal: true, isDefinition: false, flags: DIFlagPrototyped, isOptimized: true)
!213 = !DISubroutineType(types: !214)
!214 = !{!117, !117, !98}
!215 = !DIImportedEntity(tag: DW_TAG_imported_declaration, scope: !107, entity: !216, line: 230)
!216 = !DISubprogram(name: "lgamma", linkageName: "_ZL6lgammaf", scope: !108, file: !108, line: 125, type: !115, isLocal: true, isDefinition: false, flags: DIFlagPrototyped, isOptimized: true)
!217 = !DIImportedEntity(tag: DW_TAG_imported_declaration, scope: !107, entity: !218, line: 231)
!218 = !DISubprogram(name: "llabs", linkageName: "_ZL5llabsx", scope: !108, file: !108, line: 126, type: !110, isLocal: true, isDefinition: false, flags: DIFlagPrototyped, isOptimized: true)
!219 = !DIImportedEntity(tag: DW_TAG_imported_declaration, scope: !107, entity: !220, line: 232)
!220 = !DISubprogram(name: "llrint", linkageName: "_ZL6llrintf", scope: !108, file: !108, line: 128, type: !221, isLocal: true, isDefinition: false, flags: DIFlagPrototyped, isOptimized: true)
!221 = !DISubroutineType(types: !222)
!222 = !{!112, !117}
!223 = !DIImportedEntity(tag: DW_TAG_imported_declaration, scope: !107, entity: !224, line: 233)
!224 = !DISubprogram(name: "log", linkageName: "_ZL3logf", scope: !108, file: !108, line: 138, type: !115, isLocal: true, isDefinition: false, flags: DIFlagPrototyped, isOptimized: true)
!225 = !DIImportedEntity(tag: DW_TAG_imported_declaration, scope: !107, entity: !226, line: 234)
!226 = !DISubprogram(name: "log10", linkageName: "_ZL5log10f", scope: !108, file: !108, line: 130, type: !115, isLocal: true, isDefinition: false, flags: DIFlagPrototyped, isOptimized: true)
!227 = !DIImportedEntity(tag: DW_TAG_imported_declaration, scope: !107, entity: !228, line: 235)
!228 = !DISubprogram(name: "log1p", linkageName: "_ZL5log1pf", scope: !108, file: !108, line: 132, type: !115, isLocal: true, isDefinition: false, flags: DIFlagPrototyped, isOptimized: true)
!229 = !DIImportedEntity(tag: DW_TAG_imported_declaration, scope: !107, entity: !230, line: 236)
!230 = !DISubprogram(name: "log2", linkageName: "_ZL4log2f", scope: !108, file: !108, line: 134, type: !115, isLocal: true, isDefinition: false, flags: DIFlagPrototyped, isOptimized: true)
!231 = !DIImportedEntity(tag: DW_TAG_imported_declaration, scope: !107, entity: !232, line: 237)
!232 = !DISubprogram(name: "logb", linkageName: "_ZL4logbf", scope: !108, file: !108, line: 136, type: !115, isLocal: true, isDefinition: false, flags: DIFlagPrototyped, isOptimized: true)
!233 = !DIImportedEntity(tag: DW_TAG_imported_declaration, scope: !107, entity: !234, line: 238)
!234 = !DISubprogram(name: "lrint", linkageName: "_ZL5lrintf", scope: !108, file: !108, line: 140, type: !235, isLocal: true, isDefinition: false, flags: DIFlagPrototyped, isOptimized: true)
!235 = !DISubroutineType(types: !236)
!236 = !{!210, !117}
!237 = !DIImportedEntity(tag: DW_TAG_imported_declaration, scope: !107, entity: !238, line: 239)
!238 = !DISubprogram(name: "lround", linkageName: "_ZL6lroundf", scope: !108, file: !108, line: 142, type: !235, isLocal: true, isDefinition: false, flags: DIFlagPrototyped, isOptimized: true)
!239 = !DIImportedEntity(tag: DW_TAG_imported_declaration, scope: !107, entity: !240, line: 240)
!240 = !DISubprogram(name: "llround", linkageName: "_ZL7llroundf", scope: !108, file: !108, line: 143, type: !221, isLocal: true, isDefinition: false, flags: DIFlagPrototyped, isOptimized: true)
!241 = !DIImportedEntity(tag: DW_TAG_imported_declaration, scope: !107, entity: !242, line: 241)
!242 = !DISubprogram(name: "modf", linkageName: "_ZL4modffPf", scope: !108, file: !108, line: 145, type: !243, isLocal: true, isDefinition: false, flags: DIFlagPrototyped, isOptimized: true)
!243 = !DISubroutineType(types: !244)
!244 = !{!117, !117, !245}
!245 = !DIDerivedType(tag: DW_TAG_pointer_type, baseType: !117, size: 64, align: 64)
!246 = !DIImportedEntity(tag: DW_TAG_imported_declaration, scope: !107, entity: !247, line: 242)
!247 = !DISubprogram(name: "nan", linkageName: "_ZL3nanPKc", scope: !108, file: !108, line: 146, type: !248, isLocal: true, isDefinition: false, flags: DIFlagPrototyped, isOptimized: true)
!248 = !DISubroutineType(types: !249)
!249 = !{!250, !251}
!250 = !DIBasicType(name: "double", size: 64, align: 64, encoding: DW_ATE_float)
!251 = !DIDerivedType(tag: DW_TAG_pointer_type, baseType: !252, size: 64, align: 64)
!252 = !DIDerivedType(tag: DW_TAG_const_type, baseType: !88)
!253 = !DIImportedEntity(tag: DW_TAG_imported_declaration, scope: !107, entity: !254, line: 243)
!254 = !DISubprogram(name: "nanf", linkageName: "_ZL4nanfPKc", scope: !108, file: !108, line: 147, type: !255, isLocal: true, isDefinition: false, flags: DIFlagPrototyped, isOptimized: true)
!255 = !DISubroutineType(types: !256)
!256 = !{!117, !251}
!257 = !DIImportedEntity(tag: DW_TAG_imported_declaration, scope: !107, entity: !258, line: 244)
!258 = !DISubprogram(name: "nearbyint", linkageName: "_ZL9nearbyintf", scope: !108, file: !108, line: 149, type: !115, isLocal: true, isDefinition: false, flags: DIFlagPrototyped, isOptimized: true)
!259 = !DIImportedEntity(tag: DW_TAG_imported_declaration, scope: !107, entity: !260, line: 245)
!260 = !DISubprogram(name: "nextafter", linkageName: "_ZL9nextafterff", scope: !108, file: !108, line: 151, type: !128, isLocal: true, isDefinition: false, flags: DIFlagPrototyped, isOptimized: true)
!261 = !DIImportedEntity(tag: DW_TAG_imported_declaration, scope: !107, entity: !262, line: 246)
!262 = !DISubprogram(name: "nexttoward", linkageName: "_ZL10nexttowardfd", scope: !108, file: !108, line: 153, type: !263, isLocal: true, isDefinition: false, flags: DIFlagPrototyped, isOptimized: true)
!263 = !DISubroutineType(types: !264)
!264 = !{!117, !117, !250}
!265 = !DIImportedEntity(tag: DW_TAG_imported_declaration, scope: !107, entity: !266, line: 247)
!266 = !DISubprogram(name: "pow", linkageName: "_ZL3powfi", scope: !108, file: !108, line: 158, type: !213, isLocal: true, isDefinition: false, flags: DIFlagPrototyped, isOptimized: true)
!267 = !DIImportedEntity(tag: DW_TAG_imported_declaration, scope: !107, entity: !268, line: 248)
!268 = !DISubprogram(name: "remainder", linkageName: "_ZL9remainderff", scope: !108, file: !108, line: 160, type: !128, isLocal: true, isDefinition: false, flags: DIFlagPrototyped, isOptimized: true)
!269 = !DIImportedEntity(tag: DW_TAG_imported_declaration, scope: !107, entity: !270, line: 249)
!270 = !DISubprogram(name: "remquo", linkageName: "_ZL6remquoffPi", scope: !108, file: !108, line: 162, type: !271, isLocal: true, isDefinition: false, flags: DIFlagPrototyped, isOptimized: true)
!271 = !DISubroutineType(types: !272)
!272 = !{!117, !117, !117, !176}
!273 = !DIImportedEntity(tag: DW_TAG_imported_declaration, scope: !107, entity: !274, line: 250)
!274 = !DISubprogram(name: "rint", linkageName: "_ZL4rintf", scope: !108, file: !108, line: 164, type: !115, isLocal: true, isDefinition: false, flags: DIFlagPrototyped, isOptimized: true)
!275 = !DIImportedEntity(tag: DW_TAG_imported_declaration, scope: !107, entity: !276, line: 251)
!276 = !DISubprogram(name: "round", linkageName: "_ZL5roundf", scope: !108, file: !108, line: 166, type: !115, isLocal: true, isDefinition: false, flags: DIFlagPrototyped, isOptimized: true)
!277 = !DIImportedEntity(tag: DW_TAG_imported_declaration, scope: !107, entity: !278, line: 252)
!278 = !DISubprogram(name: "scalbln", linkageName: "_ZL7scalblnfl", scope: !108, file: !108, line: 168, type: !279, isLocal: true, isDefinition: false, flags: DIFlagPrototyped, isOptimized: true)
!279 = !DISubroutineType(types: !280)
!280 = !{!117, !117, !210}
!281 = !DIImportedEntity(tag: DW_TAG_imported_declaration, scope: !107, entity: !282, line: 253)
!282 = !DISubprogram(name: "scalbn", linkageName: "_ZL6scalbnfi", scope: !108, file: !108, line: 170, type: !213, isLocal: true, isDefinition: false, flags: DIFlagPrototyped, isOptimized: true)
!283 = !DIImportedEntity(tag: DW_TAG_imported_declaration, scope: !107, entity: !284, line: 254)
!284 = !DISubprogram(name: "signbit", linkageName: "_ZL7signbitf", scope: !108, file: !108, line: 172, type: !183, isLocal: true, isDefinition: false, flags: DIFlagPrototyped, isOptimized: true)
!285 = !DIImportedEntity(tag: DW_TAG_imported_declaration, scope: !107, entity: !286, line: 255)
!286 = !DISubprogram(name: "sin", linkageName: "_ZL3sinf", scope: !108, file: !108, line: 174, type: !115, isLocal: true, isDefinition: false, flags: DIFlagPrototyped, isOptimized: true)
!287 = !DIImportedEntity(tag: DW_TAG_imported_declaration, scope: !107, entity: !288, line: 256)
!288 = !DISubprogram(name: "sinh", linkageName: "_ZL4sinhf", scope: !108, file: !108, line: 176, type: !115, isLocal: true, isDefinition: false, flags: DIFlagPrototyped, isOptimized: true)
!289 = !DIImportedEntity(tag: DW_TAG_imported_declaration, scope: !107, entity: !290, line: 257)
!290 = !DISubprogram(name: "sqrt", linkageName: "_ZL4sqrtf", scope: !108, file: !108, line: 178, type: !115, isLocal: true, isDefinition: false, flags: DIFlagPrototyped, isOptimized: true)
!291 = !DIImportedEntity(tag: DW_TAG_imported_declaration, scope: !107, entity: !292, line: 258)
!292 = !DISubprogram(name: "tan", linkageName: "_ZL3tanf", scope: !108, file: !108, line: 180, type: !115, isLocal: true, isDefinition: false, flags: DIFlagPrototyped, isOptimized: true)
!293 = !DIImportedEntity(tag: DW_TAG_imported_declaration, scope: !107, entity: !294, line: 259)
!294 = !DISubprogram(name: "tanh", linkageName: "_ZL4tanhf", scope: !108, file: !108, line: 182, type: !115, isLocal: true, isDefinition: false, flags: DIFlagPrototyped, isOptimized: true)
!295 = !DIImportedEntity(tag: DW_TAG_imported_declaration, scope: !107, entity: !296, line: 260)
!296 = !DISubprogram(name: "tgamma", linkageName: "_ZL6tgammaf", scope: !108, file: !108, line: 184, type: !115, isLocal: true, isDefinition: false, flags: DIFlagPrototyped, isOptimized: true)
!297 = !DIImportedEntity(tag: DW_TAG_imported_declaration, scope: !107, entity: !298, line: 261)
!298 = !DISubprogram(name: "trunc", linkageName: "_ZL5truncf", scope: !108, file: !108, line: 186, type: !115, isLocal: true, isDefinition: false, flags: DIFlagPrototyped, isOptimized: true)
!299 = !DIImportedEntity(tag: DW_TAG_imported_declaration, scope: !107, entity: !300, line: 102)
!300 = !DISubprogram(name: "acos", scope: !301, file: !301, line: 54, type: !302, isLocal: false, isDefinition: false, flags: DIFlagPrototyped, isOptimized: true)
!301 = !DIFile(filename: "/usr/include/bits/mathcalls.h", directory: "/home/ec2-user/DynamicAnalyis")
!302 = !DISubroutineType(types: !303)
!303 = !{!250, !250}
!304 = !DIImportedEntity(tag: DW_TAG_imported_declaration, scope: !107, entity: !305, line: 121)
!305 = !DISubprogram(name: "asin", scope: !301, file: !301, line: 56, type: !302, isLocal: false, isDefinition: false, flags: DIFlagPrototyped, isOptimized: true)
!306 = !DIImportedEntity(tag: DW_TAG_imported_declaration, scope: !107, entity: !307, line: 140)
!307 = !DISubprogram(name: "atan", scope: !301, file: !301, line: 58, type: !302, isLocal: false, isDefinition: false, flags: DIFlagPrototyped, isOptimized: true)
!308 = !DIImportedEntity(tag: DW_TAG_imported_declaration, scope: !107, entity: !309, line: 159)
!309 = !DISubprogram(name: "atan2", scope: !301, file: !301, line: 60, type: !310, isLocal: false, isDefinition: false, flags: DIFlagPrototyped, isOptimized: true)
!310 = !DISubroutineType(types: !311)
!311 = !{!250, !250, !250}
!312 = !DIImportedEntity(tag: DW_TAG_imported_declaration, scope: !107, entity: !313, line: 180)
!313 = !DISubprogram(name: "ceil", scope: !301, file: !301, line: 179, type: !302, isLocal: false, isDefinition: false, flags: DIFlagPrototyped, isOptimized: true)
!314 = !DIImportedEntity(tag: DW_TAG_imported_declaration, scope: !107, entity: !315, line: 199)
!315 = !DISubprogram(name: "cos", scope: !301, file: !301, line: 63, type: !302, isLocal: false, isDefinition: false, flags: DIFlagPrototyped, isOptimized: true)
!316 = !DIImportedEntity(tag: DW_TAG_imported_declaration, scope: !107, entity: !317, line: 218)
!317 = !DISubprogram(name: "cosh", scope: !301, file: !301, line: 72, type: !302, isLocal: false, isDefinition: false, flags: DIFlagPrototyped, isOptimized: true)
!318 = !DIImportedEntity(tag: DW_TAG_imported_declaration, scope: !107, entity: !319, line: 237)
!319 = !DISubprogram(name: "exp", scope: !301, file: !301, line: 100, type: !302, isLocal: false, isDefinition: false, flags: DIFlagPrototyped, isOptimized: true)
!320 = !DIImportedEntity(tag: DW_TAG_imported_declaration, scope: !107, entity: !321, line: 256)
!321 = !DISubprogram(name: "fabs", scope: !301, file: !301, line: 182, type: !302, isLocal: false, isDefinition: false, flags: DIFlagPrototyped, isOptimized: true)
!322 = !DIImportedEntity(tag: DW_TAG_imported_declaration, scope: !107, entity: !323, line: 275)
!323 = !DISubprogram(name: "floor", scope: !301, file: !301, line: 185, type: !302, isLocal: false, isDefinition: false, flags: DIFlagPrototyped, isOptimized: true)
!324 = !DIImportedEntity(tag: DW_TAG_imported_declaration, scope: !107, entity: !325, line: 294)
!325 = !DISubprogram(name: "fmod", scope: !301, file: !301, line: 188, type: !310, isLocal: false, isDefinition: false, flags: DIFlagPrototyped, isOptimized: true)
!326 = !DIImportedEntity(tag: DW_TAG_imported_declaration, scope: !107, entity: !327, line: 315)
!327 = !DISubprogram(name: "frexp", scope: !301, file: !301, line: 103, type: !328, isLocal: false, isDefinition: false, flags: DIFlagPrototyped, isOptimized: true)
!328 = !DISubroutineType(types: !329)
!329 = !{!250, !250, !176}
!330 = !DIImportedEntity(tag: DW_TAG_imported_declaration, scope: !107, entity: !331, line: 334)
!331 = !DISubprogram(name: "ldexp", scope: !301, file: !301, line: 106, type: !332, isLocal: false, isDefinition: false, flags: DIFlagPrototyped, isOptimized: true)
!332 = !DISubroutineType(types: !333)
!333 = !{!250, !250, !98}
!334 = !DIImportedEntity(tag: DW_TAG_imported_declaration, scope: !107, entity: !335, line: 353)
!335 = !DISubprogram(name: "log", scope: !301, file: !301, line: 109, type: !302, isLocal: false, isDefinition: false, flags: DIFlagPrototyped, isOptimized: true)
!336 = !DIImportedEntity(tag: DW_TAG_imported_declaration, scope: !107, entity: !337, line: 372)
!337 = !DISubprogram(name: "log10", scope: !301, file: !301, line: 112, type: !302, isLocal: false, isDefinition: false, flags: DIFlagPrototyped, isOptimized: true)
!338 = !DIImportedEntity(tag: DW_TAG_imported_declaration, scope: !107, entity: !339, line: 391)
!339 = !DISubprogram(name: "modf", scope: !301, file: !301, line: 115, type: !340, isLocal: false, isDefinition: false, flags: DIFlagPrototyped, isOptimized: true)
!340 = !DISubroutineType(types: !341)
!341 = !{!250, !250, !342}
!342 = !DIDerivedType(tag: DW_TAG_pointer_type, baseType: !250, size: 64, align: 64)
!343 = !DIImportedEntity(tag: DW_TAG_imported_declaration, scope: !107, entity: !344, line: 403)
!344 = !DISubprogram(name: "pow", scope: !301, file: !301, line: 154, type: !310, isLocal: false, isDefinition: false, flags: DIFlagPrototyped, isOptimized: true)
!345 = !DIImportedEntity(tag: DW_TAG_imported_declaration, scope: !107, entity: !346, line: 440)
!346 = !DISubprogram(name: "sin", scope: !301, file: !301, line: 65, type: !302, isLocal: false, isDefinition: false, flags: DIFlagPrototyped, isOptimized: true)
!347 = !DIImportedEntity(tag: DW_TAG_imported_declaration, scope: !107, entity: !348, line: 459)
!348 = !DISubprogram(name: "sinh", scope: !301, file: !301, line: 74, type: !302, isLocal: false, isDefinition: false, flags: DIFlagPrototyped, isOptimized: true)
!349 = !DIImportedEntity(tag: DW_TAG_imported_declaration, scope: !107, entity: !350, line: 478)
!350 = !DISubprogram(name: "sqrt", scope: !301, file: !301, line: 157, type: !302, isLocal: false, isDefinition: false, flags: DIFlagPrototyped, isOptimized: true)
!351 = !DIImportedEntity(tag: DW_TAG_imported_declaration, scope: !107, entity: !352, line: 497)
!352 = !DISubprogram(name: "tan", scope: !301, file: !301, line: 67, type: !302, isLocal: false, isDefinition: false, flags: DIFlagPrototyped, isOptimized: true)
!353 = !DIImportedEntity(tag: DW_TAG_imported_declaration, scope: !107, entity: !354, line: 516)
!354 = !DISubprogram(name: "tanh", scope: !301, file: !301, line: 76, type: !302, isLocal: false, isDefinition: false, flags: DIFlagPrototyped, isOptimized: true)
!355 = !DIImportedEntity(tag: DW_TAG_imported_declaration, scope: !107, entity: !356, line: 118)
!356 = !DIDerivedType(tag: DW_TAG_typedef, name: "div_t", file: !357, line: 101, baseType: !358)
!357 = !DIFile(filename: "/usr/include/stdlib.h", directory: "/home/ec2-user/DynamicAnalyis")
!358 = !DICompositeType(tag: DW_TAG_structure_type, file: !357, line: 97, size: 64, align: 32, flags: DIFlagFwdDecl, identifier: "_ZTS5div_t")
!359 = !DIImportedEntity(tag: DW_TAG_imported_declaration, scope: !107, entity: !360, line: 119)
!360 = !DIDerivedType(tag: DW_TAG_typedef, name: "ldiv_t", file: !357, line: 109, baseType: !361)
!361 = distinct !DICompositeType(tag: DW_TAG_structure_type, file: !357, line: 105, size: 128, align: 64, elements: !362, identifier: "_ZTS6ldiv_t")
!362 = !{!363, !364}
!363 = !DIDerivedType(tag: DW_TAG_member, name: "quot", scope: !361, file: !357, line: 107, baseType: !210, size: 64, align: 64)
!364 = !DIDerivedType(tag: DW_TAG_member, name: "rem", scope: !361, file: !357, line: 108, baseType: !210, size: 64, align: 64, offset: 64)
!365 = !DIImportedEntity(tag: DW_TAG_imported_declaration, scope: !107, entity: !366, line: 121)
!366 = !DISubprogram(name: "abort", scope: !357, file: !357, line: 514, type: !367, isLocal: false, isDefinition: false, flags: DIFlagPrototyped | DIFlagNoReturn, isOptimized: true)
!367 = !DISubroutineType(types: !368)
!368 = !{null}
!369 = !DIImportedEntity(tag: DW_TAG_imported_declaration, scope: !107, entity: !370, line: 122)
!370 = !DISubprogram(name: "abs", scope: !357, file: !357, line: 770, type: !371, isLocal: false, isDefinition: false, flags: DIFlagPrototyped, isOptimized: true)
!371 = !DISubroutineType(types: !372)
!372 = !{!98, !98}
!373 = !DIImportedEntity(tag: DW_TAG_imported_declaration, scope: !107, entity: !374, line: 123)
!374 = !DISubprogram(name: "atexit", scope: !357, file: !357, line: 518, type: !375, isLocal: false, isDefinition: false, flags: DIFlagPrototyped, isOptimized: true)
!375 = !DISubroutineType(types: !376)
!376 = !{!98, !377}
!377 = !DIDerivedType(tag: DW_TAG_pointer_type, baseType: !367, size: 64, align: 64)
!378 = !DIImportedEntity(tag: DW_TAG_imported_declaration, scope: !107, entity: !379, line: 129)
!379 = !DISubprogram(name: "atof", scope: !380, file: !380, line: 26, type: !248, isLocal: false, isDefinition: false, flags: DIFlagPrototyped, isOptimized: true)
!380 = !DIFile(filename: "/usr/include/bits/stdlib-float.h", directory: "/home/ec2-user/DynamicAnalyis")
!381 = !DIImportedEntity(tag: DW_TAG_imported_declaration, scope: !107, entity: !382, line: 130)
!382 = distinct !DISubprogram(name: "atoi", scope: !357, file: !357, line: 278, type: !383, isLocal: false, isDefinition: true, scopeLine: 279, flags: DIFlagPrototyped, isOptimized: true, unit: !0, variables: !385)
!383 = !DISubroutineType(types: !384)
!384 = !{!98, !251}
!385 = !{!386}
!386 = !DILocalVariable(name: "__nptr", arg: 1, scope: !382, file: !357, line: 278, type: !251)
!387 = !DIImportedEntity(tag: DW_TAG_imported_declaration, scope: !107, entity: !388, line: 131)
!388 = !DISubprogram(name: "atol", scope: !357, file: !357, line: 283, type: !389, isLocal: false, isDefinition: false, flags: DIFlagPrototyped, isOptimized: true)
!389 = !DISubroutineType(types: !390)
!390 = !{!210, !251}
!391 = !DIImportedEntity(tag: DW_TAG_imported_declaration, scope: !107, entity: !392, line: 132)
!392 = !DISubprogram(name: "bsearch", scope: !357, file: !357, line: 754, type: !393, isLocal: false, isDefinition: false, flags: DIFlagPrototyped, isOptimized: true)
!393 = !DISubroutineType(types: !394)
!394 = !{!103, !395, !395, !397, !397, !400}
!395 = !DIDerivedType(tag: DW_TAG_pointer_type, baseType: !396, size: 64, align: 64)
!396 = !DIDerivedType(tag: DW_TAG_const_type, baseType: null)
!397 = !DIDerivedType(tag: DW_TAG_typedef, name: "size_t", file: !398, line: 62, baseType: !399)
!398 = !DIFile(filename: "/usr/local/bin/../lib/clang/4.0.0/include/stddef.h", directory: "/home/ec2-user/DynamicAnalyis")
!399 = !DIBasicType(name: "long unsigned int", size: 64, align: 64, encoding: DW_ATE_unsigned)
!400 = !DIDerivedType(tag: DW_TAG_typedef, name: "__compar_fn_t", file: !357, line: 741, baseType: !401)
!401 = !DIDerivedType(tag: DW_TAG_pointer_type, baseType: !402, size: 64, align: 64)
!402 = !DISubroutineType(types: !403)
!403 = !{!98, !395, !395}
!404 = !DIImportedEntity(tag: DW_TAG_imported_declaration, scope: !107, entity: !405, line: 133)
!405 = !DISubprogram(name: "calloc", scope: !357, file: !357, line: 467, type: !406, isLocal: false, isDefinition: false, flags: DIFlagPrototyped, isOptimized: true)
!406 = !DISubroutineType(types: !407)
!407 = !{!103, !397, !397}
!408 = !DIImportedEntity(tag: DW_TAG_imported_declaration, scope: !107, entity: !409, line: 134)
!409 = !DISubprogram(name: "div", scope: !357, file: !357, line: 784, type: !410, isLocal: false, isDefinition: false, flags: DIFlagPrototyped, isOptimized: true)
!410 = !DISubroutineType(types: !411)
!411 = !{!356, !98, !98}
!412 = !DIImportedEntity(tag: DW_TAG_imported_declaration, scope: !107, entity: !413, line: 135)
!413 = !DISubprogram(name: "exit", scope: !357, file: !357, line: 542, type: !414, isLocal: false, isDefinition: false, flags: DIFlagPrototyped | DIFlagNoReturn, isOptimized: true)
!414 = !DISubroutineType(types: !415)
!415 = !{null, !98}
!416 = !DIImportedEntity(tag: DW_TAG_imported_declaration, scope: !107, entity: !417, line: 136)
!417 = !DISubprogram(name: "free", scope: !357, file: !357, line: 482, type: !418, isLocal: false, isDefinition: false, flags: DIFlagPrototyped, isOptimized: true)
!418 = !DISubroutineType(types: !419)
!419 = !{null, !103}
!420 = !DIImportedEntity(tag: DW_TAG_imported_declaration, scope: !107, entity: !421, line: 137)
!421 = !DISubprogram(name: "getenv", scope: !357, file: !357, line: 563, type: !422, isLocal: false, isDefinition: false, flags: DIFlagPrototyped, isOptimized: true)
!422 = !DISubroutineType(types: !423)
!423 = !{!87, !251}
!424 = !DIImportedEntity(tag: DW_TAG_imported_declaration, scope: !107, entity: !425, line: 138)
!425 = !DISubprogram(name: "labs", scope: !357, file: !357, line: 771, type: !208, isLocal: false, isDefinition: false, flags: DIFlagPrototyped, isOptimized: true)
!426 = !DIImportedEntity(tag: DW_TAG_imported_declaration, scope: !107, entity: !427, line: 139)
!427 = !DISubprogram(name: "ldiv", scope: !357, file: !357, line: 786, type: !428, isLocal: false, isDefinition: false, flags: DIFlagPrototyped, isOptimized: true)
!428 = !DISubroutineType(types: !429)
!429 = !{!360, !210, !210}
!430 = !DIImportedEntity(tag: DW_TAG_imported_declaration, scope: !107, entity: !431, line: 140)
!431 = !DISubprogram(name: "malloc", scope: !357, file: !357, line: 465, type: !432, isLocal: false, isDefinition: false, flags: DIFlagPrototyped, isOptimized: true)
!432 = !DISubroutineType(types: !433)
!433 = !{!103, !397}
!434 = !DIImportedEntity(tag: DW_TAG_imported_declaration, scope: !107, entity: !435, line: 142)
!435 = !DISubprogram(name: "mblen", scope: !357, file: !357, line: 859, type: !436, isLocal: false, isDefinition: false, flags: DIFlagPrototyped, isOptimized: true)
!436 = !DISubroutineType(types: !437)
!437 = !{!98, !251, !397}
!438 = !DIImportedEntity(tag: DW_TAG_imported_declaration, scope: !107, entity: !439, line: 143)
!439 = !DISubprogram(name: "mbstowcs", scope: !357, file: !357, line: 870, type: !440, isLocal: false, isDefinition: false, flags: DIFlagPrototyped, isOptimized: true)
!440 = !DISubroutineType(types: !441)
!441 = !{!397, !442, !445, !397}
!442 = !DIDerivedType(tag: DW_TAG_restrict_type, baseType: !443)
!443 = !DIDerivedType(tag: DW_TAG_pointer_type, baseType: !444, size: 64, align: 64)
!444 = !DIBasicType(name: "wchar_t", size: 32, align: 32, encoding: DW_ATE_signed)
!445 = !DIDerivedType(tag: DW_TAG_restrict_type, baseType: !251)
!446 = !DIImportedEntity(tag: DW_TAG_imported_declaration, scope: !107, entity: !447, line: 144)
!447 = !DISubprogram(name: "mbtowc", scope: !357, file: !357, line: 862, type: !448, isLocal: false, isDefinition: false, flags: DIFlagPrototyped, isOptimized: true)
!448 = !DISubroutineType(types: !449)
!449 = !{!98, !442, !445, !397}
!450 = !DIImportedEntity(tag: DW_TAG_imported_declaration, scope: !107, entity: !451, line: 146)
!451 = !DISubprogram(name: "qsort", scope: !357, file: !357, line: 760, type: !452, isLocal: false, isDefinition: false, flags: DIFlagPrototyped, isOptimized: true)
!452 = !DISubroutineType(types: !453)
!453 = !{null, !103, !397, !397, !400}
!454 = !DIImportedEntity(tag: DW_TAG_imported_declaration, scope: !107, entity: !455, line: 152)
!455 = !DISubprogram(name: "rand", scope: !357, file: !357, line: 374, type: !456, isLocal: false, isDefinition: false, flags: DIFlagPrototyped, isOptimized: true)
!456 = !DISubroutineType(types: !457)
!457 = !{!98}
!458 = !DIImportedEntity(tag: DW_TAG_imported_declaration, scope: !107, entity: !459, line: 153)
!459 = !DISubprogram(name: "realloc", scope: !357, file: !357, line: 479, type: !460, isLocal: false, isDefinition: false, flags: DIFlagPrototyped, isOptimized: true)
!460 = !DISubroutineType(types: !461)
!461 = !{!103, !103, !397}
!462 = !DIImportedEntity(tag: DW_TAG_imported_declaration, scope: !107, entity: !463, line: 154)
!463 = !DISubprogram(name: "srand", scope: !357, file: !357, line: 376, type: !464, isLocal: false, isDefinition: false, flags: DIFlagPrototyped, isOptimized: true)
!464 = !DISubroutineType(types: !465)
!465 = !{null, !466}
!466 = !DIBasicType(name: "unsigned int", size: 32, align: 32, encoding: DW_ATE_unsigned)
!467 = !DIImportedEntity(tag: DW_TAG_imported_declaration, scope: !107, entity: !468, line: 155)
!468 = !DISubprogram(name: "strtod", scope: !357, file: !357, line: 164, type: !469, isLocal: false, isDefinition: false, flags: DIFlagPrototyped, isOptimized: true)
!469 = !DISubroutineType(types: !470)
!470 = !{!250, !445, !471}
!471 = !DIDerivedType(tag: DW_TAG_restrict_type, baseType: !104)
!472 = !DIImportedEntity(tag: DW_TAG_imported_declaration, scope: !107, entity: !473, line: 156)
!473 = !DISubprogram(name: "strtol", scope: !357, file: !357, line: 183, type: !474, isLocal: false, isDefinition: false, flags: DIFlagPrototyped, isOptimized: true)
!474 = !DISubroutineType(types: !475)
!475 = !{!210, !445, !471, !98}
!476 = !DIImportedEntity(tag: DW_TAG_imported_declaration, scope: !107, entity: !477, line: 157)
!477 = !DISubprogram(name: "strtoul", scope: !357, file: !357, line: 187, type: !478, isLocal: false, isDefinition: false, flags: DIFlagPrototyped, isOptimized: true)
!478 = !DISubroutineType(types: !479)
!479 = !{!399, !445, !471, !98}
!480 = !DIImportedEntity(tag: DW_TAG_imported_declaration, scope: !107, entity: !481, line: 158)
!481 = !DISubprogram(name: "system", scope: !357, file: !357, line: 716, type: !383, isLocal: false, isDefinition: false, flags: DIFlagPrototyped, isOptimized: true)
!482 = !DIImportedEntity(tag: DW_TAG_imported_declaration, scope: !107, entity: !483, line: 160)
!483 = !DISubprogram(name: "wcstombs", scope: !357, file: !357, line: 873, type: !484, isLocal: false, isDefinition: false, flags: DIFlagPrototyped, isOptimized: true)
!484 = !DISubroutineType(types: !485)
!485 = !{!397, !486, !487, !397}
!486 = !DIDerivedType(tag: DW_TAG_restrict_type, baseType: !87)
!487 = !DIDerivedType(tag: DW_TAG_restrict_type, baseType: !488)
!488 = !DIDerivedType(tag: DW_TAG_pointer_type, baseType: !489, size: 64, align: 64)
!489 = !DIDerivedType(tag: DW_TAG_const_type, baseType: !444)
!490 = !DIImportedEntity(tag: DW_TAG_imported_declaration, scope: !107, entity: !491, line: 161)
!491 = !DISubprogram(name: "wctomb", scope: !357, file: !357, line: 866, type: !492, isLocal: false, isDefinition: false, flags: DIFlagPrototyped, isOptimized: true)
!492 = !DISubroutineType(types: !493)
!493 = !{!98, !87, !444}
!494 = !DIImportedEntity(tag: DW_TAG_imported_declaration, scope: !495, entity: !497, line: 201)
!495 = !DINamespace(name: "__gnu_cxx", scope: null, file: !496, line: 68)
!496 = !DIFile(filename: "/usr/include/c++/4.8.3/bits/cpp_type_traits.h", directory: "/home/ec2-user/DynamicAnalyis")
!497 = !DIDerivedType(tag: DW_TAG_typedef, name: "lldiv_t", file: !357, line: 121, baseType: !498)
!498 = distinct !DICompositeType(tag: DW_TAG_structure_type, file: !357, line: 117, size: 128, align: 64, elements: !499, identifier: "_ZTS7lldiv_t")
!499 = !{!500, !501}
!500 = !DIDerivedType(tag: DW_TAG_member, name: "quot", scope: !498, file: !357, line: 119, baseType: !112, size: 64, align: 64)
!501 = !DIDerivedType(tag: DW_TAG_member, name: "rem", scope: !498, file: !357, line: 120, baseType: !112, size: 64, align: 64, offset: 64)
!502 = !DIImportedEntity(tag: DW_TAG_imported_declaration, scope: !495, entity: !503, line: 207)
!503 = !DISubprogram(name: "_Exit", scope: !357, file: !357, line: 556, type: !414, isLocal: false, isDefinition: false, flags: DIFlagPrototyped | DIFlagNoReturn, isOptimized: true)
!504 = !DIImportedEntity(tag: DW_TAG_imported_declaration, scope: !495, entity: !505, line: 211)
!505 = !DISubprogram(name: "llabs", scope: !357, file: !357, line: 775, type: !110, isLocal: false, isDefinition: false, flags: DIFlagPrototyped, isOptimized: true)
!506 = !DIImportedEntity(tag: DW_TAG_imported_declaration, scope: !495, entity: !507, line: 217)
!507 = !DISubprogram(name: "lldiv", scope: !357, file: !357, line: 792, type: !508, isLocal: false, isDefinition: false, flags: DIFlagPrototyped, isOptimized: true)
!508 = !DISubroutineType(types: !509)
!509 = !{!497, !112, !112}
!510 = !DIImportedEntity(tag: DW_TAG_imported_declaration, scope: !495, entity: !511, line: 228)
!511 = !DISubprogram(name: "atoll", scope: !357, file: !357, line: 292, type: !512, isLocal: false, isDefinition: false, flags: DIFlagPrototyped, isOptimized: true)
!512 = !DISubroutineType(types: !513)
!513 = !{!112, !251}
!514 = !DIImportedEntity(tag: DW_TAG_imported_declaration, scope: !495, entity: !515, line: 229)
!515 = !DISubprogram(name: "strtoll", scope: !357, file: !357, line: 209, type: !516, isLocal: false, isDefinition: false, flags: DIFlagPrototyped, isOptimized: true)
!516 = !DISubroutineType(types: !517)
!517 = !{!112, !445, !471, !98}
!518 = !DIImportedEntity(tag: DW_TAG_imported_declaration, scope: !495, entity: !519, line: 230)
!519 = !DISubprogram(name: "strtoull", scope: !357, file: !357, line: 214, type: !520, isLocal: false, isDefinition: false, flags: DIFlagPrototyped, isOptimized: true)
!520 = !DISubroutineType(types: !521)
!521 = !{!522, !445, !471, !98}
!522 = !DIBasicType(name: "long long unsigned int", size: 64, align: 64, encoding: DW_ATE_unsigned)
!523 = !DIImportedEntity(tag: DW_TAG_imported_declaration, scope: !495, entity: !524, line: 232)
!524 = !DISubprogram(name: "strtof", scope: !357, file: !357, line: 172, type: !525, isLocal: false, isDefinition: false, flags: DIFlagPrototyped, isOptimized: true)
!525 = !DISubroutineType(types: !526)
!526 = !{!117, !445, !471}
!527 = !DIImportedEntity(tag: DW_TAG_imported_declaration, scope: !495, entity: !528, line: 233)
!528 = !DISubprogram(name: "strtold", scope: !357, file: !357, line: 175, type: !529, isLocal: false, isDefinition: false, flags: DIFlagPrototyped, isOptimized: true)
!529 = !DISubroutineType(types: !530)
!530 = !{!531, !445, !471}
!531 = !DIBasicType(name: "long double", size: 128, align: 128, encoding: DW_ATE_float)
!532 = !DIImportedEntity(tag: DW_TAG_imported_declaration, scope: !107, entity: !497, line: 241)
!533 = !DIImportedEntity(tag: DW_TAG_imported_declaration, scope: !107, entity: !503, line: 243)
!534 = !DIImportedEntity(tag: DW_TAG_imported_declaration, scope: !107, entity: !505, line: 245)
!535 = !DIImportedEntity(tag: DW_TAG_imported_declaration, scope: !107, entity: !536, line: 246)
!536 = !DISubprogram(name: "div", linkageName: "_ZN9__gnu_cxx3divExx", scope: !495, file: !537, line: 214, type: !508, isLocal: false, isDefinition: false, flags: DIFlagPrototyped, isOptimized: true)
!537 = !DIFile(filename: "/usr/include/c++/4.8.3/cstdlib", directory: "/home/ec2-user/DynamicAnalyis")
!538 = !DIImportedEntity(tag: DW_TAG_imported_declaration, scope: !107, entity: !507, line: 247)
!539 = !DIImportedEntity(tag: DW_TAG_imported_declaration, scope: !107, entity: !511, line: 249)
!540 = !DIImportedEntity(tag: DW_TAG_imported_declaration, scope: !107, entity: !524, line: 250)
!541 = !DIImportedEntity(tag: DW_TAG_imported_declaration, scope: !107, entity: !515, line: 251)
!542 = !DIImportedEntity(tag: DW_TAG_imported_declaration, scope: !107, entity: !519, line: 252)
!543 = !DIImportedEntity(tag: DW_TAG_imported_declaration, scope: !107, entity: !528, line: 253)
!544 = !DIImportedEntity(tag: DW_TAG_imported_declaration, scope: !107, entity: !545, line: 366)
!545 = !DISubprogram(name: "acosf", linkageName: "_ZL5acosff", scope: !546, file: !546, line: 1300, type: !115, isLocal: true, isDefinition: false, flags: DIFlagPrototyped, isOptimized: true)
!546 = !DIFile(filename: "/usr/local/cuda/include/math_functions.hpp", directory: "/home/ec2-user/DynamicAnalyis")
!547 = !DIImportedEntity(tag: DW_TAG_imported_declaration, scope: !107, entity: !548, line: 367)
!548 = !DISubprogram(name: "acoshf", linkageName: "_ZL6acoshff", scope: !546, file: !546, line: 1328, type: !115, isLocal: true, isDefinition: false, flags: DIFlagPrototyped, isOptimized: true)
!549 = !DIImportedEntity(tag: DW_TAG_imported_declaration, scope: !107, entity: !550, line: 368)
!550 = !DISubprogram(name: "asinf", linkageName: "_ZL5asinff", scope: !546, file: !546, line: 1295, type: !115, isLocal: true, isDefinition: false, flags: DIFlagPrototyped, isOptimized: true)
!551 = !DIImportedEntity(tag: DW_TAG_imported_declaration, scope: !107, entity: !552, line: 369)
!552 = !DISubprogram(name: "asinhf", linkageName: "_ZL6asinhff", scope: !546, file: !546, line: 1333, type: !115, isLocal: true, isDefinition: false, flags: DIFlagPrototyped, isOptimized: true)
!553 = !DIImportedEntity(tag: DW_TAG_imported_declaration, scope: !107, entity: !554, line: 370)
!554 = !DISubprogram(name: "atan2f", linkageName: "_ZL6atan2fff", scope: !546, file: !546, line: 1285, type: !128, isLocal: true, isDefinition: false, flags: DIFlagPrototyped, isOptimized: true)
!555 = !DIImportedEntity(tag: DW_TAG_imported_declaration, scope: !107, entity: !556, line: 371)
!556 = !DISubprogram(name: "atanf", linkageName: "_ZL5atanff", scope: !546, file: !546, line: 1290, type: !115, isLocal: true, isDefinition: false, flags: DIFlagPrototyped, isOptimized: true)
!557 = !DIImportedEntity(tag: DW_TAG_imported_declaration, scope: !107, entity: !558, line: 372)
!558 = !DISubprogram(name: "atanhf", linkageName: "_ZL6atanhff", scope: !546, file: !546, line: 1338, type: !115, isLocal: true, isDefinition: false, flags: DIFlagPrototyped, isOptimized: true)
!559 = !DIImportedEntity(tag: DW_TAG_imported_declaration, scope: !107, entity: !560, line: 373)
!560 = !DISubprogram(name: "cbrtf", linkageName: "_ZL5cbrtff", scope: !546, file: !546, line: 1388, type: !115, isLocal: true, isDefinition: false, flags: DIFlagPrototyped, isOptimized: true)
!561 = !DIImportedEntity(tag: DW_TAG_imported_declaration, scope: !107, entity: !562, line: 374)
!562 = !DISubprogram(name: "ceilf", linkageName: "_ZL5ceilff", scope: !563, file: !563, line: 667, type: !115, isLocal: true, isDefinition: false, flags: DIFlagPrototyped, isOptimized: true)
!563 = !DIFile(filename: "/usr/local/cuda/include/device_functions.hpp", directory: "/home/ec2-user/DynamicAnalyis")
!564 = !DIImportedEntity(tag: DW_TAG_imported_declaration, scope: !107, entity: !565, line: 375)
!565 = !DISubprogram(name: "copysignf", linkageName: "_ZL9copysignfff", scope: !546, file: !546, line: 1147, type: !128, isLocal: true, isDefinition: false, flags: DIFlagPrototyped, isOptimized: true)
!566 = !DIImportedEntity(tag: DW_TAG_imported_declaration, scope: !107, entity: !567, line: 376)
!567 = !DISubprogram(name: "cosf", linkageName: "_ZL4cosff", scope: !546, file: !546, line: 1201, type: !115, isLocal: true, isDefinition: false, flags: DIFlagPrototyped, isOptimized: true)
!568 = !DIImportedEntity(tag: DW_TAG_imported_declaration, scope: !107, entity: !569, line: 377)
!569 = !DISubprogram(name: "coshf", linkageName: "_ZL5coshff", scope: !546, file: !546, line: 1270, type: !115, isLocal: true, isDefinition: false, flags: DIFlagPrototyped, isOptimized: true)
!570 = !DIImportedEntity(tag: DW_TAG_imported_declaration, scope: !107, entity: !571, line: 378)
!571 = !DISubprogram(name: "erfcf", linkageName: "_ZL5erfcff", scope: !546, file: !546, line: 1448, type: !115, isLocal: true, isDefinition: false, flags: DIFlagPrototyped, isOptimized: true)
!572 = !DIImportedEntity(tag: DW_TAG_imported_declaration, scope: !107, entity: !573, line: 379)
!573 = !DISubprogram(name: "erff", linkageName: "_ZL4erfff", scope: !546, file: !546, line: 1438, type: !115, isLocal: true, isDefinition: false, flags: DIFlagPrototyped, isOptimized: true)
!574 = !DIImportedEntity(tag: DW_TAG_imported_declaration, scope: !107, entity: !575, line: 380)
!575 = !DISubprogram(name: "exp2f", linkageName: "_ZL5exp2ff", scope: !563, file: !563, line: 657, type: !115, isLocal: true, isDefinition: false, flags: DIFlagPrototyped, isOptimized: true)
!576 = !DIImportedEntity(tag: DW_TAG_imported_declaration, scope: !107, entity: !577, line: 381)
!577 = !DISubprogram(name: "expf", linkageName: "_ZL4expff", scope: !546, file: !546, line: 1252, type: !115, isLocal: true, isDefinition: false, flags: DIFlagPrototyped, isOptimized: true)
!578 = !DIImportedEntity(tag: DW_TAG_imported_declaration, scope: !107, entity: !579, line: 382)
!579 = !DISubprogram(name: "expm1f", linkageName: "_ZL6expm1ff", scope: !546, file: !546, line: 1343, type: !115, isLocal: true, isDefinition: false, flags: DIFlagPrototyped, isOptimized: true)
!580 = !DIImportedEntity(tag: DW_TAG_imported_declaration, scope: !107, entity: !581, line: 383)
!581 = !DISubprogram(name: "fabsf", linkageName: "_ZL5fabsff", scope: !563, file: !563, line: 607, type: !115, isLocal: true, isDefinition: false, flags: DIFlagPrototyped, isOptimized: true)
!582 = !DIImportedEntity(tag: DW_TAG_imported_declaration, scope: !107, entity: !583, line: 384)
!583 = !DISubprogram(name: "fdimf", linkageName: "_ZL5fdimfff", scope: !546, file: !546, line: 1574, type: !128, isLocal: true, isDefinition: false, flags: DIFlagPrototyped, isOptimized: true)
!584 = !DIImportedEntity(tag: DW_TAG_imported_declaration, scope: !107, entity: !585, line: 385)
!585 = !DISubprogram(name: "floorf", linkageName: "_ZL6floorff", scope: !563, file: !563, line: 597, type: !115, isLocal: true, isDefinition: false, flags: DIFlagPrototyped, isOptimized: true)
!586 = !DIImportedEntity(tag: DW_TAG_imported_declaration, scope: !107, entity: !587, line: 386)
!587 = !DISubprogram(name: "fmaf", linkageName: "_ZL4fmaffff", scope: !546, file: !546, line: 1526, type: !160, isLocal: true, isDefinition: false, flags: DIFlagPrototyped, isOptimized: true)
!588 = !DIImportedEntity(tag: DW_TAG_imported_declaration, scope: !107, entity: !589, line: 387)
!589 = !DISubprogram(name: "fmaxf", linkageName: "_ZL5fmaxfff", scope: !563, file: !563, line: 622, type: !128, isLocal: true, isDefinition: false, flags: DIFlagPrototyped, isOptimized: true)
!590 = !DIImportedEntity(tag: DW_TAG_imported_declaration, scope: !107, entity: !591, line: 388)
!591 = !DISubprogram(name: "fminf", linkageName: "_ZL5fminfff", scope: !563, file: !563, line: 617, type: !128, isLocal: true, isDefinition: false, flags: DIFlagPrototyped, isOptimized: true)
!592 = !DIImportedEntity(tag: DW_TAG_imported_declaration, scope: !107, entity: !593, line: 389)
!593 = !DISubprogram(name: "fmodf", linkageName: "_ZL5fmodfff", scope: !546, file: !546, line: 1511, type: !128, isLocal: true, isDefinition: false, flags: DIFlagPrototyped, isOptimized: true)
!594 = !DIImportedEntity(tag: DW_TAG_imported_declaration, scope: !107, entity: !595, line: 390)
!595 = !DISubprogram(name: "frexpf", linkageName: "_ZL6frexpffPi", scope: !546, file: !546, line: 1501, type: !174, isLocal: true, isDefinition: false, flags: DIFlagPrototyped, isOptimized: true)
!596 = !DIImportedEntity(tag: DW_TAG_imported_declaration, scope: !107, entity: !597, line: 391)
!597 = !DISubprogram(name: "hypotf", linkageName: "_ZL6hypotfff", scope: !546, file: !546, line: 1348, type: !128, isLocal: true, isDefinition: false, flags: DIFlagPrototyped, isOptimized: true)
!598 = !DIImportedEntity(tag: DW_TAG_imported_declaration, scope: !107, entity: !599, line: 392)
!599 = !DISubprogram(name: "ilogbf", linkageName: "_ZL6ilogbff", scope: !546, file: !546, line: 1579, type: !170, isLocal: true, isDefinition: false, flags: DIFlagPrototyped, isOptimized: true)
!600 = !DIImportedEntity(tag: DW_TAG_imported_declaration, scope: !107, entity: !601, line: 393)
!601 = !DISubprogram(name: "ldexpf", linkageName: "_ZL6ldexpffi", scope: !546, file: !546, line: 1478, type: !213, isLocal: true, isDefinition: false, flags: DIFlagPrototyped, isOptimized: true)
!602 = !DIImportedEntity(tag: DW_TAG_imported_declaration, scope: !107, entity: !603, line: 394)
!603 = !DISubprogram(name: "lgammaf", linkageName: "_ZL7lgammaff", scope: !546, file: !546, line: 1473, type: !115, isLocal: true, isDefinition: false, flags: DIFlagPrototyped, isOptimized: true)
!604 = !DIImportedEntity(tag: DW_TAG_imported_declaration, scope: !107, entity: !605, line: 395)
!605 = !DISubprogram(name: "llrintf", linkageName: "_ZL7llrintff", scope: !546, file: !546, line: 1107, type: !221, isLocal: true, isDefinition: false, flags: DIFlagPrototyped, isOptimized: true)
!606 = !DIImportedEntity(tag: DW_TAG_imported_declaration, scope: !107, entity: !607, line: 396)
!607 = !DISubprogram(name: "llroundf", linkageName: "_ZL8llroundff", scope: !546, file: !546, line: 1560, type: !221, isLocal: true, isDefinition: false, flags: DIFlagPrototyped, isOptimized: true)
!608 = !DIImportedEntity(tag: DW_TAG_imported_declaration, scope: !107, entity: !609, line: 397)
!609 = !DISubprogram(name: "log10f", linkageName: "_ZL6log10ff", scope: !546, file: !546, line: 1314, type: !115, isLocal: true, isDefinition: false, flags: DIFlagPrototyped, isOptimized: true)
!610 = !DIImportedEntity(tag: DW_TAG_imported_declaration, scope: !107, entity: !611, line: 398)
!611 = !DISubprogram(name: "log1pf", linkageName: "_ZL6log1pff", scope: !546, file: !546, line: 1323, type: !115, isLocal: true, isDefinition: false, flags: DIFlagPrototyped, isOptimized: true)
!612 = !DIImportedEntity(tag: DW_TAG_imported_declaration, scope: !107, entity: !613, line: 399)
!613 = !DISubprogram(name: "log2f", linkageName: "_ZL5log2ff", scope: !546, file: !546, line: 1243, type: !115, isLocal: true, isDefinition: false, flags: DIFlagPrototyped, isOptimized: true)
!614 = !DIImportedEntity(tag: DW_TAG_imported_declaration, scope: !107, entity: !615, line: 400)
!615 = !DISubprogram(name: "logbf", linkageName: "_ZL5logbff", scope: !546, file: !546, line: 1584, type: !115, isLocal: true, isDefinition: false, flags: DIFlagPrototyped, isOptimized: true)
!616 = !DIImportedEntity(tag: DW_TAG_imported_declaration, scope: !107, entity: !617, line: 401)
!617 = !DISubprogram(name: "logf", linkageName: "_ZL4logff", scope: !546, file: !546, line: 1305, type: !115, isLocal: true, isDefinition: false, flags: DIFlagPrototyped, isOptimized: true)
!618 = !DIImportedEntity(tag: DW_TAG_imported_declaration, scope: !107, entity: !619, line: 402)
!619 = !DISubprogram(name: "lrintf", linkageName: "_ZL6lrintff", scope: !546, file: !546, line: 1098, type: !235, isLocal: true, isDefinition: false, flags: DIFlagPrototyped, isOptimized: true)
!620 = !DIImportedEntity(tag: DW_TAG_imported_declaration, scope: !107, entity: !621, line: 403)
!621 = !DISubprogram(name: "lroundf", linkageName: "_ZL7lroundff", scope: !546, file: !546, line: 1565, type: !235, isLocal: true, isDefinition: false, flags: DIFlagPrototyped, isOptimized: true)
!622 = !DIImportedEntity(tag: DW_TAG_imported_declaration, scope: !107, entity: !623, line: 404)
!623 = !DISubprogram(name: "modff", linkageName: "_ZL5modfffPf", scope: !546, file: !546, line: 1506, type: !243, isLocal: true, isDefinition: false, flags: DIFlagPrototyped, isOptimized: true)
!624 = !DIImportedEntity(tag: DW_TAG_imported_declaration, scope: !107, entity: !625, line: 405)
!625 = !DISubprogram(name: "nearbyintf", linkageName: "_ZL10nearbyintff", scope: !546, file: !546, line: 1112, type: !115, isLocal: true, isDefinition: false, flags: DIFlagPrototyped, isOptimized: true)
!626 = !DIImportedEntity(tag: DW_TAG_imported_declaration, scope: !107, entity: !627, line: 406)
!627 = !DISubprogram(name: "nextafterf", linkageName: "_ZL10nextafterfff", scope: !546, file: !546, line: 1176, type: !128, isLocal: true, isDefinition: false, flags: DIFlagPrototyped, isOptimized: true)
!628 = !DIImportedEntity(tag: DW_TAG_imported_declaration, scope: !107, entity: !629, line: 407)
!629 = !DISubprogram(name: "nexttowardf", scope: !301, file: !301, line: 285, type: !630, isLocal: false, isDefinition: false, flags: DIFlagPrototyped, isOptimized: true)
!630 = !DISubroutineType(types: !631)
!631 = !{!117, !117, !531}
!632 = !DIImportedEntity(tag: DW_TAG_imported_declaration, scope: !107, entity: !629, line: 408)
!633 = !DIImportedEntity(tag: DW_TAG_imported_declaration, scope: !107, entity: !634, line: 409)
!634 = !DISubprogram(name: "powf", linkageName: "_ZL4powfff", scope: !546, file: !546, line: 1541, type: !128, isLocal: true, isDefinition: false, flags: DIFlagPrototyped, isOptimized: true)
!635 = !DIImportedEntity(tag: DW_TAG_imported_declaration, scope: !107, entity: !636, line: 410)
!636 = !DISubprogram(name: "remainderf", linkageName: "_ZL10remainderfff", scope: !546, file: !546, line: 1516, type: !128, isLocal: true, isDefinition: false, flags: DIFlagPrototyped, isOptimized: true)
!637 = !DIImportedEntity(tag: DW_TAG_imported_declaration, scope: !107, entity: !638, line: 411)
!638 = !DISubprogram(name: "remquof", linkageName: "_ZL7remquofffPi", scope: !546, file: !546, line: 1521, type: !271, isLocal: true, isDefinition: false, flags: DIFlagPrototyped, isOptimized: true)
!639 = !DIImportedEntity(tag: DW_TAG_imported_declaration, scope: !107, entity: !640, line: 412)
!640 = !DISubprogram(name: "rintf", linkageName: "_ZL5rintff", scope: !546, file: !546, line: 1093, type: !115, isLocal: true, isDefinition: false, flags: DIFlagPrototyped, isOptimized: true)
!641 = !DIImportedEntity(tag: DW_TAG_imported_declaration, scope: !107, entity: !642, line: 413)
!642 = !DISubprogram(name: "roundf", linkageName: "_ZL6roundff", scope: !546, file: !546, line: 1555, type: !115, isLocal: true, isDefinition: false, flags: DIFlagPrototyped, isOptimized: true)
!643 = !DIImportedEntity(tag: DW_TAG_imported_declaration, scope: !107, entity: !644, line: 414)
!644 = !DISubprogram(name: "scalblnf", linkageName: "_ZL8scalblnffl", scope: !546, file: !546, line: 1488, type: !279, isLocal: true, isDefinition: false, flags: DIFlagPrototyped, isOptimized: true)
!645 = !DIImportedEntity(tag: DW_TAG_imported_declaration, scope: !107, entity: !646, line: 415)
!646 = !DISubprogram(name: "scalbnf", linkageName: "_ZL7scalbnffi", scope: !546, file: !546, line: 1483, type: !213, isLocal: true, isDefinition: false, flags: DIFlagPrototyped, isOptimized: true)
!647 = !DIImportedEntity(tag: DW_TAG_imported_declaration, scope: !107, entity: !648, line: 416)
!648 = !DISubprogram(name: "sinf", linkageName: "_ZL4sinff", scope: !546, file: !546, line: 1192, type: !115, isLocal: true, isDefinition: false, flags: DIFlagPrototyped, isOptimized: true)
!649 = !DIImportedEntity(tag: DW_TAG_imported_declaration, scope: !107, entity: !650, line: 417)
!650 = !DISubprogram(name: "sinhf", linkageName: "_ZL5sinhff", scope: !546, file: !546, line: 1275, type: !115, isLocal: true, isDefinition: false, flags: DIFlagPrototyped, isOptimized: true)
!651 = !DIImportedEntity(tag: DW_TAG_imported_declaration, scope: !107, entity: !652, line: 418)
!652 = !DISubprogram(name: "sqrtf", linkageName: "_ZL5sqrtff", scope: !563, file: !563, line: 907, type: !115, isLocal: true, isDefinition: false, flags: DIFlagPrototyped, isOptimized: true)
!653 = !DIImportedEntity(tag: DW_TAG_imported_declaration, scope: !107, entity: !654, line: 419)
!654 = !DISubprogram(name: "tanf", linkageName: "_ZL4tanff", scope: !546, file: !546, line: 1234, type: !115, isLocal: true, isDefinition: false, flags: DIFlagPrototyped, isOptimized: true)
!655 = !DIImportedEntity(tag: DW_TAG_imported_declaration, scope: !107, entity: !656, line: 420)
!656 = !DISubprogram(name: "tanhf", linkageName: "_ZL5tanhff", scope: !546, file: !546, line: 1280, type: !115, isLocal: true, isDefinition: false, flags: DIFlagPrototyped, isOptimized: true)
!657 = !DIImportedEntity(tag: DW_TAG_imported_declaration, scope: !107, entity: !658, line: 421)
!658 = !DISubprogram(name: "tgammaf", linkageName: "_ZL7tgammaff", scope: !546, file: !546, line: 1550, type: !115, isLocal: true, isDefinition: false, flags: DIFlagPrototyped, isOptimized: true)
!659 = !DIImportedEntity(tag: DW_TAG_imported_declaration, scope: !107, entity: !660, line: 422)
!660 = !DISubprogram(name: "truncf", linkageName: "_ZL6truncff", scope: !563, file: !563, line: 662, type: !115, isLocal: true, isDefinition: false, flags: DIFlagPrototyped, isOptimized: true)
!661 = !{i32 2, !"Dwarf Version", i32 4}
!662 = !{i32 2, !"Debug Info Version", i32 3}
!663 = !{!"clang version 4.0.0 (trunk 279478) (llvm/trunk 279476)"}
!664 = distinct !DISubprogram(name: "getImg", linkageName: "_Z6getImgPcPhi", scope: !1, file: !1, line: 52, type: !665, isLocal: false, isDefinition: true, scopeLine: 53, flags: DIFlagPrototyped, isOptimized: true, unit: !0, variables: !667)
!665 = !DISubroutineType(types: !666)
!666 = !{!98, !87, !95, !98}
!667 = !{!668, !669, !670, !671, !672, !673, !674}
!668 = !DILocalVariable(name: "srcFilename", arg: 1, scope: !664, file: !1, line: 52, type: !87)
!669 = !DILocalVariable(name: "srcImg", arg: 2, scope: !664, file: !1, line: 52, type: !95)
!670 = !DILocalVariable(name: "inputSize", arg: 3, scope: !664, file: !1, line: 52, type: !98)
!671 = !DILocalVariable(name: "path", scope: !664, file: !1, line: 55, type: !87)
!672 = !DILocalVariable(name: "newSrc", scope: !664, file: !1, line: 56, type: !87)
!673 = !DILocalVariable(name: "i", scope: !664, file: !1, line: 69, type: !98)
!674 = !DILocalVariable(name: "ret", scope: !664, file: !1, line: 74, type: !98)
!675 = !DIExpression()
!676 = !DILocation(line: 52, column: 19, scope: !664)
!677 = !DILocation(line: 52, column: 47, scope: !664)
!678 = !DILocation(line: 52, column: 59, scope: !664)
!679 = !{}
!680 = !DILocation(line: 55, column: 11, scope: !664)
!681 = !DILocation(line: 56, column: 11, scope: !664)
!682 = !DILocation(line: 58, column: 33, scope: !683)
!683 = distinct !DILexicalBlock(scope: !664, file: !1, line: 58, column: 8)
!684 = !DILocation(line: 58, column: 65, scope: !683)
!685 = !DILocation(line: 58, column: 26, scope: !686)
!686 = !DILexicalBlockFile(scope: !683, file: !1, discriminator: 2)
!687 = !DILocation(line: 58, column: 70, scope: !683)
!688 = !DILocation(line: 58, column: 8, scope: !664)
!689 = !DILocation(line: 60, column: 19, scope: !690)
!690 = distinct !DILexicalBlock(scope: !683, file: !1, line: 59, column: 5)
!691 = !{!692, !692, i64 0}
!692 = !{!"omnipotent char", !693, i64 0}
!693 = !{!"Simple C++ TBAA"}
!694 = !DILocation(line: 61, column: 9, scope: !690)
!695 = !DILocation(line: 62, column: 9, scope: !690)
!696 = !DILocation(line: 64, column: 5, scope: !690)
!697 = !DILocation(line: 65, column: 5, scope: !664)
!698 = !DILocation(line: 69, column: 13, scope: !664)
!699 = !DILocation(line: 69, column: 9, scope: !664)
!700 = !DILocation(line: 70, column: 11, scope: !701)
!701 = distinct !DILexicalBlock(scope: !664, file: !1, line: 70, column: 9)
!702 = !DILocation(line: 70, column: 9, scope: !664)
!703 = !DILocation(line: 71, column: 17, scope: !704)
!704 = distinct !DILexicalBlock(scope: !701, file: !1, line: 70, column: 18)
!705 = !{!706, !706, i64 0}
!706 = !{!"int", !692, i64 0}
!707 = !DILocation(line: 71, column: 9, scope: !708)
!708 = !DILexicalBlockFile(scope: !704, file: !1, discriminator: 1)
!709 = !DILocation(line: 72, column: 9, scope: !704)
!710 = !DILocation(line: 74, column: 31, scope: !664)
!711 = !DILocation(line: 74, column: 15, scope: !664)
!712 = !DILocation(line: 74, column: 9, scope: !664)
!713 = !DILocation(line: 75, column: 5, scope: !664)
!714 = !DILocation(line: 76, column: 5, scope: !664)
!715 = !DILocation(line: 79, column: 1, scope: !716)
!716 = !DILexicalBlockFile(scope: !664, file: !1, discriminator: 1)
!717 = distinct !DISubprogram(name: "usage", linkageName: "_Z5usagev", scope: !1, file: !1, line: 82, type: !367, isLocal: false, isDefinition: true, scopeLine: 82, flags: DIFlagPrototyped, isOptimized: true, unit: !0, variables: !679)
!718 = !DILocation(line: 83, column: 5, scope: !717)
!719 = !DILocation(line: 94, column: 1, scope: !717)
!720 = distinct !DISubprogram(name: "main", scope: !1, file: !1, line: 219, type: !721, isLocal: false, isDefinition: true, scopeLine: 220, flags: DIFlagPrototyped, isOptimized: true, unit: !0, variables: !723)
!721 = !DISubroutineType(types: !722)
!722 = !{!98, !98, !104}
!723 = !{!724, !725, !726, !727, !728, !739, !740, !741, !742, !743, !744, !745, !746, !747, !748, !749, !750, !753, !827, !829, !831, !832, !833, !835}
!724 = !DILocalVariable(name: "argc", arg: 1, scope: !720, file: !1, line: 219, type: !98)
!725 = !DILocalVariable(name: "argv", arg: 2, scope: !720, file: !1, line: 219, type: !104)
!726 = !DILocalVariable(name: "optindex", scope: !720, file: !1, line: 221, type: !98)
!727 = !DILocalVariable(name: "ch", scope: !720, file: !1, line: 222, type: !88)
!728 = !DILocalVariable(name: "longopts", scope: !720, file: !1, line: 223, type: !729)
!729 = !DICompositeType(tag: DW_TAG_array_type, baseType: !730, size: 2816, align: 64, elements: !737)
!730 = distinct !DICompositeType(tag: DW_TAG_structure_type, name: "option", file: !731, line: 105, size: 256, align: 64, elements: !732, identifier: "_ZTS6option")
!731 = !DIFile(filename: "/usr/include/getopt.h", directory: "/home/ec2-user/DynamicAnalyis")
!732 = !{!733, !734, !735, !736}
!733 = !DIDerivedType(tag: DW_TAG_member, name: "name", scope: !730, file: !731, line: 107, baseType: !251, size: 64, align: 64)
!734 = !DIDerivedType(tag: DW_TAG_member, name: "has_arg", scope: !730, file: !731, line: 110, baseType: !98, size: 32, align: 32, offset: 64)
!735 = !DIDerivedType(tag: DW_TAG_member, name: "flag", scope: !730, file: !731, line: 111, baseType: !176, size: 64, align: 64, offset: 128)
!736 = !DIDerivedType(tag: DW_TAG_member, name: "val", scope: !730, file: !731, line: 112, baseType: !98, size: 32, align: 32, offset: 192)
!737 = !{!738}
!738 = !DISubrange(count: 11)
!739 = !DILocalVariable(name: "pixWidth", scope: !720, file: !1, line: 237, type: !98)
!740 = !DILocalVariable(name: "pixHeight", scope: !720, file: !1, line: 238, type: !98)
!741 = !DILocalVariable(name: "compCount", scope: !720, file: !1, line: 239, type: !98)
!742 = !DILocalVariable(name: "bitDepth", scope: !720, file: !1, line: 240, type: !98)
!743 = !DILocalVariable(name: "dwtLvls", scope: !720, file: !1, line: 241, type: !98)
!744 = !DILocalVariable(name: "device", scope: !720, file: !1, line: 242, type: !98)
!745 = !DILocalVariable(name: "forward", scope: !720, file: !1, line: 243, type: !98)
!746 = !DILocalVariable(name: "dwt97", scope: !720, file: !1, line: 244, type: !98)
!747 = !DILocalVariable(name: "writeVisual", scope: !720, file: !1, line: 245, type: !98)
!748 = !DILocalVariable(name: "pos", scope: !720, file: !1, line: 246, type: !87)
!749 = !DILocalVariable(name: "devCount", scope: !720, file: !1, line: 316, type: !98)
!750 = !DILocalVariable(name: "err", scope: !751, file: !1, line: 318, type: !752)
!751 = distinct !DILexicalBlock(scope: !720, file: !1, line: 318, column: 5)
!752 = !DIDerivedType(tag: DW_TAG_typedef, name: "cudaError_t", file: !4, line: 1420, baseType: !3)
!753 = !DILocalVariable(name: "devProp", scope: !720, file: !1, line: 328, type: !754)
!754 = distinct !DICompositeType(tag: DW_TAG_structure_type, name: "cudaDeviceProp", file: !4, line: 1258, size: 5056, align: 64, elements: !755, identifier: "_ZTS14cudaDeviceProp")
!755 = !{!756, !760, !761, !762, !763, !764, !765, !766, !770, !771, !772, !773, !774, !775, !776, !777, !778, !779, !780, !781, !782, !783, !784, !785, !786, !790, !791, !792, !793, !794, !795, !796, !797, !798, !799, !800, !801, !802, !803, !804, !805, !806, !807, !808, !809, !810, !811, !812, !813, !814, !815, !816, !817, !818, !819, !820, !821, !822, !823, !824, !825, !826}
!756 = !DIDerivedType(tag: DW_TAG_member, name: "name", scope: !754, file: !4, line: 1260, baseType: !757, size: 2048, align: 8)
!757 = !DICompositeType(tag: DW_TAG_array_type, baseType: !88, size: 2048, align: 8, elements: !758)
!758 = !{!759}
!759 = !DISubrange(count: 256)
!760 = !DIDerivedType(tag: DW_TAG_member, name: "totalGlobalMem", scope: !754, file: !4, line: 1261, baseType: !397, size: 64, align: 64, offset: 2048)
!761 = !DIDerivedType(tag: DW_TAG_member, name: "sharedMemPerBlock", scope: !754, file: !4, line: 1262, baseType: !397, size: 64, align: 64, offset: 2112)
!762 = !DIDerivedType(tag: DW_TAG_member, name: "regsPerBlock", scope: !754, file: !4, line: 1263, baseType: !98, size: 32, align: 32, offset: 2176)
!763 = !DIDerivedType(tag: DW_TAG_member, name: "warpSize", scope: !754, file: !4, line: 1264, baseType: !98, size: 32, align: 32, offset: 2208)
!764 = !DIDerivedType(tag: DW_TAG_member, name: "memPitch", scope: !754, file: !4, line: 1265, baseType: !397, size: 64, align: 64, offset: 2240)
!765 = !DIDerivedType(tag: DW_TAG_member, name: "maxThreadsPerBlock", scope: !754, file: !4, line: 1266, baseType: !98, size: 32, align: 32, offset: 2304)
!766 = !DIDerivedType(tag: DW_TAG_member, name: "maxThreadsDim", scope: !754, file: !4, line: 1267, baseType: !767, size: 96, align: 32, offset: 2336)
!767 = !DICompositeType(tag: DW_TAG_array_type, baseType: !98, size: 96, align: 32, elements: !768)
!768 = !{!769}
!769 = !DISubrange(count: 3)
!770 = !DIDerivedType(tag: DW_TAG_member, name: "maxGridSize", scope: !754, file: !4, line: 1268, baseType: !767, size: 96, align: 32, offset: 2432)
!771 = !DIDerivedType(tag: DW_TAG_member, name: "clockRate", scope: !754, file: !4, line: 1269, baseType: !98, size: 32, align: 32, offset: 2528)
!772 = !DIDerivedType(tag: DW_TAG_member, name: "totalConstMem", scope: !754, file: !4, line: 1270, baseType: !397, size: 64, align: 64, offset: 2560)
!773 = !DIDerivedType(tag: DW_TAG_member, name: "major", scope: !754, file: !4, line: 1271, baseType: !98, size: 32, align: 32, offset: 2624)
!774 = !DIDerivedType(tag: DW_TAG_member, name: "minor", scope: !754, file: !4, line: 1272, baseType: !98, size: 32, align: 32, offset: 2656)
!775 = !DIDerivedType(tag: DW_TAG_member, name: "textureAlignment", scope: !754, file: !4, line: 1273, baseType: !397, size: 64, align: 64, offset: 2688)
!776 = !DIDerivedType(tag: DW_TAG_member, name: "texturePitchAlignment", scope: !754, file: !4, line: 1274, baseType: !397, size: 64, align: 64, offset: 2752)
!777 = !DIDerivedType(tag: DW_TAG_member, name: "deviceOverlap", scope: !754, file: !4, line: 1275, baseType: !98, size: 32, align: 32, offset: 2816)
!778 = !DIDerivedType(tag: DW_TAG_member, name: "multiProcessorCount", scope: !754, file: !4, line: 1276, baseType: !98, size: 32, align: 32, offset: 2848)
!779 = !DIDerivedType(tag: DW_TAG_member, name: "kernelExecTimeoutEnabled", scope: !754, file: !4, line: 1277, baseType: !98, size: 32, align: 32, offset: 2880)
!780 = !DIDerivedType(tag: DW_TAG_member, name: "integrated", scope: !754, file: !4, line: 1278, baseType: !98, size: 32, align: 32, offset: 2912)
!781 = !DIDerivedType(tag: DW_TAG_member, name: "canMapHostMemory", scope: !754, file: !4, line: 1279, baseType: !98, size: 32, align: 32, offset: 2944)
!782 = !DIDerivedType(tag: DW_TAG_member, name: "computeMode", scope: !754, file: !4, line: 1280, baseType: !98, size: 32, align: 32, offset: 2976)
!783 = !DIDerivedType(tag: DW_TAG_member, name: "maxTexture1D", scope: !754, file: !4, line: 1281, baseType: !98, size: 32, align: 32, offset: 3008)
!784 = !DIDerivedType(tag: DW_TAG_member, name: "maxTexture1DMipmap", scope: !754, file: !4, line: 1282, baseType: !98, size: 32, align: 32, offset: 3040)
!785 = !DIDerivedType(tag: DW_TAG_member, name: "maxTexture1DLinear", scope: !754, file: !4, line: 1283, baseType: !98, size: 32, align: 32, offset: 3072)
!786 = !DIDerivedType(tag: DW_TAG_member, name: "maxTexture2D", scope: !754, file: !4, line: 1284, baseType: !787, size: 64, align: 32, offset: 3104)
!787 = !DICompositeType(tag: DW_TAG_array_type, baseType: !98, size: 64, align: 32, elements: !788)
!788 = !{!789}
!789 = !DISubrange(count: 2)
!790 = !DIDerivedType(tag: DW_TAG_member, name: "maxTexture2DMipmap", scope: !754, file: !4, line: 1285, baseType: !787, size: 64, align: 32, offset: 3168)
!791 = !DIDerivedType(tag: DW_TAG_member, name: "maxTexture2DLinear", scope: !754, file: !4, line: 1286, baseType: !767, size: 96, align: 32, offset: 3232)
!792 = !DIDerivedType(tag: DW_TAG_member, name: "maxTexture2DGather", scope: !754, file: !4, line: 1287, baseType: !787, size: 64, align: 32, offset: 3328)
!793 = !DIDerivedType(tag: DW_TAG_member, name: "maxTexture3D", scope: !754, file: !4, line: 1288, baseType: !767, size: 96, align: 32, offset: 3392)
!794 = !DIDerivedType(tag: DW_TAG_member, name: "maxTexture3DAlt", scope: !754, file: !4, line: 1289, baseType: !767, size: 96, align: 32, offset: 3488)
!795 = !DIDerivedType(tag: DW_TAG_member, name: "maxTextureCubemap", scope: !754, file: !4, line: 1290, baseType: !98, size: 32, align: 32, offset: 3584)
!796 = !DIDerivedType(tag: DW_TAG_member, name: "maxTexture1DLayered", scope: !754, file: !4, line: 1291, baseType: !787, size: 64, align: 32, offset: 3616)
!797 = !DIDerivedType(tag: DW_TAG_member, name: "maxTexture2DLayered", scope: !754, file: !4, line: 1292, baseType: !767, size: 96, align: 32, offset: 3680)
!798 = !DIDerivedType(tag: DW_TAG_member, name: "maxTextureCubemapLayered", scope: !754, file: !4, line: 1293, baseType: !787, size: 64, align: 32, offset: 3776)
!799 = !DIDerivedType(tag: DW_TAG_member, name: "maxSurface1D", scope: !754, file: !4, line: 1294, baseType: !98, size: 32, align: 32, offset: 3840)
!800 = !DIDerivedType(tag: DW_TAG_member, name: "maxSurface2D", scope: !754, file: !4, line: 1295, baseType: !787, size: 64, align: 32, offset: 3872)
!801 = !DIDerivedType(tag: DW_TAG_member, name: "maxSurface3D", scope: !754, file: !4, line: 1296, baseType: !767, size: 96, align: 32, offset: 3936)
!802 = !DIDerivedType(tag: DW_TAG_member, name: "maxSurface1DLayered", scope: !754, file: !4, line: 1297, baseType: !787, size: 64, align: 32, offset: 4032)
!803 = !DIDerivedType(tag: DW_TAG_member, name: "maxSurface2DLayered", scope: !754, file: !4, line: 1298, baseType: !767, size: 96, align: 32, offset: 4096)
!804 = !DIDerivedType(tag: DW_TAG_member, name: "maxSurfaceCubemap", scope: !754, file: !4, line: 1299, baseType: !98, size: 32, align: 32, offset: 4192)
!805 = !DIDerivedType(tag: DW_TAG_member, name: "maxSurfaceCubemapLayered", scope: !754, file: !4, line: 1300, baseType: !787, size: 64, align: 32, offset: 4224)
!806 = !DIDerivedType(tag: DW_TAG_member, name: "surfaceAlignment", scope: !754, file: !4, line: 1301, baseType: !397, size: 64, align: 64, offset: 4288)
!807 = !DIDerivedType(tag: DW_TAG_member, name: "concurrentKernels", scope: !754, file: !4, line: 1302, baseType: !98, size: 32, align: 32, offset: 4352)
!808 = !DIDerivedType(tag: DW_TAG_member, name: "ECCEnabled", scope: !754, file: !4, line: 1303, baseType: !98, size: 32, align: 32, offset: 4384)
!809 = !DIDerivedType(tag: DW_TAG_member, name: "pciBusID", scope: !754, file: !4, line: 1304, baseType: !98, size: 32, align: 32, offset: 4416)
!810 = !DIDerivedType(tag: DW_TAG_member, name: "pciDeviceID", scope: !754, file: !4, line: 1305, baseType: !98, size: 32, align: 32, offset: 4448)
!811 = !DIDerivedType(tag: DW_TAG_member, name: "pciDomainID", scope: !754, file: !4, line: 1306, baseType: !98, size: 32, align: 32, offset: 4480)
!812 = !DIDerivedType(tag: DW_TAG_member, name: "tccDriver", scope: !754, file: !4, line: 1307, baseType: !98, size: 32, align: 32, offset: 4512)
!813 = !DIDerivedType(tag: DW_TAG_member, name: "asyncEngineCount", scope: !754, file: !4, line: 1308, baseType: !98, size: 32, align: 32, offset: 4544)
!814 = !DIDerivedType(tag: DW_TAG_member, name: "unifiedAddressing", scope: !754, file: !4, line: 1309, baseType: !98, size: 32, align: 32, offset: 4576)
!815 = !DIDerivedType(tag: DW_TAG_member, name: "memoryClockRate", scope: !754, file: !4, line: 1310, baseType: !98, size: 32, align: 32, offset: 4608)
!816 = !DIDerivedType(tag: DW_TAG_member, name: "memoryBusWidth", scope: !754, file: !4, line: 1311, baseType: !98, size: 32, align: 32, offset: 4640)
!817 = !DIDerivedType(tag: DW_TAG_member, name: "l2CacheSize", scope: !754, file: !4, line: 1312, baseType: !98, size: 32, align: 32, offset: 4672)
!818 = !DIDerivedType(tag: DW_TAG_member, name: "maxThreadsPerMultiProcessor", scope: !754, file: !4, line: 1313, baseType: !98, size: 32, align: 32, offset: 4704)
!819 = !DIDerivedType(tag: DW_TAG_member, name: "streamPrioritiesSupported", scope: !754, file: !4, line: 1314, baseType: !98, size: 32, align: 32, offset: 4736)
!820 = !DIDerivedType(tag: DW_TAG_member, name: "globalL1CacheSupported", scope: !754, file: !4, line: 1315, baseType: !98, size: 32, align: 32, offset: 4768)
!821 = !DIDerivedType(tag: DW_TAG_member, name: "localL1CacheSupported", scope: !754, file: !4, line: 1316, baseType: !98, size: 32, align: 32, offset: 4800)
!822 = !DIDerivedType(tag: DW_TAG_member, name: "sharedMemPerMultiprocessor", scope: !754, file: !4, line: 1317, baseType: !397, size: 64, align: 64, offset: 4864)
!823 = !DIDerivedType(tag: DW_TAG_member, name: "regsPerMultiprocessor", scope: !754, file: !4, line: 1318, baseType: !98, size: 32, align: 32, offset: 4928)
!824 = !DIDerivedType(tag: DW_TAG_member, name: "managedMemory", scope: !754, file: !4, line: 1319, baseType: !98, size: 32, align: 32, offset: 4960)
!825 = !DIDerivedType(tag: DW_TAG_member, name: "isMultiGpuBoard", scope: !754, file: !4, line: 1320, baseType: !98, size: 32, align: 32, offset: 4992)
!826 = !DIDerivedType(tag: DW_TAG_member, name: "multiGpuBoardGroupID", scope: !754, file: !4, line: 1321, baseType: !98, size: 32, align: 32, offset: 5024)
!827 = !DILocalVariable(name: "err", scope: !828, file: !1, line: 330, type: !752)
!828 = distinct !DILexicalBlock(scope: !720, file: !1, line: 330, column: 5)
!829 = !DILocalVariable(name: "err", scope: !830, file: !1, line: 337, type: !752)
!830 = distinct !DILexicalBlock(scope: !720, file: !1, line: 337, column: 5)
!831 = !DILocalVariable(name: "d", scope: !720, file: !1, line: 339, type: !89)
!832 = !DILocalVariable(name: "inputSize", scope: !720, file: !1, line: 368, type: !98)
!833 = !DILocalVariable(name: "err", scope: !834, file: !1, line: 372, type: !752)
!834 = distinct !DILexicalBlock(scope: !720, file: !1, line: 372, column: 5)
!835 = !DILocalVariable(name: "err", scope: !836, file: !1, line: 395, type: !752)
!836 = distinct !DILexicalBlock(scope: !720, file: !1, line: 395, column: 5)
!837 = !DILocation(line: 219, column: 14, scope: !720)
!838 = !DILocation(line: 219, column: 27, scope: !720)
!839 = !DILocation(line: 221, column: 5, scope: !720)
!840 = !DILocation(line: 221, column: 9, scope: !720)
!841 = !DILocation(line: 223, column: 5, scope: !720)
!842 = !DILocation(line: 223, column: 19, scope: !720)
!843 = !DILocation(line: 237, column: 9, scope: !720)
!844 = !DILocation(line: 238, column: 9, scope: !720)
!845 = !DILocation(line: 239, column: 9, scope: !720)
!846 = !DILocation(line: 240, column: 9, scope: !720)
!847 = !DILocation(line: 241, column: 9, scope: !720)
!848 = !DILocation(line: 242, column: 9, scope: !720)
!849 = !DILocation(line: 243, column: 9, scope: !720)
!850 = !DILocation(line: 244, column: 9, scope: !720)
!851 = !DILocation(line: 245, column: 9, scope: !720)
!852 = !DILocation(line: 248, column: 62, scope: !853)
!853 = !DILexicalBlockFile(scope: !720, file: !1, discriminator: 1)
!854 = !DILocation(line: 248, column: 5, scope: !720)
!855 = !DIExpression(DW_OP_deref)
!856 = !DILocation(line: 248, column: 18, scope: !853)
!857 = !DILocation(line: 248, column: 12, scope: !853)
!858 = !DILocation(line: 248, column: 5, scope: !853)
!859 = !DILocation(line: 251, column: 29, scope: !860)
!860 = distinct !DILexicalBlock(scope: !861, file: !1, line: 249, column: 21)
!861 = distinct !DILexicalBlock(scope: !720, file: !1, line: 248, column: 91)
!862 = !{!863, !863, i64 0}
!863 = !{!"any pointer", !692, i64 0}
!864 = !DILocation(line: 278, column: 1, scope: !382, inlinedAt: !865)
!865 = distinct !DILocation(line: 251, column: 24, scope: !860)
!866 = !DILocation(line: 280, column: 16, scope: !382, inlinedAt: !865)
!867 = !DILocation(line: 252, column: 19, scope: !860)
!868 = !DILocation(line: 246, column: 12, scope: !720)
!869 = !DILocation(line: 253, column: 21, scope: !870)
!870 = distinct !DILexicalBlock(scope: !860, file: !1, line: 253, column: 17)
!871 = !DILocation(line: 253, column: 41, scope: !872)
!872 = !DILexicalBlockFile(scope: !870, file: !1, discriminator: 1)
!873 = !DILocation(line: 253, column: 29, scope: !870)
!874 = !DILocation(line: 253, column: 50, scope: !875)
!875 = !DILexicalBlockFile(scope: !870, file: !1, discriminator: 2)
!876 = !DILocation(line: 253, column: 65, scope: !877)
!877 = !DILexicalBlockFile(scope: !875, file: !1, discriminator: 3)
!878 = !DILocation(line: 253, column: 62, scope: !875)
!879 = !DILocation(line: 253, column: 17, scope: !875)
!880 = !DILocation(line: 83, column: 5, scope: !717, inlinedAt: !881)
!881 = distinct !DILocation(line: 254, column: 17, scope: !882)
!882 = distinct !DILexicalBlock(scope: !870, file: !1, line: 253, column: 82)
!883 = !DILocation(line: 255, column: 17, scope: !882)
!884 = !DILocation(line: 257, column: 33, scope: !860)
!885 = !DILocation(line: 278, column: 1, scope: !382, inlinedAt: !886)
!886 = distinct !DILocation(line: 257, column: 25, scope: !860)
!887 = !DILocation(line: 280, column: 16, scope: !382, inlinedAt: !886)
!888 = !DILocation(line: 258, column: 13, scope: !860)
!889 = !DILocation(line: 260, column: 30, scope: !860)
!890 = !DILocation(line: 278, column: 1, scope: !382, inlinedAt: !891)
!891 = distinct !DILocation(line: 260, column: 25, scope: !860)
!892 = !DILocation(line: 280, column: 16, scope: !382, inlinedAt: !891)
!893 = !DILocation(line: 261, column: 13, scope: !860)
!894 = !DILocation(line: 263, column: 29, scope: !860)
!895 = !DILocation(line: 278, column: 1, scope: !382, inlinedAt: !896)
!896 = distinct !DILocation(line: 263, column: 24, scope: !860)
!897 = !DILocation(line: 280, column: 16, scope: !382, inlinedAt: !896)
!898 = !DILocation(line: 264, column: 13, scope: !860)
!899 = !DILocation(line: 266, column: 28, scope: !860)
!900 = !DILocation(line: 278, column: 1, scope: !382, inlinedAt: !901)
!901 = distinct !DILocation(line: 266, column: 23, scope: !860)
!902 = !DILocation(line: 280, column: 16, scope: !382, inlinedAt: !901)
!903 = !DILocation(line: 267, column: 13, scope: !860)
!904 = !DILocation(line: 269, column: 27, scope: !860)
!905 = !DILocation(line: 278, column: 1, scope: !382, inlinedAt: !906)
!906 = distinct !DILocation(line: 269, column: 22, scope: !860)
!907 = !DILocation(line: 280, column: 16, scope: !382, inlinedAt: !906)
!908 = !DILocation(line: 270, column: 13, scope: !860)
!909 = !DILocation(line: 276, column: 13, scope: !860)
!910 = !DILocation(line: 279, column: 13, scope: !860)
!911 = !DILocation(line: 282, column: 13, scope: !860)
!912 = !DILocation(line: 285, column: 13, scope: !860)
!913 = !DILocation(line: 83, column: 5, scope: !717, inlinedAt: !914)
!914 = distinct !DILocation(line: 287, column: 13, scope: !860)
!915 = !DILocation(line: 288, column: 13, scope: !860)
!916 = !DILocation(line: 83, column: 5, scope: !717, inlinedAt: !917)
!917 = distinct !DILocation(line: 292, column: 13, scope: !860)
!918 = !DILocation(line: 293, column: 13, scope: !860)
!919 = !DILocation(line: 296, column: 10, scope: !720)
!920 = !DILocation(line: 296, column: 7, scope: !720)
!921 = !DILocation(line: 297, column: 7, scope: !720)
!922 = !DILocation(line: 299, column: 14, scope: !923)
!923 = distinct !DILexicalBlock(scope: !720, file: !1, line: 299, column: 9)
!924 = !DILocation(line: 299, column: 9, scope: !720)
!925 = !DILocation(line: 300, column: 9, scope: !926)
!926 = distinct !DILexicalBlock(scope: !923, file: !1, line: 299, column: 20)
!927 = !DILocation(line: 83, column: 5, scope: !717, inlinedAt: !928)
!928 = distinct !DILocation(line: 301, column: 9, scope: !926)
!929 = !DILocation(line: 302, column: 9, scope: !926)
!930 = !DILocation(line: 305, column: 18, scope: !931)
!931 = distinct !DILexicalBlock(scope: !720, file: !1, line: 305, column: 9)
!932 = !DILocation(line: 305, column: 36, scope: !933)
!933 = !DILexicalBlockFile(scope: !931, file: !1, discriminator: 1)
!934 = !DILocation(line: 305, column: 23, scope: !931)
!935 = !DILocation(line: 306, column: 9, scope: !936)
!936 = distinct !DILexicalBlock(scope: !931, file: !1, line: 305, column: 41)
!937 = !DILocation(line: 83, column: 5, scope: !717, inlinedAt: !938)
!938 = distinct !DILocation(line: 307, column: 9, scope: !936)
!939 = !DILocation(line: 308, column: 9, scope: !936)
!940 = !DILocation(line: 311, column: 17, scope: !941)
!941 = distinct !DILexicalBlock(scope: !720, file: !1, line: 311, column: 9)
!942 = !DILocation(line: 311, column: 9, scope: !720)
!943 = !DILocation(line: 316, column: 5, scope: !720)
!944 = !DILocation(line: 316, column: 9, scope: !720)
!945 = !DILocation(line: 317, column: 5, scope: !720)
!946 = !DILocation(line: 318, column: 5, scope: !751)
!947 = !DILocation(line: 318, column: 5, scope: !948)
!948 = distinct !DILexicalBlock(scope: !751, file: !1, line: 318, column: 5)
!949 = !DILocation(line: 318, column: 5, scope: !950)
!950 = !DILexicalBlockFile(scope: !951, file: !1, discriminator: 1)
!951 = distinct !DILexicalBlock(scope: !948, file: !1, line: 318, column: 5)
!952 = !DILocation(line: 318, column: 5, scope: !953)
!953 = !DILexicalBlockFile(scope: !950, file: !1, discriminator: 3)
!954 = !DILocation(line: 318, column: 5, scope: !955)
!955 = !DILexicalBlockFile(scope: !950, file: !1, discriminator: 4)
!956 = !DILocation(line: 319, column: 9, scope: !957)
!957 = distinct !DILexicalBlock(scope: !720, file: !1, line: 319, column: 9)
!958 = !DILocation(line: 319, column: 18, scope: !957)
!959 = !DILocation(line: 319, column: 9, scope: !720)
!960 = !DILocation(line: 320, column: 9, scope: !961)
!961 = distinct !DILexicalBlock(scope: !957, file: !1, line: 319, column: 24)
!962 = !DILocation(line: 321, column: 9, scope: !961)
!963 = !DILocation(line: 323, column: 16, scope: !964)
!964 = distinct !DILexicalBlock(scope: !720, file: !1, line: 323, column: 9)
!965 = !DILocation(line: 323, column: 30, scope: !966)
!966 = !DILexicalBlockFile(scope: !964, file: !1, discriminator: 1)
!967 = !DILocation(line: 323, column: 20, scope: !964)
!968 = !DILocation(line: 325, column: 36, scope: !969)
!969 = distinct !DILexicalBlock(scope: !964, file: !1, line: 323, column: 45)
!970 = !DILocation(line: 324, column: 9, scope: !969)
!971 = !DILocation(line: 326, column: 9, scope: !969)
!972 = !DILocation(line: 328, column: 5, scope: !720)
!973 = !DILocation(line: 328, column: 20, scope: !720)
!974 = !DILocation(line: 329, column: 5, scope: !720)
!975 = !DILocation(line: 330, column: 5, scope: !828)
!976 = !DILocation(line: 330, column: 5, scope: !977)
!977 = distinct !DILexicalBlock(scope: !828, file: !1, line: 330, column: 5)
!978 = !DILocation(line: 330, column: 5, scope: !979)
!979 = !DILexicalBlockFile(scope: !980, file: !1, discriminator: 1)
!980 = distinct !DILexicalBlock(scope: !977, file: !1, line: 330, column: 5)
!981 = !DILocation(line: 330, column: 5, scope: !982)
!982 = !DILexicalBlockFile(scope: !979, file: !1, discriminator: 3)
!983 = !DILocation(line: 330, column: 5, scope: !984)
!984 = !DILexicalBlockFile(scope: !979, file: !1, discriminator: 4)
!985 = !DILocation(line: 331, column: 17, scope: !986)
!986 = distinct !DILexicalBlock(scope: !720, file: !1, line: 331, column: 9)
!987 = !{!988, !706, i64 328}
!988 = !{!"_ZTS14cudaDeviceProp", !692, i64 0, !989, i64 256, !989, i64 264, !706, i64 272, !706, i64 276, !989, i64 280, !706, i64 288, !692, i64 292, !692, i64 304, !706, i64 316, !989, i64 320, !706, i64 328, !706, i64 332, !989, i64 336, !989, i64 344, !706, i64 352, !706, i64 356, !706, i64 360, !706, i64 364, !706, i64 368, !706, i64 372, !706, i64 376, !706, i64 380, !706, i64 384, !692, i64 388, !692, i64 396, !692, i64 404, !692, i64 416, !692, i64 424, !692, i64 436, !706, i64 448, !692, i64 452, !692, i64 460, !692, i64 472, !706, i64 480, !692, i64 484, !692, i64 492, !692, i64 504, !692, i64 512, !706, i64 524, !692, i64 528, !989, i64 536, !706, i64 544, !706, i64 548, !706, i64 552, !706, i64 556, !706, i64 560, !706, i64 564, !706, i64 568, !706, i64 572, !706, i64 576, !706, i64 580, !706, i64 584, !706, i64 588, !706, i64 592, !706, i64 596, !706, i64 600, !989, i64 608, !706, i64 616, !706, i64 620, !706, i64 624, !706, i64 628}
!989 = !{!"long", !692, i64 0}
!990 = !DILocation(line: 331, column: 23, scope: !986)
!991 = !DILocation(line: 331, column: 9, scope: !720)
!992 = !DILocation(line: 332, column: 9, scope: !993)
!993 = distinct !DILexicalBlock(scope: !986, file: !1, line: 331, column: 28)
!994 = !DILocation(line: 333, column: 9, scope: !993)
!995 = !DILocation(line: 335, column: 5, scope: !720)
!996 = !DILocation(line: 336, column: 5, scope: !720)
!997 = !DILocation(line: 337, column: 5, scope: !830)
!998 = !DILocation(line: 337, column: 5, scope: !999)
!999 = distinct !DILexicalBlock(scope: !830, file: !1, line: 337, column: 5)
!1000 = !DILocation(line: 337, column: 5, scope: !1001)
!1001 = !DILexicalBlockFile(scope: !1002, file: !1, discriminator: 1)
!1002 = distinct !DILexicalBlock(scope: !999, file: !1, line: 337, column: 5)
!1003 = !DILocation(line: 337, column: 5, scope: !1004)
!1004 = !DILexicalBlockFile(scope: !1001, file: !1, discriminator: 3)
!1005 = !DILocation(line: 337, column: 5, scope: !1006)
!1006 = !DILexicalBlockFile(scope: !1001, file: !1, discriminator: 4)
!1007 = !DILocation(line: 340, column: 23, scope: !720)
!1008 = !DILocation(line: 340, column: 9, scope: !720)
!1009 = !DILocation(line: 339, column: 17, scope: !720)
!1010 = !DILocation(line: 341, column: 8, scope: !720)
!1011 = !DILocation(line: 341, column: 15, scope: !720)
!1012 = !{!1013, !863, i64 16}
!1013 = !{!"_ZTS3dwt", !863, i64 0, !863, i64 8, !863, i64 16, !706, i64 24, !706, i64 28, !706, i64 32, !706, i64 36}
!1014 = !DILocation(line: 342, column: 8, scope: !720)
!1015 = !DILocation(line: 342, column: 17, scope: !720)
!1016 = !{!1013, !706, i64 24}
!1017 = !DILocation(line: 343, column: 8, scope: !720)
!1018 = !DILocation(line: 343, column: 18, scope: !720)
!1019 = !{!1013, !706, i64 28}
!1020 = !DILocation(line: 344, column: 8, scope: !720)
!1021 = !DILocation(line: 344, column: 19, scope: !720)
!1022 = !{!1013, !706, i64 32}
!1023 = !DILocation(line: 345, column: 8, scope: !720)
!1024 = !DILocation(line: 345, column: 17, scope: !720)
!1025 = !{!1013, !706, i64 36}
!1026 = !DILocation(line: 348, column: 44, scope: !720)
!1027 = !DILocation(line: 348, column: 37, scope: !720)
!1028 = !DILocation(line: 352, column: 35, scope: !1029)
!1029 = distinct !DILexicalBlock(scope: !1030, file: !1, line: 350, column: 20)
!1030 = distinct !DILexicalBlock(scope: !720, file: !1, line: 350, column: 9)
!1031 = !DILocation(line: 348, column: 8, scope: !720)
!1032 = !DILocation(line: 348, column: 20, scope: !720)
!1033 = !{!1013, !863, i64 0}
!1034 = !DILocation(line: 349, column: 5, scope: !720)
!1035 = !DILocation(line: 350, column: 14, scope: !1030)
!1036 = !DILocation(line: 350, column: 9, scope: !720)
!1037 = !DILocation(line: 351, column: 41, scope: !1029)
!1038 = !DILocation(line: 351, column: 63, scope: !1029)
!1039 = !DILocation(line: 351, column: 34, scope: !1040)
!1040 = !DILexicalBlockFile(scope: !1029, file: !1, discriminator: 1)
!1041 = !DILocation(line: 351, column: 12, scope: !1029)
!1042 = !DILocation(line: 351, column: 24, scope: !1029)
!1043 = !{!1013, !863, i64 8}
!1044 = !DILocation(line: 352, column: 9, scope: !1029)
!1045 = !DILocation(line: 353, column: 19, scope: !1029)
!1046 = !DILocation(line: 353, column: 41, scope: !1029)
!1047 = !DILocation(line: 353, column: 31, scope: !1029)
!1048 = !DILocation(line: 353, column: 30, scope: !1029)
!1049 = !DILocation(line: 353, column: 9, scope: !1040)
!1050 = !DILocation(line: 354, column: 5, scope: !1029)
!1051 = !DILocation(line: 355, column: 33, scope: !1052)
!1052 = distinct !DILexicalBlock(scope: !1030, file: !1, line: 354, column: 12)
!1053 = !DILocation(line: 355, column: 26, scope: !1052)
!1054 = !DILocation(line: 355, column: 12, scope: !1052)
!1055 = !DILocation(line: 355, column: 24, scope: !1052)
!1056 = !DILocation(line: 359, column: 39, scope: !720)
!1057 = !DILocation(line: 359, column: 5, scope: !720)
!1058 = !DILocation(line: 360, column: 5, scope: !720)
!1059 = !DILocation(line: 361, column: 5, scope: !720)
!1060 = !DILocation(line: 362, column: 5, scope: !720)
!1061 = !DILocation(line: 363, column: 5, scope: !720)
!1062 = !DILocation(line: 364, column: 5, scope: !720)
!1063 = !DILocation(line: 365, column: 5, scope: !720)
!1064 = !DILocation(line: 368, column: 29, scope: !720)
!1065 = !DILocation(line: 368, column: 39, scope: !720)
!1066 = !DILocation(line: 368, column: 9, scope: !720)
!1067 = !DILocation(line: 371, column: 41, scope: !720)
!1068 = !DILocation(line: 371, column: 5, scope: !720)
!1069 = !DILocation(line: 372, column: 5, scope: !834)
!1070 = !DILocation(line: 372, column: 5, scope: !1071)
!1071 = distinct !DILexicalBlock(scope: !834, file: !1, line: 372, column: 5)
!1072 = !DILocation(line: 372, column: 5, scope: !1073)
!1073 = !DILexicalBlockFile(scope: !1074, file: !1, discriminator: 1)
!1074 = distinct !DILexicalBlock(scope: !1071, file: !1, line: 372, column: 5)
!1075 = !DILocation(line: 372, column: 5, scope: !1076)
!1076 = !DILexicalBlockFile(scope: !1073, file: !1, discriminator: 3)
!1077 = !DILocation(line: 372, column: 5, scope: !1078)
!1078 = !DILexicalBlockFile(scope: !1073, file: !1, discriminator: 4)
!1079 = !DILocation(line: 373, column: 19, scope: !1080)
!1080 = distinct !DILexicalBlock(scope: !720, file: !1, line: 373, column: 9)
!1081 = !DILocation(line: 373, column: 35, scope: !1080)
!1082 = !DILocation(line: 373, column: 9, scope: !1080)
!1083 = !DILocation(line: 373, column: 54, scope: !1080)
!1084 = !DILocation(line: 373, column: 9, scope: !720)
!1085 = !DILocation(line: 377, column: 17, scope: !1086)
!1086 = distinct !DILexicalBlock(scope: !720, file: !1, line: 377, column: 9)
!1087 = !DILocation(line: 378, column: 18, scope: !1088)
!1088 = distinct !DILexicalBlock(scope: !1089, file: !1, line: 378, column: 12)
!1089 = distinct !DILexicalBlock(scope: !1086, file: !1, line: 377, column: 23)
!1090 = !DILocation(line: 377, column: 9, scope: !720)
!1091 = !DILocation(line: 378, column: 12, scope: !1089)
!1092 = !DILocation(line: 379, column: 13, scope: !1088)
!1093 = !DILocation(line: 381, column: 13, scope: !1088)
!1094 = !DILocation(line: 384, column: 12, scope: !1095)
!1095 = distinct !DILexicalBlock(scope: !1086, file: !1, line: 383, column: 10)
!1096 = !DILocation(line: 385, column: 13, scope: !1097)
!1097 = distinct !DILexicalBlock(scope: !1095, file: !1, line: 384, column: 12)
!1098 = !DILocation(line: 387, column: 13, scope: !1097)
!1099 = !DILocation(line: 394, column: 21, scope: !720)
!1100 = !DILocation(line: 394, column: 5, scope: !720)
!1101 = !DILocation(line: 395, column: 5, scope: !836)
!1102 = !DILocation(line: 395, column: 5, scope: !1103)
!1103 = distinct !DILexicalBlock(scope: !836, file: !1, line: 395, column: 5)
!1104 = !DILocation(line: 395, column: 5, scope: !1105)
!1105 = !DILexicalBlockFile(scope: !1106, file: !1, discriminator: 1)
!1106 = distinct !DILexicalBlock(scope: !1103, file: !1, line: 395, column: 5)
!1107 = !DILocation(line: 395, column: 5, scope: !1108)
!1108 = !DILexicalBlockFile(scope: !1105, file: !1, discriminator: 3)
!1109 = !DILocation(line: 395, column: 5, scope: !1110)
!1110 = !DILexicalBlockFile(scope: !1105, file: !1, discriminator: 4)
!1111 = !DILocation(line: 398, column: 1, scope: !720)
!1112 = !DILocation(line: 398, column: 1, scope: !1113)
!1113 = !DILexicalBlockFile(scope: !720, file: !1, discriminator: 3)
!1114 = distinct !DISubprogram(name: "processDWT<float>", linkageName: "_Z10processDWTIfEvP3dwtii", scope: !1, file: !1, line: 97, type: !1115, isLocal: false, isDefinition: true, scopeLine: 98, flags: DIFlagPrototyped, isOptimized: true, unit: !0, templateParams: !1117, variables: !1119)
!1115 = !DISubroutineType(types: !1116)
!1116 = !{null, !89, !98, !98}
!1117 = !{!1118}
!1118 = !DITemplateTypeParameter(name: "T", type: !117)
!1119 = !{!1120, !1121, !1122, !1123, !1124, !1125, !1126, !1128, !1130, !1132, !1134, !1137, !1138, !1140, !1142, !1144, !1146, !1147, !1148, !1149, !1151, !1153, !1155, !1157, !1159, !1161, !1163, !1165, !1167, !1169, !1171, !1174, !1176, !1178, !1180, !1182}
!1120 = !DILocalVariable(name: "d", arg: 1, scope: !1114, file: !1, line: 97, type: !89)
!1121 = !DILocalVariable(name: "forward", arg: 2, scope: !1114, file: !1, line: 97, type: !98)
!1122 = !DILocalVariable(name: "writeVisual", arg: 3, scope: !1114, file: !1, line: 97, type: !98)
!1123 = !DILocalVariable(name: "componentSize", scope: !1114, file: !1, line: 99, type: !98)
!1124 = !DILocalVariable(name: "c_r_out", scope: !1114, file: !1, line: 101, type: !245)
!1125 = !DILocalVariable(name: "backup", scope: !1114, file: !1, line: 101, type: !245)
!1126 = !DILocalVariable(name: "err", scope: !1127, file: !1, line: 103, type: !752)
!1127 = distinct !DILexicalBlock(scope: !1114, file: !1, line: 103, column: 5)
!1128 = !DILocalVariable(name: "err", scope: !1129, file: !1, line: 105, type: !752)
!1129 = distinct !DILexicalBlock(scope: !1114, file: !1, line: 105, column: 5)
!1130 = !DILocalVariable(name: "err", scope: !1131, file: !1, line: 108, type: !752)
!1131 = distinct !DILexicalBlock(scope: !1114, file: !1, line: 108, column: 5)
!1132 = !DILocalVariable(name: "err", scope: !1133, file: !1, line: 110, type: !752)
!1133 = distinct !DILexicalBlock(scope: !1114, file: !1, line: 110, column: 5)
!1134 = !DILocalVariable(name: "c_g_out", scope: !1135, file: !1, line: 114, type: !245)
!1135 = distinct !DILexicalBlock(scope: !1136, file: !1, line: 112, column: 29)
!1136 = distinct !DILexicalBlock(scope: !1114, file: !1, line: 112, column: 9)
!1137 = !DILocalVariable(name: "c_b_out", scope: !1135, file: !1, line: 114, type: !245)
!1138 = !DILocalVariable(name: "err", scope: !1139, file: !1, line: 116, type: !752)
!1139 = distinct !DILexicalBlock(scope: !1135, file: !1, line: 116, column: 9)
!1140 = !DILocalVariable(name: "err", scope: !1141, file: !1, line: 118, type: !752)
!1141 = distinct !DILexicalBlock(scope: !1135, file: !1, line: 118, column: 9)
!1142 = !DILocalVariable(name: "err", scope: !1143, file: !1, line: 121, type: !752)
!1143 = distinct !DILexicalBlock(scope: !1135, file: !1, line: 121, column: 9)
!1144 = !DILocalVariable(name: "err", scope: !1145, file: !1, line: 123, type: !752)
!1145 = distinct !DILexicalBlock(scope: !1135, file: !1, line: 123, column: 9)
!1146 = !DILocalVariable(name: "c_r", scope: !1135, file: !1, line: 126, type: !245)
!1147 = !DILocalVariable(name: "c_g", scope: !1135, file: !1, line: 126, type: !245)
!1148 = !DILocalVariable(name: "c_b", scope: !1135, file: !1, line: 126, type: !245)
!1149 = !DILocalVariable(name: "err", scope: !1150, file: !1, line: 128, type: !752)
!1150 = distinct !DILexicalBlock(scope: !1135, file: !1, line: 128, column: 9)
!1151 = !DILocalVariable(name: "err", scope: !1152, file: !1, line: 130, type: !752)
!1152 = distinct !DILexicalBlock(scope: !1135, file: !1, line: 130, column: 9)
!1153 = !DILocalVariable(name: "err", scope: !1154, file: !1, line: 133, type: !752)
!1154 = distinct !DILexicalBlock(scope: !1135, file: !1, line: 133, column: 9)
!1155 = !DILocalVariable(name: "err", scope: !1156, file: !1, line: 135, type: !752)
!1156 = distinct !DILexicalBlock(scope: !1135, file: !1, line: 135, column: 9)
!1157 = !DILocalVariable(name: "err", scope: !1158, file: !1, line: 138, type: !752)
!1158 = distinct !DILexicalBlock(scope: !1135, file: !1, line: 138, column: 9)
!1159 = !DILocalVariable(name: "err", scope: !1160, file: !1, line: 140, type: !752)
!1160 = distinct !DILexicalBlock(scope: !1135, file: !1, line: 140, column: 9)
!1161 = !DILocalVariable(name: "err", scope: !1162, file: !1, line: 177, type: !752)
!1162 = distinct !DILexicalBlock(scope: !1135, file: !1, line: 177, column: 9)
!1163 = !DILocalVariable(name: "err", scope: !1164, file: !1, line: 179, type: !752)
!1164 = distinct !DILexicalBlock(scope: !1135, file: !1, line: 179, column: 9)
!1165 = !DILocalVariable(name: "err", scope: !1166, file: !1, line: 181, type: !752)
!1166 = distinct !DILexicalBlock(scope: !1135, file: !1, line: 181, column: 9)
!1167 = !DILocalVariable(name: "err", scope: !1168, file: !1, line: 183, type: !752)
!1168 = distinct !DILexicalBlock(scope: !1135, file: !1, line: 183, column: 9)
!1169 = !DILocalVariable(name: "err", scope: !1170, file: !1, line: 185, type: !752)
!1170 = distinct !DILexicalBlock(scope: !1135, file: !1, line: 185, column: 9)
!1171 = !DILocalVariable(name: "c_r", scope: !1172, file: !1, line: 190, type: !245)
!1172 = distinct !DILexicalBlock(scope: !1173, file: !1, line: 188, column: 34)
!1173 = distinct !DILexicalBlock(scope: !1136, file: !1, line: 188, column: 14)
!1174 = !DILocalVariable(name: "err", scope: !1175, file: !1, line: 192, type: !752)
!1175 = distinct !DILexicalBlock(scope: !1172, file: !1, line: 192, column: 9)
!1176 = !DILocalVariable(name: "err", scope: !1177, file: !1, line: 194, type: !752)
!1177 = distinct !DILexicalBlock(scope: !1172, file: !1, line: 194, column: 9)
!1178 = !DILocalVariable(name: "err", scope: !1179, file: !1, line: 210, type: !752)
!1179 = distinct !DILexicalBlock(scope: !1172, file: !1, line: 210, column: 9)
!1180 = !DILocalVariable(name: "err", scope: !1181, file: !1, line: 214, type: !752)
!1181 = distinct !DILexicalBlock(scope: !1114, file: !1, line: 214, column: 5)
!1182 = !DILocalVariable(name: "err", scope: !1183, file: !1, line: 216, type: !752)
!1183 = distinct !DILexicalBlock(scope: !1114, file: !1, line: 216, column: 5)
!1184 = !DILocation(line: 97, column: 29, scope: !1114)
!1185 = !DILocation(line: 97, column: 36, scope: !1114)
!1186 = !DILocation(line: 97, column: 49, scope: !1114)
!1187 = !DILocation(line: 99, column: 28, scope: !1114)
!1188 = !DILocation(line: 99, column: 40, scope: !1114)
!1189 = !DILocation(line: 99, column: 36, scope: !1114)
!1190 = !DILocation(line: 99, column: 49, scope: !1114)
!1191 = !DILocation(line: 99, column: 9, scope: !1114)
!1192 = !DILocation(line: 101, column: 5, scope: !1114)
!1193 = !DILocation(line: 102, column: 16, scope: !1114)
!1194 = !DILocation(line: 102, column: 34, scope: !1114)
!1195 = !DILocation(line: 102, column: 5, scope: !1114)
!1196 = !DILocation(line: 103, column: 5, scope: !1127)
!1197 = !DILocation(line: 103, column: 5, scope: !1198)
!1198 = distinct !DILexicalBlock(scope: !1127, file: !1, line: 103, column: 5)
!1199 = !DILocation(line: 103, column: 5, scope: !1200)
!1200 = !DILexicalBlockFile(scope: !1201, file: !1, discriminator: 1)
!1201 = distinct !DILexicalBlock(scope: !1198, file: !1, line: 103, column: 5)
!1202 = !DILocation(line: 103, column: 5, scope: !1203)
!1203 = !DILexicalBlockFile(scope: !1200, file: !1, discriminator: 3)
!1204 = !DILocation(line: 103, column: 5, scope: !1205)
!1205 = !DILexicalBlockFile(scope: !1200, file: !1, discriminator: 4)
!1206 = !DILocation(line: 104, column: 16, scope: !1114)
!1207 = !DILocation(line: 104, column: 5, scope: !1114)
!1208 = !DILocation(line: 105, column: 5, scope: !1129)
!1209 = !DILocation(line: 105, column: 5, scope: !1210)
!1210 = distinct !DILexicalBlock(scope: !1129, file: !1, line: 105, column: 5)
!1211 = !DILocation(line: 105, column: 5, scope: !1212)
!1212 = !DILexicalBlockFile(scope: !1213, file: !1, discriminator: 1)
!1213 = distinct !DILexicalBlock(scope: !1210, file: !1, line: 105, column: 5)
!1214 = !DILocation(line: 105, column: 5, scope: !1215)
!1215 = !DILexicalBlockFile(scope: !1212, file: !1, discriminator: 3)
!1216 = !DILocation(line: 105, column: 5, scope: !1217)
!1217 = !DILexicalBlockFile(scope: !1212, file: !1, discriminator: 4)
!1218 = !DILocation(line: 107, column: 16, scope: !1114)
!1219 = !DILocation(line: 107, column: 5, scope: !1114)
!1220 = !DILocation(line: 108, column: 5, scope: !1131)
!1221 = !DILocation(line: 108, column: 5, scope: !1222)
!1222 = distinct !DILexicalBlock(scope: !1131, file: !1, line: 108, column: 5)
!1223 = !DILocation(line: 108, column: 5, scope: !1224)
!1224 = !DILexicalBlockFile(scope: !1225, file: !1, discriminator: 1)
!1225 = distinct !DILexicalBlock(scope: !1222, file: !1, line: 108, column: 5)
!1226 = !DILocation(line: 108, column: 5, scope: !1227)
!1227 = !DILexicalBlockFile(scope: !1224, file: !1, discriminator: 3)
!1228 = !DILocation(line: 108, column: 5, scope: !1229)
!1229 = !DILexicalBlockFile(scope: !1224, file: !1, discriminator: 4)
!1230 = !DILocation(line: 109, column: 16, scope: !1114)
!1231 = !DILocation(line: 109, column: 5, scope: !1114)
!1232 = !DILocation(line: 110, column: 5, scope: !1133)
!1233 = !DILocation(line: 110, column: 5, scope: !1234)
!1234 = distinct !DILexicalBlock(scope: !1133, file: !1, line: 110, column: 5)
!1235 = !DILocation(line: 110, column: 5, scope: !1236)
!1236 = !DILexicalBlockFile(scope: !1237, file: !1, discriminator: 1)
!1237 = distinct !DILexicalBlock(scope: !1234, file: !1, line: 110, column: 5)
!1238 = !DILocation(line: 110, column: 5, scope: !1239)
!1239 = !DILexicalBlockFile(scope: !1236, file: !1, discriminator: 3)
!1240 = !DILocation(line: 110, column: 5, scope: !1241)
!1241 = !DILexicalBlockFile(scope: !1236, file: !1, discriminator: 4)
!1242 = !DILocation(line: 112, column: 12, scope: !1136)
!1243 = !DILocation(line: 112, column: 9, scope: !1114)
!1244 = !DILocation(line: 114, column: 9, scope: !1135)
!1245 = !DILocation(line: 115, column: 20, scope: !1135)
!1246 = !DILocation(line: 115, column: 9, scope: !1135)
!1247 = !DILocation(line: 116, column: 9, scope: !1139)
!1248 = !DILocation(line: 116, column: 9, scope: !1249)
!1249 = distinct !DILexicalBlock(scope: !1139, file: !1, line: 116, column: 9)
!1250 = !DILocation(line: 116, column: 9, scope: !1251)
!1251 = !DILexicalBlockFile(scope: !1252, file: !1, discriminator: 1)
!1252 = distinct !DILexicalBlock(scope: !1249, file: !1, line: 116, column: 9)
!1253 = !DILocation(line: 116, column: 9, scope: !1254)
!1254 = !DILexicalBlockFile(scope: !1251, file: !1, discriminator: 3)
!1255 = !DILocation(line: 116, column: 9, scope: !1256)
!1256 = !DILexicalBlockFile(scope: !1251, file: !1, discriminator: 4)
!1257 = !DILocation(line: 117, column: 20, scope: !1135)
!1258 = !DILocation(line: 117, column: 9, scope: !1135)
!1259 = !DILocation(line: 118, column: 9, scope: !1141)
!1260 = !DILocation(line: 118, column: 9, scope: !1261)
!1261 = distinct !DILexicalBlock(scope: !1141, file: !1, line: 118, column: 9)
!1262 = !DILocation(line: 118, column: 9, scope: !1263)
!1263 = !DILexicalBlockFile(scope: !1264, file: !1, discriminator: 1)
!1264 = distinct !DILexicalBlock(scope: !1261, file: !1, line: 118, column: 9)
!1265 = !DILocation(line: 118, column: 9, scope: !1266)
!1266 = !DILexicalBlockFile(scope: !1263, file: !1, discriminator: 3)
!1267 = !DILocation(line: 118, column: 9, scope: !1268)
!1268 = !DILexicalBlockFile(scope: !1263, file: !1, discriminator: 4)
!1269 = !DILocation(line: 120, column: 20, scope: !1135)
!1270 = !DILocation(line: 120, column: 9, scope: !1135)
!1271 = !DILocation(line: 121, column: 9, scope: !1143)
!1272 = !DILocation(line: 121, column: 9, scope: !1273)
!1273 = distinct !DILexicalBlock(scope: !1143, file: !1, line: 121, column: 9)
!1274 = !DILocation(line: 121, column: 9, scope: !1275)
!1275 = !DILexicalBlockFile(scope: !1276, file: !1, discriminator: 1)
!1276 = distinct !DILexicalBlock(scope: !1273, file: !1, line: 121, column: 9)
!1277 = !DILocation(line: 121, column: 9, scope: !1278)
!1278 = !DILexicalBlockFile(scope: !1275, file: !1, discriminator: 3)
!1279 = !DILocation(line: 121, column: 9, scope: !1280)
!1280 = !DILexicalBlockFile(scope: !1275, file: !1, discriminator: 4)
!1281 = !DILocation(line: 122, column: 20, scope: !1135)
!1282 = !DILocation(line: 122, column: 9, scope: !1135)
!1283 = !DILocation(line: 123, column: 9, scope: !1145)
!1284 = !DILocation(line: 123, column: 9, scope: !1285)
!1285 = distinct !DILexicalBlock(scope: !1145, file: !1, line: 123, column: 9)
!1286 = !DILocation(line: 123, column: 9, scope: !1287)
!1287 = !DILexicalBlockFile(scope: !1288, file: !1, discriminator: 1)
!1288 = distinct !DILexicalBlock(scope: !1285, file: !1, line: 123, column: 9)
!1289 = !DILocation(line: 123, column: 9, scope: !1290)
!1290 = !DILexicalBlockFile(scope: !1287, file: !1, discriminator: 3)
!1291 = !DILocation(line: 123, column: 9, scope: !1292)
!1292 = !DILexicalBlockFile(scope: !1287, file: !1, discriminator: 4)
!1293 = !DILocation(line: 126, column: 9, scope: !1135)
!1294 = !DILocation(line: 127, column: 20, scope: !1135)
!1295 = !DILocation(line: 127, column: 9, scope: !1135)
!1296 = !DILocation(line: 128, column: 9, scope: !1150)
!1297 = !DILocation(line: 128, column: 9, scope: !1298)
!1298 = distinct !DILexicalBlock(scope: !1150, file: !1, line: 128, column: 9)
!1299 = !DILocation(line: 128, column: 9, scope: !1300)
!1300 = !DILexicalBlockFile(scope: !1301, file: !1, discriminator: 1)
!1301 = distinct !DILexicalBlock(scope: !1298, file: !1, line: 128, column: 9)
!1302 = !DILocation(line: 128, column: 9, scope: !1303)
!1303 = !DILexicalBlockFile(scope: !1300, file: !1, discriminator: 3)
!1304 = !DILocation(line: 128, column: 9, scope: !1305)
!1305 = !DILexicalBlockFile(scope: !1300, file: !1, discriminator: 4)
!1306 = !DILocation(line: 129, column: 20, scope: !1135)
!1307 = !DILocation(line: 129, column: 9, scope: !1135)
!1308 = !DILocation(line: 130, column: 9, scope: !1152)
!1309 = !DILocation(line: 130, column: 9, scope: !1310)
!1310 = distinct !DILexicalBlock(scope: !1152, file: !1, line: 130, column: 9)
!1311 = !DILocation(line: 130, column: 9, scope: !1312)
!1312 = !DILexicalBlockFile(scope: !1313, file: !1, discriminator: 1)
!1313 = distinct !DILexicalBlock(scope: !1310, file: !1, line: 130, column: 9)
!1314 = !DILocation(line: 130, column: 9, scope: !1315)
!1315 = !DILexicalBlockFile(scope: !1312, file: !1, discriminator: 3)
!1316 = !DILocation(line: 130, column: 9, scope: !1317)
!1317 = !DILexicalBlockFile(scope: !1312, file: !1, discriminator: 4)
!1318 = !DILocation(line: 132, column: 20, scope: !1135)
!1319 = !DILocation(line: 132, column: 9, scope: !1135)
!1320 = !DILocation(line: 133, column: 9, scope: !1154)
!1321 = !DILocation(line: 133, column: 9, scope: !1322)
!1322 = distinct !DILexicalBlock(scope: !1154, file: !1, line: 133, column: 9)
!1323 = !DILocation(line: 133, column: 9, scope: !1324)
!1324 = !DILexicalBlockFile(scope: !1325, file: !1, discriminator: 1)
!1325 = distinct !DILexicalBlock(scope: !1322, file: !1, line: 133, column: 9)
!1326 = !DILocation(line: 133, column: 9, scope: !1327)
!1327 = !DILexicalBlockFile(scope: !1324, file: !1, discriminator: 3)
!1328 = !DILocation(line: 133, column: 9, scope: !1329)
!1329 = !DILexicalBlockFile(scope: !1324, file: !1, discriminator: 4)
!1330 = !DILocation(line: 134, column: 20, scope: !1135)
!1331 = !DILocation(line: 134, column: 9, scope: !1135)
!1332 = !DILocation(line: 135, column: 9, scope: !1156)
!1333 = !DILocation(line: 135, column: 9, scope: !1334)
!1334 = distinct !DILexicalBlock(scope: !1156, file: !1, line: 135, column: 9)
!1335 = !DILocation(line: 135, column: 9, scope: !1336)
!1336 = !DILexicalBlockFile(scope: !1337, file: !1, discriminator: 1)
!1337 = distinct !DILexicalBlock(scope: !1334, file: !1, line: 135, column: 9)
!1338 = !DILocation(line: 135, column: 9, scope: !1339)
!1339 = !DILexicalBlockFile(scope: !1336, file: !1, discriminator: 3)
!1340 = !DILocation(line: 135, column: 9, scope: !1341)
!1341 = !DILexicalBlockFile(scope: !1336, file: !1, discriminator: 4)
!1342 = !DILocation(line: 137, column: 20, scope: !1135)
!1343 = !DILocation(line: 137, column: 9, scope: !1135)
!1344 = !DILocation(line: 138, column: 9, scope: !1158)
!1345 = !DILocation(line: 138, column: 9, scope: !1346)
!1346 = distinct !DILexicalBlock(scope: !1158, file: !1, line: 138, column: 9)
!1347 = !DILocation(line: 138, column: 9, scope: !1348)
!1348 = !DILexicalBlockFile(scope: !1349, file: !1, discriminator: 1)
!1349 = distinct !DILexicalBlock(scope: !1346, file: !1, line: 138, column: 9)
!1350 = !DILocation(line: 138, column: 9, scope: !1351)
!1351 = !DILexicalBlockFile(scope: !1348, file: !1, discriminator: 3)
!1352 = !DILocation(line: 138, column: 9, scope: !1353)
!1353 = !DILexicalBlockFile(scope: !1348, file: !1, discriminator: 4)
!1354 = !DILocation(line: 139, column: 20, scope: !1135)
!1355 = !DILocation(line: 139, column: 9, scope: !1135)
!1356 = !DILocation(line: 140, column: 9, scope: !1160)
!1357 = !DILocation(line: 140, column: 9, scope: !1358)
!1358 = distinct !DILexicalBlock(scope: !1160, file: !1, line: 140, column: 9)
!1359 = !DILocation(line: 140, column: 9, scope: !1360)
!1360 = !DILexicalBlockFile(scope: !1361, file: !1, discriminator: 1)
!1361 = distinct !DILexicalBlock(scope: !1358, file: !1, line: 140, column: 9)
!1362 = !DILocation(line: 140, column: 9, scope: !1363)
!1363 = !DILexicalBlockFile(scope: !1360, file: !1, discriminator: 3)
!1364 = !DILocation(line: 140, column: 9, scope: !1365)
!1365 = !DILexicalBlockFile(scope: !1360, file: !1, discriminator: 4)
!1366 = !DILocation(line: 142, column: 25, scope: !1135)
!1367 = !DILocation(line: 126, column: 12, scope: !1135)
!1368 = !DILocation(line: 142, column: 30, scope: !1135)
!1369 = !DILocation(line: 126, column: 18, scope: !1135)
!1370 = !DILocation(line: 142, column: 35, scope: !1135)
!1371 = !DILocation(line: 126, column: 24, scope: !1135)
!1372 = !DILocation(line: 142, column: 43, scope: !1135)
!1373 = !DILocation(line: 142, column: 54, scope: !1135)
!1374 = !DILocation(line: 142, column: 67, scope: !1135)
!1375 = !DILocation(line: 142, column: 9, scope: !1135)
!1376 = !DILocation(line: 147, column: 21, scope: !1135)
!1377 = !DILocation(line: 147, column: 26, scope: !1135)
!1378 = !DILocation(line: 101, column: 8, scope: !1114)
!1379 = !DILocation(line: 147, column: 35, scope: !1135)
!1380 = !DILocation(line: 101, column: 18, scope: !1114)
!1381 = !DILocation(line: 147, column: 46, scope: !1135)
!1382 = !DILocation(line: 147, column: 59, scope: !1135)
!1383 = !DILocation(line: 147, column: 73, scope: !1135)
!1384 = !DILocation(line: 147, column: 82, scope: !1135)
!1385 = !DILocation(line: 147, column: 9, scope: !1135)
!1386 = !DILocation(line: 148, column: 21, scope: !1135)
!1387 = !DILocation(line: 148, column: 26, scope: !1135)
!1388 = !DILocation(line: 114, column: 12, scope: !1135)
!1389 = !DILocation(line: 148, column: 35, scope: !1135)
!1390 = !DILocation(line: 148, column: 46, scope: !1135)
!1391 = !DILocation(line: 148, column: 59, scope: !1135)
!1392 = !DILocation(line: 148, column: 73, scope: !1135)
!1393 = !DILocation(line: 148, column: 9, scope: !1135)
!1394 = !DILocation(line: 149, column: 21, scope: !1135)
!1395 = !DILocation(line: 149, column: 26, scope: !1135)
!1396 = !DILocation(line: 114, column: 22, scope: !1135)
!1397 = !DILocation(line: 149, column: 35, scope: !1135)
!1398 = !DILocation(line: 149, column: 46, scope: !1135)
!1399 = !DILocation(line: 149, column: 59, scope: !1135)
!1400 = !DILocation(line: 149, column: 73, scope: !1135)
!1401 = !DILocation(line: 149, column: 9, scope: !1135)
!1402 = !DILocation(line: 176, column: 18, scope: !1135)
!1403 = !DILocation(line: 176, column: 9, scope: !1135)
!1404 = !DILocation(line: 177, column: 9, scope: !1162)
!1405 = !DILocation(line: 177, column: 9, scope: !1406)
!1406 = distinct !DILexicalBlock(scope: !1162, file: !1, line: 177, column: 9)
!1407 = !DILocation(line: 177, column: 9, scope: !1408)
!1408 = !DILexicalBlockFile(scope: !1409, file: !1, discriminator: 1)
!1409 = distinct !DILexicalBlock(scope: !1406, file: !1, line: 177, column: 9)
!1410 = !DILocation(line: 177, column: 9, scope: !1411)
!1411 = !DILexicalBlockFile(scope: !1408, file: !1, discriminator: 3)
!1412 = !DILocation(line: 177, column: 9, scope: !1413)
!1413 = !DILexicalBlockFile(scope: !1408, file: !1, discriminator: 4)
!1414 = !DILocation(line: 178, column: 18, scope: !1135)
!1415 = !DILocation(line: 178, column: 9, scope: !1135)
!1416 = !DILocation(line: 179, column: 9, scope: !1164)
!1417 = !DILocation(line: 179, column: 9, scope: !1418)
!1418 = distinct !DILexicalBlock(scope: !1164, file: !1, line: 179, column: 9)
!1419 = !DILocation(line: 179, column: 9, scope: !1420)
!1420 = !DILexicalBlockFile(scope: !1421, file: !1, discriminator: 1)
!1421 = distinct !DILexicalBlock(scope: !1418, file: !1, line: 179, column: 9)
!1422 = !DILocation(line: 179, column: 9, scope: !1423)
!1423 = !DILexicalBlockFile(scope: !1420, file: !1, discriminator: 3)
!1424 = !DILocation(line: 179, column: 9, scope: !1425)
!1425 = !DILexicalBlockFile(scope: !1420, file: !1, discriminator: 4)
!1426 = !DILocation(line: 180, column: 18, scope: !1135)
!1427 = !DILocation(line: 180, column: 9, scope: !1135)
!1428 = !DILocation(line: 181, column: 9, scope: !1166)
!1429 = !DILocation(line: 181, column: 9, scope: !1430)
!1430 = distinct !DILexicalBlock(scope: !1166, file: !1, line: 181, column: 9)
!1431 = !DILocation(line: 181, column: 9, scope: !1432)
!1432 = !DILexicalBlockFile(scope: !1433, file: !1, discriminator: 1)
!1433 = distinct !DILexicalBlock(scope: !1430, file: !1, line: 181, column: 9)
!1434 = !DILocation(line: 181, column: 9, scope: !1435)
!1435 = !DILexicalBlockFile(scope: !1432, file: !1, discriminator: 3)
!1436 = !DILocation(line: 181, column: 9, scope: !1437)
!1437 = !DILexicalBlockFile(scope: !1432, file: !1, discriminator: 4)
!1438 = !DILocation(line: 182, column: 18, scope: !1135)
!1439 = !DILocation(line: 182, column: 9, scope: !1135)
!1440 = !DILocation(line: 183, column: 9, scope: !1168)
!1441 = !DILocation(line: 183, column: 9, scope: !1442)
!1442 = distinct !DILexicalBlock(scope: !1168, file: !1, line: 183, column: 9)
!1443 = !DILocation(line: 183, column: 9, scope: !1444)
!1444 = !DILexicalBlockFile(scope: !1445, file: !1, discriminator: 1)
!1445 = distinct !DILexicalBlock(scope: !1442, file: !1, line: 183, column: 9)
!1446 = !DILocation(line: 183, column: 9, scope: !1447)
!1447 = !DILexicalBlockFile(scope: !1444, file: !1, discriminator: 3)
