; ModuleID = 'Results/lud/cuda/lud_kernel.cu'
source_filename = "Results/lud/cuda/lud_kernel.cu"
target datalayout = "e-m:e-i64:64-f80:128-n8:16:32:64-S128"
target triple = "x86_64-unknown-linux-gnu"

%struct.dim3 = type { i32, i32, i32 }
%struct.CUstream_st = type opaque

; Function Attrs: uwtable
define void @_Z12lud_diagonalPfii(float* %m, i32 %matrix_dim, i32 %offset) #0 !dbg !566 {
entry:
  %m.addr = alloca float*, align 8
  %matrix_dim.addr = alloca i32, align 4
  %offset.addr = alloca i32, align 4
  tail call void @llvm.dbg.value(metadata float* %m, i64 0, metadata !570, metadata !573), !dbg !574
  store float* %m, float** %m.addr, align 8, !tbaa !575
  tail call void @llvm.dbg.value(metadata i32 %matrix_dim, i64 0, metadata !571, metadata !573), !dbg !579
  store i32 %matrix_dim, i32* %matrix_dim.addr, align 4, !tbaa !580
  tail call void @llvm.dbg.value(metadata i32 %offset, i64 0, metadata !572, metadata !573), !dbg !582
  store i32 %offset, i32* %offset.addr, align 4, !tbaa !580
  %0 = bitcast float** %m.addr to i8*, !dbg !583
  %1 = call i32 @cudaSetupArgument(i8* %0, i64 8, i64 0), !dbg !583
  %2 = icmp eq i32 %1, 0, !dbg !583
  br i1 %2, label %setup.next, label %setup.end, !dbg !583

setup.next:                                       ; preds = %entry
  %3 = bitcast i32* %matrix_dim.addr to i8*, !dbg !584
  %4 = call i32 @cudaSetupArgument(i8* %3, i64 4, i64 8), !dbg !584
  %5 = icmp eq i32 %4, 0, !dbg !584
  br i1 %5, label %setup.next1, label %setup.end, !dbg !584

setup.next1:                                      ; preds = %setup.next
  %6 = bitcast i32* %offset.addr to i8*, !dbg !586
  %7 = call i32 @cudaSetupArgument(i8* %6, i64 4, i64 12), !dbg !586
  %8 = icmp eq i32 %7, 0, !dbg !586
  br i1 %8, label %setup.next2, label %setup.end, !dbg !586

setup.next2:                                      ; preds = %setup.next1
  %9 = call i32 @cudaLaunch(i8* bitcast (void (float*, i32, i32)* @_Z12lud_diagonalPfii to i8*)), !dbg !588
  br label %setup.end, !dbg !588

setup.end:                                        ; preds = %setup.next2, %setup.next1, %setup.next, %entry
  ret void, !dbg !590
}

declare i32 @cudaSetupArgument(i8*, i64, i64) local_unnamed_addr

declare i32 @cudaLaunch(i8*) local_unnamed_addr

; Function Attrs: uwtable
define void @_Z13lud_perimeterPfii(float* %m, i32 %matrix_dim, i32 %offset) #0 !dbg !591 {
entry:
  %m.addr = alloca float*, align 8
  %matrix_dim.addr = alloca i32, align 4
  %offset.addr = alloca i32, align 4
  tail call void @llvm.dbg.value(metadata float* %m, i64 0, metadata !593, metadata !573), !dbg !596
  store float* %m, float** %m.addr, align 8, !tbaa !575
  tail call void @llvm.dbg.value(metadata i32 %matrix_dim, i64 0, metadata !594, metadata !573), !dbg !597
  store i32 %matrix_dim, i32* %matrix_dim.addr, align 4, !tbaa !580
  tail call void @llvm.dbg.value(metadata i32 %offset, i64 0, metadata !595, metadata !573), !dbg !598
  store i32 %offset, i32* %offset.addr, align 4, !tbaa !580
  %0 = bitcast float** %m.addr to i8*, !dbg !599
  %1 = call i32 @cudaSetupArgument(i8* %0, i64 8, i64 0), !dbg !599
  %2 = icmp eq i32 %1, 0, !dbg !599
  br i1 %2, label %setup.next, label %setup.end, !dbg !599

setup.next:                                       ; preds = %entry
  %3 = bitcast i32* %matrix_dim.addr to i8*, !dbg !600
  %4 = call i32 @cudaSetupArgument(i8* %3, i64 4, i64 8), !dbg !600
  %5 = icmp eq i32 %4, 0, !dbg !600
  br i1 %5, label %setup.next1, label %setup.end, !dbg !600

setup.next1:                                      ; preds = %setup.next
  %6 = bitcast i32* %offset.addr to i8*, !dbg !602
  %7 = call i32 @cudaSetupArgument(i8* %6, i64 4, i64 12), !dbg !602
  %8 = icmp eq i32 %7, 0, !dbg !602
  br i1 %8, label %setup.next2, label %setup.end, !dbg !602

setup.next2:                                      ; preds = %setup.next1
  %9 = call i32 @cudaLaunch(i8* bitcast (void (float*, i32, i32)* @_Z13lud_perimeterPfii to i8*)), !dbg !604
  br label %setup.end, !dbg !604

setup.end:                                        ; preds = %setup.next2, %setup.next1, %setup.next, %entry
  ret void, !dbg !606
}

; Function Attrs: uwtable
define void @_Z12lud_internalPfii(float* %m, i32 %matrix_dim, i32 %offset) #0 !dbg !607 {
entry:
  %m.addr = alloca float*, align 8
  %matrix_dim.addr = alloca i32, align 4
  %offset.addr = alloca i32, align 4
  tail call void @llvm.dbg.value(metadata float* %m, i64 0, metadata !609, metadata !573), !dbg !612
  store float* %m, float** %m.addr, align 8, !tbaa !575
  tail call void @llvm.dbg.value(metadata i32 %matrix_dim, i64 0, metadata !610, metadata !573), !dbg !613
  store i32 %matrix_dim, i32* %matrix_dim.addr, align 4, !tbaa !580
  tail call void @llvm.dbg.value(metadata i32 %offset, i64 0, metadata !611, metadata !573), !dbg !614
  store i32 %offset, i32* %offset.addr, align 4, !tbaa !580
  %0 = bitcast float** %m.addr to i8*, !dbg !615
  %1 = call i32 @cudaSetupArgument(i8* %0, i64 8, i64 0), !dbg !615
  %2 = icmp eq i32 %1, 0, !dbg !615
  br i1 %2, label %setup.next, label %setup.end, !dbg !615

setup.next:                                       ; preds = %entry
  %3 = bitcast i32* %matrix_dim.addr to i8*, !dbg !616
  %4 = call i32 @cudaSetupArgument(i8* %3, i64 4, i64 8), !dbg !616
  %5 = icmp eq i32 %4, 0, !dbg !616
  br i1 %5, label %setup.next1, label %setup.end, !dbg !616

setup.next1:                                      ; preds = %setup.next
  %6 = bitcast i32* %offset.addr to i8*, !dbg !618
  %7 = call i32 @cudaSetupArgument(i8* %6, i64 4, i64 12), !dbg !618
  %8 = icmp eq i32 %7, 0, !dbg !618
  br i1 %8, label %setup.next2, label %setup.end, !dbg !618

setup.next2:                                      ; preds = %setup.next1
  %9 = call i32 @cudaLaunch(i8* bitcast (void (float*, i32, i32)* @_Z12lud_internalPfii to i8*)), !dbg !620
  br label %setup.end, !dbg !620

setup.end:                                        ; preds = %setup.next2, %setup.next1, %setup.next, %entry
  ret void, !dbg !622
}

; Function Attrs: uwtable
define void @_Z8lud_cudaPfi(float* %m, i32 %matrix_dim) local_unnamed_addr #0 !dbg !623 {
entry:
  %m.addr.i91 = alloca float*, align 8
  %matrix_dim.addr.i92 = alloca i32, align 4
  %offset.addr.i93 = alloca i32, align 4
  %m.addr.i82 = alloca float*, align 8
  %matrix_dim.addr.i83 = alloca i32, align 4
  %offset.addr.i84 = alloca i32, align 4
  %m.addr.i69 = alloca float*, align 8
  %matrix_dim.addr.i70 = alloca i32, align 4
  %offset.addr.i71 = alloca i32, align 4
  %m.addr.i = alloca float*, align 8
  %matrix_dim.addr.i = alloca i32, align 4
  %offset.addr.i = alloca i32, align 4
  tail call void @llvm.dbg.value(metadata float* %m, i64 0, metadata !627, metadata !573), !dbg !659
  tail call void @llvm.dbg.value(metadata i32 %matrix_dim, i64 0, metadata !628, metadata !573), !dbg !660
  tail call void @llvm.dbg.value(metadata i32 0, i64 0, metadata !629, metadata !573), !dbg !661
  tail call void @llvm.dbg.value(metadata %struct.dim3* undef, i64 0, metadata !630, metadata !662), !dbg !663
  tail call void @llvm.dbg.value(metadata %struct.dim3* undef, i64 0, metadata !664, metadata !573), !dbg !671
  tail call void @llvm.dbg.value(metadata i32 16, i64 0, metadata !667, metadata !573), !dbg !673
  tail call void @llvm.dbg.value(metadata i32 16, i64 0, metadata !668, metadata !573), !dbg !674
  tail call void @llvm.dbg.value(metadata i32 1, i64 0, metadata !669, metadata !573), !dbg !675
  call void @llvm.dbg.value(metadata i32 0, i64 0, metadata !629, metadata !573), !dbg !661
  %sub = add nsw i32 %matrix_dim, -16, !dbg !676
  %cmp111 = icmp sgt i32 %matrix_dim, 16, !dbg !678
  tail call void @llvm.dbg.value(metadata %struct.dim3* undef, i64 0, metadata !664, metadata !573), !dbg !679
  tail call void @llvm.dbg.value(metadata i32 1, i64 0, metadata !667, metadata !573), !dbg !681
  tail call void @llvm.dbg.value(metadata i32 1, i64 0, metadata !668, metadata !573), !dbg !682
  tail call void @llvm.dbg.value(metadata i32 1, i64 0, metadata !669, metadata !573), !dbg !683
  tail call void @llvm.dbg.value(metadata %struct.dim3* undef, i64 0, metadata !664, metadata !573), !dbg !684
  tail call void @llvm.dbg.value(metadata i32 16, i64 0, metadata !667, metadata !573), !dbg !687
  tail call void @llvm.dbg.value(metadata i32 1, i64 0, metadata !668, metadata !573), !dbg !688
  tail call void @llvm.dbg.value(metadata i32 1, i64 0, metadata !669, metadata !573), !dbg !689
  %call3112 = call i32 @cudaConfigureCall(i64 4294967297, i32 1, i64 4294967312, i32 1, i64 0, %struct.CUstream_st* null), !dbg !690
  %tobool113 = icmp eq i32 %call3112, 0, !dbg !692
  br i1 %cmp111, label %for.body.lr.ph, label %for.end, !dbg !693

for.body.lr.ph:                                   ; preds = %entry
  %0 = bitcast float** %m.addr.i69 to i8*, !dbg !694
  %1 = bitcast i32* %matrix_dim.addr.i70 to i8*, !dbg !694
  %2 = bitcast i32* %offset.addr.i71 to i8*, !dbg !694
  %3 = bitcast float** %m.addr.i82 to i8*, !dbg !697
  %4 = bitcast i32* %matrix_dim.addr.i83 to i8*, !dbg !697
  %5 = bitcast i32* %offset.addr.i84 to i8*, !dbg !697
  %6 = bitcast float** %m.addr.i91 to i8*, !dbg !699
  %7 = bitcast i32* %matrix_dim.addr.i92 to i8*, !dbg !699
  %8 = bitcast i32* %offset.addr.i93 to i8*, !dbg !699
  br label %for.body, !dbg !693

for.body:                                         ; preds = %for.body.lr.ph, %kcall.end23
  %tobool115 = phi i1 [ %tobool113, %for.body.lr.ph ], [ %tobool, %kcall.end23 ]
  %add.sink114 = phi i32 [ 0, %for.body.lr.ph ], [ %add, %kcall.end23 ]
  br i1 %tobool115, label %kcall.configok, label %kcall.end, !dbg !701

kcall.configok:                                   ; preds = %for.body
  call void @llvm.lifetime.start(i64 8, i8* %0), !dbg !694
  call void @llvm.lifetime.start(i64 4, i8* %1), !dbg !694
  call void @llvm.lifetime.start(i64 4, i8* %2), !dbg !694
  call void @llvm.dbg.value(metadata float* %m, i64 0, metadata !570, metadata !573), !dbg !694
  store float* %m, float** %m.addr.i69, align 8, !dbg !702, !tbaa !575
  call void @llvm.dbg.value(metadata i32 %matrix_dim, i64 0, metadata !571, metadata !573), !dbg !703
  store i32 %matrix_dim, i32* %matrix_dim.addr.i70, align 4, !dbg !702, !tbaa !580
  call void @llvm.dbg.value(metadata i32 %add.sink114, i64 0, metadata !572, metadata !573), !dbg !704
  store i32 %add.sink114, i32* %offset.addr.i71, align 4, !dbg !702, !tbaa !580
  %9 = call i32 @cudaSetupArgument(i8* %0, i64 8, i64 0), !dbg !705
  %10 = icmp eq i32 %9, 0, !dbg !705
  br i1 %10, label %setup.next.i72, label %_Z12lud_diagonalPfii.exit75, !dbg !705

setup.next.i72:                                   ; preds = %kcall.configok
  %11 = call i32 @cudaSetupArgument(i8* nonnull %1, i64 4, i64 8), !dbg !706
  %12 = icmp eq i32 %11, 0, !dbg !706
  br i1 %12, label %setup.next1.i73, label %_Z12lud_diagonalPfii.exit75, !dbg !706

setup.next1.i73:                                  ; preds = %setup.next.i72
  %13 = call i32 @cudaSetupArgument(i8* nonnull %2, i64 4, i64 12), !dbg !707
  %14 = icmp eq i32 %13, 0, !dbg !707
  br i1 %14, label %setup.next2.i74, label %_Z12lud_diagonalPfii.exit75, !dbg !707

setup.next2.i74:                                  ; preds = %setup.next1.i73
  %15 = call i32 @cudaLaunch(i8* bitcast (void (float*, i32, i32)* @_Z12lud_diagonalPfii to i8*)), !dbg !708
  br label %_Z12lud_diagonalPfii.exit75, !dbg !708

_Z12lud_diagonalPfii.exit75:                      ; preds = %kcall.configok, %setup.next.i72, %setup.next1.i73, %setup.next2.i74
  call void @llvm.lifetime.end(i64 8, i8* nonnull %0), !dbg !709
  call void @llvm.lifetime.end(i64 4, i8* nonnull %1), !dbg !709
  call void @llvm.lifetime.end(i64 4, i8* nonnull %2), !dbg !709
  br label %kcall.end, !dbg !702

kcall.end:                                        ; preds = %for.body, %_Z12lud_diagonalPfii.exit75
  %sub5 = sub nsw i32 %matrix_dim, %add.sink114, !dbg !710
  %div = sdiv i32 %sub5, 16, !dbg !711
  %sub6 = add nsw i32 %div, -1, !dbg !712
  tail call void @llvm.dbg.value(metadata %struct.dim3* undef, i64 0, metadata !664, metadata !573), !dbg !713
  tail call void @llvm.dbg.value(metadata i32 %sub6, i64 0, metadata !667, metadata !573), !dbg !715
  tail call void @llvm.dbg.value(metadata i32 1, i64 0, metadata !668, metadata !573), !dbg !716
  tail call void @llvm.dbg.value(metadata i32 1, i64 0, metadata !669, metadata !573), !dbg !717
  %agg.tmp4.sroa.0.0.insert.ext = zext i32 %sub6 to i64, !dbg !718
  %agg.tmp4.sroa.0.4.insert.insert = or i64 %agg.tmp4.sroa.0.0.insert.ext, 4294967296, !dbg !719
  tail call void @llvm.dbg.value(metadata %struct.dim3* undef, i64 0, metadata !664, metadata !573), !dbg !720
  tail call void @llvm.dbg.value(metadata i32 32, i64 0, metadata !667, metadata !573), !dbg !722
  tail call void @llvm.dbg.value(metadata i32 1, i64 0, metadata !668, metadata !573), !dbg !723
  tail call void @llvm.dbg.value(metadata i32 1, i64 0, metadata !669, metadata !573), !dbg !724
  %call8 = call i32 @cudaConfigureCall(i64 %agg.tmp4.sroa.0.4.insert.insert, i32 1, i64 4294967328, i32 1, i64 0, %struct.CUstream_st* null), !dbg !725
  %tobool9 = icmp eq i32 %call8, 0, !dbg !726
  br i1 %tobool9, label %kcall.configok10, label %kcall.end11, !dbg !727

kcall.configok10:                                 ; preds = %kcall.end
  call void @llvm.lifetime.start(i64 8, i8* %3), !dbg !697
  call void @llvm.lifetime.start(i64 4, i8* %4), !dbg !697
  call void @llvm.lifetime.start(i64 4, i8* %5), !dbg !697
  call void @llvm.dbg.value(metadata float* %m, i64 0, metadata !593, metadata !573), !dbg !697
  store float* %m, float** %m.addr.i82, align 8, !dbg !728, !tbaa !575
  call void @llvm.dbg.value(metadata i32 %matrix_dim, i64 0, metadata !594, metadata !573), !dbg !729
  store i32 %matrix_dim, i32* %matrix_dim.addr.i83, align 4, !dbg !728, !tbaa !580
  call void @llvm.dbg.value(metadata i32 %add.sink114, i64 0, metadata !595, metadata !573), !dbg !730
  store i32 %add.sink114, i32* %offset.addr.i84, align 4, !dbg !728, !tbaa !580
  %16 = call i32 @cudaSetupArgument(i8* %3, i64 8, i64 0), !dbg !731
  %17 = icmp eq i32 %16, 0, !dbg !731
  br i1 %17, label %setup.next.i85, label %_Z13lud_perimeterPfii.exit, !dbg !731

setup.next.i85:                                   ; preds = %kcall.configok10
  %18 = call i32 @cudaSetupArgument(i8* nonnull %4, i64 4, i64 8), !dbg !732
  %19 = icmp eq i32 %18, 0, !dbg !732
  br i1 %19, label %setup.next1.i86, label %_Z13lud_perimeterPfii.exit, !dbg !732

setup.next1.i86:                                  ; preds = %setup.next.i85
  %20 = call i32 @cudaSetupArgument(i8* nonnull %5, i64 4, i64 12), !dbg !733
  %21 = icmp eq i32 %20, 0, !dbg !733
  br i1 %21, label %setup.next2.i87, label %_Z13lud_perimeterPfii.exit, !dbg !733

setup.next2.i87:                                  ; preds = %setup.next1.i86
  %22 = call i32 @cudaLaunch(i8* bitcast (void (float*, i32, i32)* @_Z13lud_perimeterPfii to i8*)), !dbg !734
  br label %_Z13lud_perimeterPfii.exit, !dbg !734

_Z13lud_perimeterPfii.exit:                       ; preds = %kcall.configok10, %setup.next.i85, %setup.next1.i86, %setup.next2.i87
  call void @llvm.lifetime.end(i64 8, i8* nonnull %3), !dbg !735
  call void @llvm.lifetime.end(i64 4, i8* nonnull %4), !dbg !735
  call void @llvm.lifetime.end(i64 4, i8* nonnull %5), !dbg !735
  br label %kcall.end11, !dbg !728

kcall.end11:                                      ; preds = %kcall.end, %_Z13lud_perimeterPfii.exit
  call void @llvm.dbg.value(metadata %struct.dim3* undef, i64 0, metadata !655, metadata !662), !dbg !736
  tail call void @llvm.dbg.value(metadata %struct.dim3* undef, i64 0, metadata !664, metadata !573), !dbg !737
  tail call void @llvm.dbg.value(metadata i32 %sub6, i64 0, metadata !667, metadata !573), !dbg !739
  tail call void @llvm.dbg.value(metadata i32 %sub6, i64 0, metadata !668, metadata !573), !dbg !740
  tail call void @llvm.dbg.value(metadata i32 1, i64 0, metadata !669, metadata !573), !dbg !741
  %dimGrid.sroa.0.sroa.4.0.insert.shift = shl nuw i64 %agg.tmp4.sroa.0.0.insert.ext, 32, !dbg !742
  %dimGrid.sroa.0.sroa.0.0.insert.insert = or i64 %dimGrid.sroa.0.sroa.4.0.insert.shift, %agg.tmp4.sroa.0.0.insert.ext, !dbg !742
  %call20 = call i32 @cudaConfigureCall(i64 %dimGrid.sroa.0.sroa.0.0.insert.insert, i32 1, i64 68719476752, i32 1, i64 0, %struct.CUstream_st* null), !dbg !743
  %tobool21 = icmp eq i32 %call20, 0, !dbg !743
  br i1 %tobool21, label %kcall.configok22, label %kcall.end23, !dbg !744

kcall.configok22:                                 ; preds = %kcall.end11
  call void @llvm.lifetime.start(i64 8, i8* %6), !dbg !699
  call void @llvm.lifetime.start(i64 4, i8* %7), !dbg !699
  call void @llvm.lifetime.start(i64 4, i8* %8), !dbg !699
  call void @llvm.dbg.value(metadata float* %m, i64 0, metadata !609, metadata !573), !dbg !699
  store float* %m, float** %m.addr.i91, align 8, !dbg !745, !tbaa !575
  call void @llvm.dbg.value(metadata i32 %matrix_dim, i64 0, metadata !610, metadata !573), !dbg !746
  store i32 %matrix_dim, i32* %matrix_dim.addr.i92, align 4, !dbg !745, !tbaa !580
  call void @llvm.dbg.value(metadata i32 %add.sink114, i64 0, metadata !611, metadata !573), !dbg !747
  store i32 %add.sink114, i32* %offset.addr.i93, align 4, !dbg !745, !tbaa !580
  %23 = call i32 @cudaSetupArgument(i8* %6, i64 8, i64 0), !dbg !748
  %24 = icmp eq i32 %23, 0, !dbg !748
  br i1 %24, label %setup.next.i94, label %_Z12lud_internalPfii.exit, !dbg !748

setup.next.i94:                                   ; preds = %kcall.configok22
  %25 = call i32 @cudaSetupArgument(i8* nonnull %7, i64 4, i64 8), !dbg !749
  %26 = icmp eq i32 %25, 0, !dbg !749
  br i1 %26, label %setup.next1.i95, label %_Z12lud_internalPfii.exit, !dbg !749

setup.next1.i95:                                  ; preds = %setup.next.i94
  %27 = call i32 @cudaSetupArgument(i8* nonnull %8, i64 4, i64 12), !dbg !750
  %28 = icmp eq i32 %27, 0, !dbg !750
  br i1 %28, label %setup.next2.i96, label %_Z12lud_internalPfii.exit, !dbg !750

setup.next2.i96:                                  ; preds = %setup.next1.i95
  %29 = call i32 @cudaLaunch(i8* bitcast (void (float*, i32, i32)* @_Z12lud_internalPfii to i8*)), !dbg !751
  br label %_Z12lud_internalPfii.exit, !dbg !751

_Z12lud_internalPfii.exit:                        ; preds = %kcall.configok22, %setup.next.i94, %setup.next1.i95, %setup.next2.i96
  call void @llvm.lifetime.end(i64 8, i8* nonnull %6), !dbg !752
  call void @llvm.lifetime.end(i64 4, i8* nonnull %7), !dbg !752
  call void @llvm.lifetime.end(i64 4, i8* nonnull %8), !dbg !752
  br label %kcall.end23, !dbg !745

kcall.end23:                                      ; preds = %kcall.end11, %_Z12lud_internalPfii.exit
  %add = add nuw nsw i32 %add.sink114, 16, !dbg !753
  call void @llvm.dbg.value(metadata i32 %add, i64 0, metadata !629, metadata !573), !dbg !661
  %cmp = icmp slt i32 %add, %sub, !dbg !678
  tail call void @llvm.dbg.value(metadata %struct.dim3* undef, i64 0, metadata !664, metadata !573), !dbg !679
  tail call void @llvm.dbg.value(metadata i32 1, i64 0, metadata !667, metadata !573), !dbg !681
  tail call void @llvm.dbg.value(metadata i32 1, i64 0, metadata !668, metadata !573), !dbg !682
  tail call void @llvm.dbg.value(metadata i32 1, i64 0, metadata !669, metadata !573), !dbg !683
  tail call void @llvm.dbg.value(metadata %struct.dim3* undef, i64 0, metadata !664, metadata !573), !dbg !684
  tail call void @llvm.dbg.value(metadata i32 16, i64 0, metadata !667, metadata !573), !dbg !687
  tail call void @llvm.dbg.value(metadata i32 1, i64 0, metadata !668, metadata !573), !dbg !688
  tail call void @llvm.dbg.value(metadata i32 1, i64 0, metadata !669, metadata !573), !dbg !689
  %call3 = call i32 @cudaConfigureCall(i64 4294967297, i32 1, i64 4294967312, i32 1, i64 0, %struct.CUstream_st* null), !dbg !690
  %tobool = icmp eq i32 %call3, 0, !dbg !692
  br i1 %cmp, label %for.body, label %for.end.loopexit, !dbg !693, !llvm.loop !755

for.end.loopexit:                                 ; preds = %kcall.end23
  br label %for.end, !dbg !757

for.end:                                          ; preds = %for.end.loopexit, %entry
  %add.sink.lcssa = phi i32 [ 0, %entry ], [ %add, %for.end.loopexit ]
  %tobool.lcssa = phi i1 [ %tobool113, %entry ], [ %tobool, %for.end.loopexit ]
  br i1 %tobool.lcssa, label %kcall.configok28, label %kcall.end29, !dbg !757

kcall.configok28:                                 ; preds = %for.end
  %30 = bitcast float** %m.addr.i to i8*, !dbg !758
  call void @llvm.lifetime.start(i64 8, i8* %30), !dbg !758
  %31 = bitcast i32* %matrix_dim.addr.i to i8*, !dbg !758
  call void @llvm.lifetime.start(i64 4, i8* %31), !dbg !758
  %32 = bitcast i32* %offset.addr.i to i8*, !dbg !758
  call void @llvm.lifetime.start(i64 4, i8* %32), !dbg !758
  call void @llvm.dbg.value(metadata float* %m, i64 0, metadata !570, metadata !573), !dbg !758
  store float* %m, float** %m.addr.i, align 8, !dbg !761, !tbaa !575
  call void @llvm.dbg.value(metadata i32 %matrix_dim, i64 0, metadata !571, metadata !573), !dbg !762
  store i32 %matrix_dim, i32* %matrix_dim.addr.i, align 4, !dbg !761, !tbaa !580
  call void @llvm.dbg.value(metadata i32 undef, i64 0, metadata !572, metadata !573), !dbg !763
  store i32 %add.sink.lcssa, i32* %offset.addr.i, align 4, !dbg !761, !tbaa !580
  %33 = call i32 @cudaSetupArgument(i8* %30, i64 8, i64 0), !dbg !764
  %34 = icmp eq i32 %33, 0, !dbg !764
  br i1 %34, label %setup.next.i, label %_Z12lud_diagonalPfii.exit, !dbg !764

setup.next.i:                                     ; preds = %kcall.configok28
  %35 = call i32 @cudaSetupArgument(i8* %31, i64 4, i64 8), !dbg !765
  %36 = icmp eq i32 %35, 0, !dbg !765
  br i1 %36, label %setup.next1.i, label %_Z12lud_diagonalPfii.exit, !dbg !765

setup.next1.i:                                    ; preds = %setup.next.i
  %37 = call i32 @cudaSetupArgument(i8* %32, i64 4, i64 12), !dbg !766
  %38 = icmp eq i32 %37, 0, !dbg !766
  br i1 %38, label %setup.next2.i, label %_Z12lud_diagonalPfii.exit, !dbg !766

setup.next2.i:                                    ; preds = %setup.next1.i
  %39 = call i32 @cudaLaunch(i8* bitcast (void (float*, i32, i32)* @_Z12lud_diagonalPfii to i8*)), !dbg !767
  br label %_Z12lud_diagonalPfii.exit, !dbg !767

_Z12lud_diagonalPfii.exit:                        ; preds = %kcall.configok28, %setup.next.i, %setup.next1.i, %setup.next2.i
  call void @llvm.lifetime.end(i64 8, i8* %30), !dbg !768
  call void @llvm.lifetime.end(i64 4, i8* %31), !dbg !768
  call void @llvm.lifetime.end(i64 4, i8* %32), !dbg !768
  br label %kcall.end29, !dbg !761

kcall.end29:                                      ; preds = %for.end, %_Z12lud_diagonalPfii.exit
  ret void, !dbg !769
}

; Function Attrs: argmemonly nounwind
declare void @llvm.lifetime.start(i64, i8* nocapture) #1

declare i32 @cudaConfigureCall(i64, i32, i64, i32, i64, %struct.CUstream_st*) local_unnamed_addr #2

; Function Attrs: argmemonly nounwind
declare void @llvm.lifetime.end(i64, i8* nocapture) #1

; Function Attrs: nounwind readnone
declare void @llvm.dbg.value(metadata, i64, metadata, metadata) #3

attributes #0 = { uwtable "correctly-rounded-divide-sqrt-fp-math"="false" "disable-tail-calls"="false" "less-precise-fpmad"="false" "no-frame-pointer-elim"="false" "no-infs-fp-math"="false" "no-jump-tables"="false" "no-nans-fp-math"="false" "no-signed-zeros-fp-math"="false" "stack-protector-buffer-size"="8" "target-cpu"="x86-64" "target-features"="+fxsr,+mmx,+sse,+sse2,+x87" "unsafe-fp-math"="false" "use-soft-float"="false" }
attributes #1 = { argmemonly nounwind }
attributes #2 = { "correctly-rounded-divide-sqrt-fp-math"="false" "disable-tail-calls"="false" "less-precise-fpmad"="false" "no-frame-pointer-elim"="false" "no-infs-fp-math"="false" "no-nans-fp-math"="false" "no-signed-zeros-fp-math"="false" "stack-protector-buffer-size"="8" "target-cpu"="x86-64" "target-features"="+fxsr,+mmx,+sse,+sse2,+x87" "unsafe-fp-math"="false" "use-soft-float"="false" }
attributes #3 = { nounwind readnone }

!llvm.dbg.cu = !{!0}
!llvm.module.flags = !{!563, !564}
!llvm.ident = !{!565}

!0 = distinct !DICompileUnit(language: DW_LANG_C_plus_plus, file: !1, producer: "clang version 4.0.0 (trunk 279478) (llvm/trunk 279476)", isOptimized: true, runtimeVersion: 0, emissionKind: FullDebug, enums: !2, retainedTypes: !3, imports: !6)
!1 = !DIFile(filename: "Results/lud/cuda/lud_kernel.cu", directory: "/home/ec2-user/DynamicAnalyis")
!2 = !{}
!3 = !{!4}
!4 = !DIDerivedType(tag: DW_TAG_pointer_type, baseType: !5, size: 64, align: 64)
!5 = !DIBasicType(name: "float", size: 32, align: 32, encoding: DW_ATE_float)
!6 = !{!7, !14, !18, !20, !22, !24, !26, !30, !32, !34, !36, !38, !40, !42, !44, !46, !48, !50, !52, !54, !56, !58, !62, !64, !66, !68, !73, !78, !80, !82, !87, !91, !93, !95, !97, !99, !101, !103, !105, !107, !112, !116, !118, !120, !124, !126, !128, !130, !132, !134, !138, !140, !142, !146, !154, !158, !160, !162, !166, !168, !170, !174, !176, !178, !182, !184, !186, !188, !190, !192, !194, !196, !198, !200, !205, !207, !209, !213, !215, !217, !219, !221, !223, !225, !227, !231, !235, !237, !239, !244, !246, !248, !250, !252, !254, !256, !260, !266, !270, !274, !279, !282, !286, !290, !304, !308, !312, !316, !320, !325, !327, !331, !335, !339, !347, !351, !355, !359, !363, !368, !374, !378, !382, !384, !392, !396, !404, !406, !408, !412, !416, !420, !425, !429, !434, !435, !436, !437, !440, !441, !442, !443, !444, !445, !446, !449, !451, !453, !455, !457, !459, !461, !463, !466, !468, !470, !472, !474, !476, !478, !480, !482, !484, !486, !488, !490, !492, !494, !496, !498, !500, !502, !504, !506, !508, !510, !512, !514, !516, !518, !520, !522, !524, !526, !528, !530, !534, !535, !537, !539, !541, !543, !545, !547, !549, !551, !553, !555, !557, !559, !561}
!7 = !DIImportedEntity(tag: DW_TAG_imported_declaration, scope: !8, entity: !10, line: 189)
!8 = !DINamespace(name: "std", scope: null, file: !9, line: 188)
!9 = !DIFile(filename: "/usr/local/bin/../lib/clang/4.0.0/include/__clang_cuda_math_forward_declares.h", directory: "/home/ec2-user/DynamicAnalyis")
!10 = !DISubprogram(name: "abs", linkageName: "_ZL3absx", scope: !9, file: !9, line: 44, type: !11, isLocal: true, isDefinition: false, flags: DIFlagPrototyped, isOptimized: true)
!11 = !DISubroutineType(types: !12)
!12 = !{!13, !13}
!13 = !DIBasicType(name: "long long int", size: 64, align: 64, encoding: DW_ATE_signed)
!14 = !DIImportedEntity(tag: DW_TAG_imported_declaration, scope: !8, entity: !15, line: 190)
!15 = !DISubprogram(name: "acos", linkageName: "_ZL4acosf", scope: !9, file: !9, line: 46, type: !16, isLocal: true, isDefinition: false, flags: DIFlagPrototyped, isOptimized: true)
!16 = !DISubroutineType(types: !17)
!17 = !{!5, !5}
!18 = !DIImportedEntity(tag: DW_TAG_imported_declaration, scope: !8, entity: !19, line: 191)
!19 = !DISubprogram(name: "acosh", linkageName: "_ZL5acoshf", scope: !9, file: !9, line: 48, type: !16, isLocal: true, isDefinition: false, flags: DIFlagPrototyped, isOptimized: true)
!20 = !DIImportedEntity(tag: DW_TAG_imported_declaration, scope: !8, entity: !21, line: 192)
!21 = !DISubprogram(name: "asin", linkageName: "_ZL4asinf", scope: !9, file: !9, line: 50, type: !16, isLocal: true, isDefinition: false, flags: DIFlagPrototyped, isOptimized: true)
!22 = !DIImportedEntity(tag: DW_TAG_imported_declaration, scope: !8, entity: !23, line: 193)
!23 = !DISubprogram(name: "asinh", linkageName: "_ZL5asinhf", scope: !9, file: !9, line: 52, type: !16, isLocal: true, isDefinition: false, flags: DIFlagPrototyped, isOptimized: true)
!24 = !DIImportedEntity(tag: DW_TAG_imported_declaration, scope: !8, entity: !25, line: 194)
!25 = !DISubprogram(name: "atan", linkageName: "_ZL4atanf", scope: !9, file: !9, line: 56, type: !16, isLocal: true, isDefinition: false, flags: DIFlagPrototyped, isOptimized: true)
!26 = !DIImportedEntity(tag: DW_TAG_imported_declaration, scope: !8, entity: !27, line: 195)
!27 = !DISubprogram(name: "atan2", linkageName: "_ZL5atan2ff", scope: !9, file: !9, line: 54, type: !28, isLocal: true, isDefinition: false, flags: DIFlagPrototyped, isOptimized: true)
!28 = !DISubroutineType(types: !29)
!29 = !{!5, !5, !5}
!30 = !DIImportedEntity(tag: DW_TAG_imported_declaration, scope: !8, entity: !31, line: 196)
!31 = !DISubprogram(name: "atanh", linkageName: "_ZL5atanhf", scope: !9, file: !9, line: 58, type: !16, isLocal: true, isDefinition: false, flags: DIFlagPrototyped, isOptimized: true)
!32 = !DIImportedEntity(tag: DW_TAG_imported_declaration, scope: !8, entity: !33, line: 197)
!33 = !DISubprogram(name: "cbrt", linkageName: "_ZL4cbrtf", scope: !9, file: !9, line: 60, type: !16, isLocal: true, isDefinition: false, flags: DIFlagPrototyped, isOptimized: true)
!34 = !DIImportedEntity(tag: DW_TAG_imported_declaration, scope: !8, entity: !35, line: 198)
!35 = !DISubprogram(name: "ceil", linkageName: "_ZL4ceilf", scope: !9, file: !9, line: 62, type: !16, isLocal: true, isDefinition: false, flags: DIFlagPrototyped, isOptimized: true)
!36 = !DIImportedEntity(tag: DW_TAG_imported_declaration, scope: !8, entity: !37, line: 199)
!37 = !DISubprogram(name: "copysign", linkageName: "_ZL8copysignff", scope: !9, file: !9, line: 64, type: !28, isLocal: true, isDefinition: false, flags: DIFlagPrototyped, isOptimized: true)
!38 = !DIImportedEntity(tag: DW_TAG_imported_declaration, scope: !8, entity: !39, line: 200)
!39 = !DISubprogram(name: "cos", linkageName: "_ZL3cosf", scope: !9, file: !9, line: 66, type: !16, isLocal: true, isDefinition: false, flags: DIFlagPrototyped, isOptimized: true)
!40 = !DIImportedEntity(tag: DW_TAG_imported_declaration, scope: !8, entity: !41, line: 201)
!41 = !DISubprogram(name: "cosh", linkageName: "_ZL4coshf", scope: !9, file: !9, line: 68, type: !16, isLocal: true, isDefinition: false, flags: DIFlagPrototyped, isOptimized: true)
!42 = !DIImportedEntity(tag: DW_TAG_imported_declaration, scope: !8, entity: !43, line: 202)
!43 = !DISubprogram(name: "erf", linkageName: "_ZL3erff", scope: !9, file: !9, line: 72, type: !16, isLocal: true, isDefinition: false, flags: DIFlagPrototyped, isOptimized: true)
!44 = !DIImportedEntity(tag: DW_TAG_imported_declaration, scope: !8, entity: !45, line: 203)
!45 = !DISubprogram(name: "erfc", linkageName: "_ZL4erfcf", scope: !9, file: !9, line: 70, type: !16, isLocal: true, isDefinition: false, flags: DIFlagPrototyped, isOptimized: true)
!46 = !DIImportedEntity(tag: DW_TAG_imported_declaration, scope: !8, entity: !47, line: 204)
!47 = !DISubprogram(name: "exp", linkageName: "_ZL3expf", scope: !9, file: !9, line: 76, type: !16, isLocal: true, isDefinition: false, flags: DIFlagPrototyped, isOptimized: true)
!48 = !DIImportedEntity(tag: DW_TAG_imported_declaration, scope: !8, entity: !49, line: 205)
!49 = !DISubprogram(name: "exp2", linkageName: "_ZL4exp2f", scope: !9, file: !9, line: 74, type: !16, isLocal: true, isDefinition: false, flags: DIFlagPrototyped, isOptimized: true)
!50 = !DIImportedEntity(tag: DW_TAG_imported_declaration, scope: !8, entity: !51, line: 206)
!51 = !DISubprogram(name: "expm1", linkageName: "_ZL5expm1f", scope: !9, file: !9, line: 78, type: !16, isLocal: true, isDefinition: false, flags: DIFlagPrototyped, isOptimized: true)
!52 = !DIImportedEntity(tag: DW_TAG_imported_declaration, scope: !8, entity: !53, line: 207)
!53 = !DISubprogram(name: "fabs", linkageName: "_ZL4fabsf", scope: !9, file: !9, line: 80, type: !16, isLocal: true, isDefinition: false, flags: DIFlagPrototyped, isOptimized: true)
!54 = !DIImportedEntity(tag: DW_TAG_imported_declaration, scope: !8, entity: !55, line: 208)
!55 = !DISubprogram(name: "fdim", linkageName: "_ZL4fdimff", scope: !9, file: !9, line: 82, type: !28, isLocal: true, isDefinition: false, flags: DIFlagPrototyped, isOptimized: true)
!56 = !DIImportedEntity(tag: DW_TAG_imported_declaration, scope: !8, entity: !57, line: 209)
!57 = !DISubprogram(name: "floor", linkageName: "_ZL5floorf", scope: !9, file: !9, line: 84, type: !16, isLocal: true, isDefinition: false, flags: DIFlagPrototyped, isOptimized: true)
!58 = !DIImportedEntity(tag: DW_TAG_imported_declaration, scope: !8, entity: !59, line: 210)
!59 = !DISubprogram(name: "fma", linkageName: "_ZL3fmafff", scope: !9, file: !9, line: 86, type: !60, isLocal: true, isDefinition: false, flags: DIFlagPrototyped, isOptimized: true)
!60 = !DISubroutineType(types: !61)
!61 = !{!5, !5, !5, !5}
!62 = !DIImportedEntity(tag: DW_TAG_imported_declaration, scope: !8, entity: !63, line: 211)
!63 = !DISubprogram(name: "fmax", linkageName: "_ZL4fmaxff", scope: !9, file: !9, line: 88, type: !28, isLocal: true, isDefinition: false, flags: DIFlagPrototyped, isOptimized: true)
!64 = !DIImportedEntity(tag: DW_TAG_imported_declaration, scope: !8, entity: !65, line: 212)
!65 = !DISubprogram(name: "fmin", linkageName: "_ZL4fminff", scope: !9, file: !9, line: 90, type: !28, isLocal: true, isDefinition: false, flags: DIFlagPrototyped, isOptimized: true)
!66 = !DIImportedEntity(tag: DW_TAG_imported_declaration, scope: !8, entity: !67, line: 213)
!67 = !DISubprogram(name: "fmod", linkageName: "_ZL4fmodff", scope: !9, file: !9, line: 92, type: !28, isLocal: true, isDefinition: false, flags: DIFlagPrototyped, isOptimized: true)
!68 = !DIImportedEntity(tag: DW_TAG_imported_declaration, scope: !8, entity: !69, line: 214)
!69 = !DISubprogram(name: "fpclassify", linkageName: "_ZL10fpclassifyf", scope: !9, file: !9, line: 94, type: !70, isLocal: true, isDefinition: false, flags: DIFlagPrototyped, isOptimized: true)
!70 = !DISubroutineType(types: !71)
!71 = !{!72, !5}
!72 = !DIBasicType(name: "int", size: 32, align: 32, encoding: DW_ATE_signed)
!73 = !DIImportedEntity(tag: DW_TAG_imported_declaration, scope: !8, entity: !74, line: 215)
!74 = !DISubprogram(name: "frexp", linkageName: "_ZL5frexpfPi", scope: !9, file: !9, line: 96, type: !75, isLocal: true, isDefinition: false, flags: DIFlagPrototyped, isOptimized: true)
!75 = !DISubroutineType(types: !76)
!76 = !{!5, !5, !77}
!77 = !DIDerivedType(tag: DW_TAG_pointer_type, baseType: !72, size: 64, align: 64)
!78 = !DIImportedEntity(tag: DW_TAG_imported_declaration, scope: !8, entity: !79, line: 216)
!79 = !DISubprogram(name: "hypot", linkageName: "_ZL5hypotff", scope: !9, file: !9, line: 98, type: !28, isLocal: true, isDefinition: false, flags: DIFlagPrototyped, isOptimized: true)
!80 = !DIImportedEntity(tag: DW_TAG_imported_declaration, scope: !8, entity: !81, line: 217)
!81 = !DISubprogram(name: "ilogb", linkageName: "_ZL5ilogbf", scope: !9, file: !9, line: 100, type: !70, isLocal: true, isDefinition: false, flags: DIFlagPrototyped, isOptimized: true)
!82 = !DIImportedEntity(tag: DW_TAG_imported_declaration, scope: !8, entity: !83, line: 218)
!83 = !DISubprogram(name: "isfinite", linkageName: "_ZL8isfinitef", scope: !9, file: !9, line: 102, type: !84, isLocal: true, isDefinition: false, flags: DIFlagPrototyped, isOptimized: true)
!84 = !DISubroutineType(types: !85)
!85 = !{!86, !5}
!86 = !DIBasicType(name: "bool", size: 8, align: 8, encoding: DW_ATE_boolean)
!87 = !DIImportedEntity(tag: DW_TAG_imported_declaration, scope: !8, entity: !88, line: 219)
!88 = !DISubprogram(name: "isgreater", linkageName: "_ZL9isgreaterff", scope: !9, file: !9, line: 106, type: !89, isLocal: true, isDefinition: false, flags: DIFlagPrototyped, isOptimized: true)
!89 = !DISubroutineType(types: !90)
!90 = !{!86, !5, !5}
!91 = !DIImportedEntity(tag: DW_TAG_imported_declaration, scope: !8, entity: !92, line: 220)
!92 = !DISubprogram(name: "isgreaterequal", linkageName: "_ZL14isgreaterequalff", scope: !9, file: !9, line: 105, type: !89, isLocal: true, isDefinition: false, flags: DIFlagPrototyped, isOptimized: true)
!93 = !DIImportedEntity(tag: DW_TAG_imported_declaration, scope: !8, entity: !94, line: 221)
!94 = !DISubprogram(name: "isinf", linkageName: "_ZL5isinff", scope: !9, file: !9, line: 108, type: !84, isLocal: true, isDefinition: false, flags: DIFlagPrototyped, isOptimized: true)
!95 = !DIImportedEntity(tag: DW_TAG_imported_declaration, scope: !8, entity: !96, line: 222)
!96 = !DISubprogram(name: "isless", linkageName: "_ZL6islessff", scope: !9, file: !9, line: 112, type: !89, isLocal: true, isDefinition: false, flags: DIFlagPrototyped, isOptimized: true)
!97 = !DIImportedEntity(tag: DW_TAG_imported_declaration, scope: !8, entity: !98, line: 223)
!98 = !DISubprogram(name: "islessequal", linkageName: "_ZL11islessequalff", scope: !9, file: !9, line: 111, type: !89, isLocal: true, isDefinition: false, flags: DIFlagPrototyped, isOptimized: true)
!99 = !DIImportedEntity(tag: DW_TAG_imported_declaration, scope: !8, entity: !100, line: 224)
!100 = !DISubprogram(name: "islessgreater", linkageName: "_ZL13islessgreaterff", scope: !9, file: !9, line: 114, type: !89, isLocal: true, isDefinition: false, flags: DIFlagPrototyped, isOptimized: true)
!101 = !DIImportedEntity(tag: DW_TAG_imported_declaration, scope: !8, entity: !102, line: 225)
!102 = !DISubprogram(name: "isnan", linkageName: "_ZL5isnanf", scope: !9, file: !9, line: 116, type: !84, isLocal: true, isDefinition: false, flags: DIFlagPrototyped, isOptimized: true)
!103 = !DIImportedEntity(tag: DW_TAG_imported_declaration, scope: !8, entity: !104, line: 226)
!104 = !DISubprogram(name: "isnormal", linkageName: "_ZL8isnormalf", scope: !9, file: !9, line: 118, type: !84, isLocal: true, isDefinition: false, flags: DIFlagPrototyped, isOptimized: true)
!105 = !DIImportedEntity(tag: DW_TAG_imported_declaration, scope: !8, entity: !106, line: 227)
!106 = !DISubprogram(name: "isunordered", linkageName: "_ZL11isunorderedff", scope: !9, file: !9, line: 120, type: !89, isLocal: true, isDefinition: false, flags: DIFlagPrototyped, isOptimized: true)
!107 = !DIImportedEntity(tag: DW_TAG_imported_declaration, scope: !8, entity: !108, line: 228)
!108 = !DISubprogram(name: "labs", linkageName: "_ZL4labsl", scope: !9, file: !9, line: 121, type: !109, isLocal: true, isDefinition: false, flags: DIFlagPrototyped, isOptimized: true)
!109 = !DISubroutineType(types: !110)
!110 = !{!111, !111}
!111 = !DIBasicType(name: "long int", size: 64, align: 64, encoding: DW_ATE_signed)
!112 = !DIImportedEntity(tag: DW_TAG_imported_declaration, scope: !8, entity: !113, line: 229)
!113 = !DISubprogram(name: "ldexp", linkageName: "_ZL5ldexpfi", scope: !9, file: !9, line: 123, type: !114, isLocal: true, isDefinition: false, flags: DIFlagPrototyped, isOptimized: true)
!114 = !DISubroutineType(types: !115)
!115 = !{!5, !5, !72}
!116 = !DIImportedEntity(tag: DW_TAG_imported_declaration, scope: !8, entity: !117, line: 230)
!117 = !DISubprogram(name: "lgamma", linkageName: "_ZL6lgammaf", scope: !9, file: !9, line: 125, type: !16, isLocal: true, isDefinition: false, flags: DIFlagPrototyped, isOptimized: true)
!118 = !DIImportedEntity(tag: DW_TAG_imported_declaration, scope: !8, entity: !119, line: 231)
!119 = !DISubprogram(name: "llabs", linkageName: "_ZL5llabsx", scope: !9, file: !9, line: 126, type: !11, isLocal: true, isDefinition: false, flags: DIFlagPrototyped, isOptimized: true)
!120 = !DIImportedEntity(tag: DW_TAG_imported_declaration, scope: !8, entity: !121, line: 232)
!121 = !DISubprogram(name: "llrint", linkageName: "_ZL6llrintf", scope: !9, file: !9, line: 128, type: !122, isLocal: true, isDefinition: false, flags: DIFlagPrototyped, isOptimized: true)
!122 = !DISubroutineType(types: !123)
!123 = !{!13, !5}
!124 = !DIImportedEntity(tag: DW_TAG_imported_declaration, scope: !8, entity: !125, line: 233)
!125 = !DISubprogram(name: "log", linkageName: "_ZL3logf", scope: !9, file: !9, line: 138, type: !16, isLocal: true, isDefinition: false, flags: DIFlagPrototyped, isOptimized: true)
!126 = !DIImportedEntity(tag: DW_TAG_imported_declaration, scope: !8, entity: !127, line: 234)
!127 = !DISubprogram(name: "log10", linkageName: "_ZL5log10f", scope: !9, file: !9, line: 130, type: !16, isLocal: true, isDefinition: false, flags: DIFlagPrototyped, isOptimized: true)
!128 = !DIImportedEntity(tag: DW_TAG_imported_declaration, scope: !8, entity: !129, line: 235)
!129 = !DISubprogram(name: "log1p", linkageName: "_ZL5log1pf", scope: !9, file: !9, line: 132, type: !16, isLocal: true, isDefinition: false, flags: DIFlagPrototyped, isOptimized: true)
!130 = !DIImportedEntity(tag: DW_TAG_imported_declaration, scope: !8, entity: !131, line: 236)
!131 = !DISubprogram(name: "log2", linkageName: "_ZL4log2f", scope: !9, file: !9, line: 134, type: !16, isLocal: true, isDefinition: false, flags: DIFlagPrototyped, isOptimized: true)
!132 = !DIImportedEntity(tag: DW_TAG_imported_declaration, scope: !8, entity: !133, line: 237)
!133 = !DISubprogram(name: "logb", linkageName: "_ZL4logbf", scope: !9, file: !9, line: 136, type: !16, isLocal: true, isDefinition: false, flags: DIFlagPrototyped, isOptimized: true)
!134 = !DIImportedEntity(tag: DW_TAG_imported_declaration, scope: !8, entity: !135, line: 238)
!135 = !DISubprogram(name: "lrint", linkageName: "_ZL5lrintf", scope: !9, file: !9, line: 140, type: !136, isLocal: true, isDefinition: false, flags: DIFlagPrototyped, isOptimized: true)
!136 = !DISubroutineType(types: !137)
!137 = !{!111, !5}
!138 = !DIImportedEntity(tag: DW_TAG_imported_declaration, scope: !8, entity: !139, line: 239)
!139 = !DISubprogram(name: "lround", linkageName: "_ZL6lroundf", scope: !9, file: !9, line: 142, type: !136, isLocal: true, isDefinition: false, flags: DIFlagPrototyped, isOptimized: true)
!140 = !DIImportedEntity(tag: DW_TAG_imported_declaration, scope: !8, entity: !141, line: 240)
!141 = !DISubprogram(name: "llround", linkageName: "_ZL7llroundf", scope: !9, file: !9, line: 143, type: !122, isLocal: true, isDefinition: false, flags: DIFlagPrototyped, isOptimized: true)
!142 = !DIImportedEntity(tag: DW_TAG_imported_declaration, scope: !8, entity: !143, line: 241)
!143 = !DISubprogram(name: "modf", linkageName: "_ZL4modffPf", scope: !9, file: !9, line: 145, type: !144, isLocal: true, isDefinition: false, flags: DIFlagPrototyped, isOptimized: true)
!144 = !DISubroutineType(types: !145)
!145 = !{!5, !5, !4}
!146 = !DIImportedEntity(tag: DW_TAG_imported_declaration, scope: !8, entity: !147, line: 242)
!147 = !DISubprogram(name: "nan", linkageName: "_ZL3nanPKc", scope: !9, file: !9, line: 146, type: !148, isLocal: true, isDefinition: false, flags: DIFlagPrototyped, isOptimized: true)
!148 = !DISubroutineType(types: !149)
!149 = !{!150, !151}
!150 = !DIBasicType(name: "double", size: 64, align: 64, encoding: DW_ATE_float)
!151 = !DIDerivedType(tag: DW_TAG_pointer_type, baseType: !152, size: 64, align: 64)
!152 = !DIDerivedType(tag: DW_TAG_const_type, baseType: !153)
!153 = !DIBasicType(name: "char", size: 8, align: 8, encoding: DW_ATE_signed_char)
!154 = !DIImportedEntity(tag: DW_TAG_imported_declaration, scope: !8, entity: !155, line: 243)
!155 = !DISubprogram(name: "nanf", linkageName: "_ZL4nanfPKc", scope: !9, file: !9, line: 147, type: !156, isLocal: true, isDefinition: false, flags: DIFlagPrototyped, isOptimized: true)
!156 = !DISubroutineType(types: !157)
!157 = !{!5, !151}
!158 = !DIImportedEntity(tag: DW_TAG_imported_declaration, scope: !8, entity: !159, line: 244)
!159 = !DISubprogram(name: "nearbyint", linkageName: "_ZL9nearbyintf", scope: !9, file: !9, line: 149, type: !16, isLocal: true, isDefinition: false, flags: DIFlagPrototyped, isOptimized: true)
!160 = !DIImportedEntity(tag: DW_TAG_imported_declaration, scope: !8, entity: !161, line: 245)
!161 = !DISubprogram(name: "nextafter", linkageName: "_ZL9nextafterff", scope: !9, file: !9, line: 151, type: !28, isLocal: true, isDefinition: false, flags: DIFlagPrototyped, isOptimized: true)
!162 = !DIImportedEntity(tag: DW_TAG_imported_declaration, scope: !8, entity: !163, line: 246)
!163 = !DISubprogram(name: "nexttoward", linkageName: "_ZL10nexttowardfd", scope: !9, file: !9, line: 153, type: !164, isLocal: true, isDefinition: false, flags: DIFlagPrototyped, isOptimized: true)
!164 = !DISubroutineType(types: !165)
!165 = !{!5, !5, !150}
!166 = !DIImportedEntity(tag: DW_TAG_imported_declaration, scope: !8, entity: !167, line: 247)
!167 = !DISubprogram(name: "pow", linkageName: "_ZL3powfi", scope: !9, file: !9, line: 158, type: !114, isLocal: true, isDefinition: false, flags: DIFlagPrototyped, isOptimized: true)
!168 = !DIImportedEntity(tag: DW_TAG_imported_declaration, scope: !8, entity: !169, line: 248)
!169 = !DISubprogram(name: "remainder", linkageName: "_ZL9remainderff", scope: !9, file: !9, line: 160, type: !28, isLocal: true, isDefinition: false, flags: DIFlagPrototyped, isOptimized: true)
!170 = !DIImportedEntity(tag: DW_TAG_imported_declaration, scope: !8, entity: !171, line: 249)
!171 = !DISubprogram(name: "remquo", linkageName: "_ZL6remquoffPi", scope: !9, file: !9, line: 162, type: !172, isLocal: true, isDefinition: false, flags: DIFlagPrototyped, isOptimized: true)
!172 = !DISubroutineType(types: !173)
!173 = !{!5, !5, !5, !77}
!174 = !DIImportedEntity(tag: DW_TAG_imported_declaration, scope: !8, entity: !175, line: 250)
!175 = !DISubprogram(name: "rint", linkageName: "_ZL4rintf", scope: !9, file: !9, line: 164, type: !16, isLocal: true, isDefinition: false, flags: DIFlagPrototyped, isOptimized: true)
!176 = !DIImportedEntity(tag: DW_TAG_imported_declaration, scope: !8, entity: !177, line: 251)
!177 = !DISubprogram(name: "round", linkageName: "_ZL5roundf", scope: !9, file: !9, line: 166, type: !16, isLocal: true, isDefinition: false, flags: DIFlagPrototyped, isOptimized: true)
!178 = !DIImportedEntity(tag: DW_TAG_imported_declaration, scope: !8, entity: !179, line: 252)
!179 = !DISubprogram(name: "scalbln", linkageName: "_ZL7scalblnfl", scope: !9, file: !9, line: 168, type: !180, isLocal: true, isDefinition: false, flags: DIFlagPrototyped, isOptimized: true)
!180 = !DISubroutineType(types: !181)
!181 = !{!5, !5, !111}
!182 = !DIImportedEntity(tag: DW_TAG_imported_declaration, scope: !8, entity: !183, line: 253)
!183 = !DISubprogram(name: "scalbn", linkageName: "_ZL6scalbnfi", scope: !9, file: !9, line: 170, type: !114, isLocal: true, isDefinition: false, flags: DIFlagPrototyped, isOptimized: true)
!184 = !DIImportedEntity(tag: DW_TAG_imported_declaration, scope: !8, entity: !185, line: 254)
!185 = !DISubprogram(name: "signbit", linkageName: "_ZL7signbitf", scope: !9, file: !9, line: 172, type: !84, isLocal: true, isDefinition: false, flags: DIFlagPrototyped, isOptimized: true)
!186 = !DIImportedEntity(tag: DW_TAG_imported_declaration, scope: !8, entity: !187, line: 255)
!187 = !DISubprogram(name: "sin", linkageName: "_ZL3sinf", scope: !9, file: !9, line: 174, type: !16, isLocal: true, isDefinition: false, flags: DIFlagPrototyped, isOptimized: true)
!188 = !DIImportedEntity(tag: DW_TAG_imported_declaration, scope: !8, entity: !189, line: 256)
!189 = !DISubprogram(name: "sinh", linkageName: "_ZL4sinhf", scope: !9, file: !9, line: 176, type: !16, isLocal: true, isDefinition: false, flags: DIFlagPrototyped, isOptimized: true)
!190 = !DIImportedEntity(tag: DW_TAG_imported_declaration, scope: !8, entity: !191, line: 257)
!191 = !DISubprogram(name: "sqrt", linkageName: "_ZL4sqrtf", scope: !9, file: !9, line: 178, type: !16, isLocal: true, isDefinition: false, flags: DIFlagPrototyped, isOptimized: true)
!192 = !DIImportedEntity(tag: DW_TAG_imported_declaration, scope: !8, entity: !193, line: 258)
!193 = !DISubprogram(name: "tan", linkageName: "_ZL3tanf", scope: !9, file: !9, line: 180, type: !16, isLocal: true, isDefinition: false, flags: DIFlagPrototyped, isOptimized: true)
!194 = !DIImportedEntity(tag: DW_TAG_imported_declaration, scope: !8, entity: !195, line: 259)
!195 = !DISubprogram(name: "tanh", linkageName: "_ZL4tanhf", scope: !9, file: !9, line: 182, type: !16, isLocal: true, isDefinition: false, flags: DIFlagPrototyped, isOptimized: true)
!196 = !DIImportedEntity(tag: DW_TAG_imported_declaration, scope: !8, entity: !197, line: 260)
!197 = !DISubprogram(name: "tgamma", linkageName: "_ZL6tgammaf", scope: !9, file: !9, line: 184, type: !16, isLocal: true, isDefinition: false, flags: DIFlagPrototyped, isOptimized: true)
!198 = !DIImportedEntity(tag: DW_TAG_imported_declaration, scope: !8, entity: !199, line: 261)
!199 = !DISubprogram(name: "trunc", linkageName: "_ZL5truncf", scope: !9, file: !9, line: 186, type: !16, isLocal: true, isDefinition: false, flags: DIFlagPrototyped, isOptimized: true)
!200 = !DIImportedEntity(tag: DW_TAG_imported_declaration, scope: !8, entity: !201, line: 102)
!201 = !DISubprogram(name: "acos", scope: !202, file: !202, line: 54, type: !203, isLocal: false, isDefinition: false, flags: DIFlagPrototyped, isOptimized: true)
!202 = !DIFile(filename: "/usr/include/bits/mathcalls.h", directory: "/home/ec2-user/DynamicAnalyis")
!203 = !DISubroutineType(types: !204)
!204 = !{!150, !150}
!205 = !DIImportedEntity(tag: DW_TAG_imported_declaration, scope: !8, entity: !206, line: 121)
!206 = !DISubprogram(name: "asin", scope: !202, file: !202, line: 56, type: !203, isLocal: false, isDefinition: false, flags: DIFlagPrototyped, isOptimized: true)
!207 = !DIImportedEntity(tag: DW_TAG_imported_declaration, scope: !8, entity: !208, line: 140)
!208 = !DISubprogram(name: "atan", scope: !202, file: !202, line: 58, type: !203, isLocal: false, isDefinition: false, flags: DIFlagPrototyped, isOptimized: true)
!209 = !DIImportedEntity(tag: DW_TAG_imported_declaration, scope: !8, entity: !210, line: 159)
!210 = !DISubprogram(name: "atan2", scope: !202, file: !202, line: 60, type: !211, isLocal: false, isDefinition: false, flags: DIFlagPrototyped, isOptimized: true)
!211 = !DISubroutineType(types: !212)
!212 = !{!150, !150, !150}
!213 = !DIImportedEntity(tag: DW_TAG_imported_declaration, scope: !8, entity: !214, line: 180)
!214 = !DISubprogram(name: "ceil", scope: !202, file: !202, line: 179, type: !203, isLocal: false, isDefinition: false, flags: DIFlagPrototyped, isOptimized: true)
!215 = !DIImportedEntity(tag: DW_TAG_imported_declaration, scope: !8, entity: !216, line: 199)
!216 = !DISubprogram(name: "cos", scope: !202, file: !202, line: 63, type: !203, isLocal: false, isDefinition: false, flags: DIFlagPrototyped, isOptimized: true)
!217 = !DIImportedEntity(tag: DW_TAG_imported_declaration, scope: !8, entity: !218, line: 218)
!218 = !DISubprogram(name: "cosh", scope: !202, file: !202, line: 72, type: !203, isLocal: false, isDefinition: false, flags: DIFlagPrototyped, isOptimized: true)
!219 = !DIImportedEntity(tag: DW_TAG_imported_declaration, scope: !8, entity: !220, line: 237)
!220 = !DISubprogram(name: "exp", scope: !202, file: !202, line: 100, type: !203, isLocal: false, isDefinition: false, flags: DIFlagPrototyped, isOptimized: true)
!221 = !DIImportedEntity(tag: DW_TAG_imported_declaration, scope: !8, entity: !222, line: 256)
!222 = !DISubprogram(name: "fabs", scope: !202, file: !202, line: 182, type: !203, isLocal: false, isDefinition: false, flags: DIFlagPrototyped, isOptimized: true)
!223 = !DIImportedEntity(tag: DW_TAG_imported_declaration, scope: !8, entity: !224, line: 275)
!224 = !DISubprogram(name: "floor", scope: !202, file: !202, line: 185, type: !203, isLocal: false, isDefinition: false, flags: DIFlagPrototyped, isOptimized: true)
!225 = !DIImportedEntity(tag: DW_TAG_imported_declaration, scope: !8, entity: !226, line: 294)
!226 = !DISubprogram(name: "fmod", scope: !202, file: !202, line: 188, type: !211, isLocal: false, isDefinition: false, flags: DIFlagPrototyped, isOptimized: true)
!227 = !DIImportedEntity(tag: DW_TAG_imported_declaration, scope: !8, entity: !228, line: 315)
!228 = !DISubprogram(name: "frexp", scope: !202, file: !202, line: 103, type: !229, isLocal: false, isDefinition: false, flags: DIFlagPrototyped, isOptimized: true)
!229 = !DISubroutineType(types: !230)
!230 = !{!150, !150, !77}
!231 = !DIImportedEntity(tag: DW_TAG_imported_declaration, scope: !8, entity: !232, line: 334)
!232 = !DISubprogram(name: "ldexp", scope: !202, file: !202, line: 106, type: !233, isLocal: false, isDefinition: false, flags: DIFlagPrototyped, isOptimized: true)
!233 = !DISubroutineType(types: !234)
!234 = !{!150, !150, !72}
!235 = !DIImportedEntity(tag: DW_TAG_imported_declaration, scope: !8, entity: !236, line: 353)
!236 = !DISubprogram(name: "log", scope: !202, file: !202, line: 109, type: !203, isLocal: false, isDefinition: false, flags: DIFlagPrototyped, isOptimized: true)
!237 = !DIImportedEntity(tag: DW_TAG_imported_declaration, scope: !8, entity: !238, line: 372)
!238 = !DISubprogram(name: "log10", scope: !202, file: !202, line: 112, type: !203, isLocal: false, isDefinition: false, flags: DIFlagPrototyped, isOptimized: true)
!239 = !DIImportedEntity(tag: DW_TAG_imported_declaration, scope: !8, entity: !240, line: 391)
!240 = !DISubprogram(name: "modf", scope: !202, file: !202, line: 115, type: !241, isLocal: false, isDefinition: false, flags: DIFlagPrototyped, isOptimized: true)
!241 = !DISubroutineType(types: !242)
!242 = !{!150, !150, !243}
!243 = !DIDerivedType(tag: DW_TAG_pointer_type, baseType: !150, size: 64, align: 64)
!244 = !DIImportedEntity(tag: DW_TAG_imported_declaration, scope: !8, entity: !245, line: 403)
!245 = !DISubprogram(name: "pow", scope: !202, file: !202, line: 154, type: !211, isLocal: false, isDefinition: false, flags: DIFlagPrototyped, isOptimized: true)
!246 = !DIImportedEntity(tag: DW_TAG_imported_declaration, scope: !8, entity: !247, line: 440)
!247 = !DISubprogram(name: "sin", scope: !202, file: !202, line: 65, type: !203, isLocal: false, isDefinition: false, flags: DIFlagPrototyped, isOptimized: true)
!248 = !DIImportedEntity(tag: DW_TAG_imported_declaration, scope: !8, entity: !249, line: 459)
!249 = !DISubprogram(name: "sinh", scope: !202, file: !202, line: 74, type: !203, isLocal: false, isDefinition: false, flags: DIFlagPrototyped, isOptimized: true)
!250 = !DIImportedEntity(tag: DW_TAG_imported_declaration, scope: !8, entity: !251, line: 478)
!251 = !DISubprogram(name: "sqrt", scope: !202, file: !202, line: 157, type: !203, isLocal: false, isDefinition: false, flags: DIFlagPrototyped, isOptimized: true)
!252 = !DIImportedEntity(tag: DW_TAG_imported_declaration, scope: !8, entity: !253, line: 497)
!253 = !DISubprogram(name: "tan", scope: !202, file: !202, line: 67, type: !203, isLocal: false, isDefinition: false, flags: DIFlagPrototyped, isOptimized: true)
!254 = !DIImportedEntity(tag: DW_TAG_imported_declaration, scope: !8, entity: !255, line: 516)
!255 = !DISubprogram(name: "tanh", scope: !202, file: !202, line: 76, type: !203, isLocal: false, isDefinition: false, flags: DIFlagPrototyped, isOptimized: true)
!256 = !DIImportedEntity(tag: DW_TAG_imported_declaration, scope: !8, entity: !257, line: 118)
!257 = !DIDerivedType(tag: DW_TAG_typedef, name: "div_t", file: !258, line: 101, baseType: !259)
!258 = !DIFile(filename: "/usr/include/stdlib.h", directory: "/home/ec2-user/DynamicAnalyis")
!259 = !DICompositeType(tag: DW_TAG_structure_type, file: !258, line: 97, size: 64, align: 32, flags: DIFlagFwdDecl, identifier: "_ZTS5div_t")
!260 = !DIImportedEntity(tag: DW_TAG_imported_declaration, scope: !8, entity: !261, line: 119)
!261 = !DIDerivedType(tag: DW_TAG_typedef, name: "ldiv_t", file: !258, line: 109, baseType: !262)
!262 = distinct !DICompositeType(tag: DW_TAG_structure_type, file: !258, line: 105, size: 128, align: 64, elements: !263, identifier: "_ZTS6ldiv_t")
!263 = !{!264, !265}
!264 = !DIDerivedType(tag: DW_TAG_member, name: "quot", scope: !262, file: !258, line: 107, baseType: !111, size: 64, align: 64)
!265 = !DIDerivedType(tag: DW_TAG_member, name: "rem", scope: !262, file: !258, line: 108, baseType: !111, size: 64, align: 64, offset: 64)
!266 = !DIImportedEntity(tag: DW_TAG_imported_declaration, scope: !8, entity: !267, line: 121)
!267 = !DISubprogram(name: "abort", scope: !258, file: !258, line: 514, type: !268, isLocal: false, isDefinition: false, flags: DIFlagPrototyped | DIFlagNoReturn, isOptimized: true)
!268 = !DISubroutineType(types: !269)
!269 = !{null}
!270 = !DIImportedEntity(tag: DW_TAG_imported_declaration, scope: !8, entity: !271, line: 122)
!271 = !DISubprogram(name: "abs", scope: !258, file: !258, line: 770, type: !272, isLocal: false, isDefinition: false, flags: DIFlagPrototyped, isOptimized: true)
!272 = !DISubroutineType(types: !273)
!273 = !{!72, !72}
!274 = !DIImportedEntity(tag: DW_TAG_imported_declaration, scope: !8, entity: !275, line: 123)
!275 = !DISubprogram(name: "atexit", scope: !258, file: !258, line: 518, type: !276, isLocal: false, isDefinition: false, flags: DIFlagPrototyped, isOptimized: true)
!276 = !DISubroutineType(types: !277)
!277 = !{!72, !278}
!278 = !DIDerivedType(tag: DW_TAG_pointer_type, baseType: !268, size: 64, align: 64)
!279 = !DIImportedEntity(tag: DW_TAG_imported_declaration, scope: !8, entity: !280, line: 129)
!280 = !DISubprogram(name: "atof", scope: !281, file: !281, line: 26, type: !148, isLocal: false, isDefinition: false, flags: DIFlagPrototyped, isOptimized: true)
!281 = !DIFile(filename: "/usr/include/bits/stdlib-float.h", directory: "/home/ec2-user/DynamicAnalyis")
!282 = !DIImportedEntity(tag: DW_TAG_imported_declaration, scope: !8, entity: !283, line: 130)
!283 = !DISubprogram(name: "atoi", scope: !258, file: !258, line: 278, type: !284, isLocal: false, isDefinition: false, flags: DIFlagPrototyped, isOptimized: true)
!284 = !DISubroutineType(types: !285)
!285 = !{!72, !151}
!286 = !DIImportedEntity(tag: DW_TAG_imported_declaration, scope: !8, entity: !287, line: 131)
!287 = !DISubprogram(name: "atol", scope: !258, file: !258, line: 283, type: !288, isLocal: false, isDefinition: false, flags: DIFlagPrototyped, isOptimized: true)
!288 = !DISubroutineType(types: !289)
!289 = !{!111, !151}
!290 = !DIImportedEntity(tag: DW_TAG_imported_declaration, scope: !8, entity: !291, line: 132)
!291 = !DISubprogram(name: "bsearch", scope: !258, file: !258, line: 754, type: !292, isLocal: false, isDefinition: false, flags: DIFlagPrototyped, isOptimized: true)
!292 = !DISubroutineType(types: !293)
!293 = !{!294, !295, !295, !297, !297, !300}
!294 = !DIDerivedType(tag: DW_TAG_pointer_type, baseType: null, size: 64, align: 64)
!295 = !DIDerivedType(tag: DW_TAG_pointer_type, baseType: !296, size: 64, align: 64)
!296 = !DIDerivedType(tag: DW_TAG_const_type, baseType: null)
!297 = !DIDerivedType(tag: DW_TAG_typedef, name: "size_t", file: !298, line: 62, baseType: !299)
!298 = !DIFile(filename: "/usr/local/bin/../lib/clang/4.0.0/include/stddef.h", directory: "/home/ec2-user/DynamicAnalyis")
!299 = !DIBasicType(name: "long unsigned int", size: 64, align: 64, encoding: DW_ATE_unsigned)
!300 = !DIDerivedType(tag: DW_TAG_typedef, name: "__compar_fn_t", file: !258, line: 741, baseType: !301)
!301 = !DIDerivedType(tag: DW_TAG_pointer_type, baseType: !302, size: 64, align: 64)
!302 = !DISubroutineType(types: !303)
!303 = !{!72, !295, !295}
!304 = !DIImportedEntity(tag: DW_TAG_imported_declaration, scope: !8, entity: !305, line: 133)
!305 = !DISubprogram(name: "calloc", scope: !258, file: !258, line: 467, type: !306, isLocal: false, isDefinition: false, flags: DIFlagPrototyped, isOptimized: true)
!306 = !DISubroutineType(types: !307)
!307 = !{!294, !297, !297}
!308 = !DIImportedEntity(tag: DW_TAG_imported_declaration, scope: !8, entity: !309, line: 134)
!309 = !DISubprogram(name: "div", scope: !258, file: !258, line: 784, type: !310, isLocal: false, isDefinition: false, flags: DIFlagPrototyped, isOptimized: true)
!310 = !DISubroutineType(types: !311)
!311 = !{!257, !72, !72}
!312 = !DIImportedEntity(tag: DW_TAG_imported_declaration, scope: !8, entity: !313, line: 135)
!313 = !DISubprogram(name: "exit", scope: !258, file: !258, line: 542, type: !314, isLocal: false, isDefinition: false, flags: DIFlagPrototyped | DIFlagNoReturn, isOptimized: true)
!314 = !DISubroutineType(types: !315)
!315 = !{null, !72}
!316 = !DIImportedEntity(tag: DW_TAG_imported_declaration, scope: !8, entity: !317, line: 136)
!317 = !DISubprogram(name: "free", scope: !258, file: !258, line: 482, type: !318, isLocal: false, isDefinition: false, flags: DIFlagPrototyped, isOptimized: true)
!318 = !DISubroutineType(types: !319)
!319 = !{null, !294}
!320 = !DIImportedEntity(tag: DW_TAG_imported_declaration, scope: !8, entity: !321, line: 137)
!321 = !DISubprogram(name: "getenv", scope: !258, file: !258, line: 563, type: !322, isLocal: false, isDefinition: false, flags: DIFlagPrototyped, isOptimized: true)
!322 = !DISubroutineType(types: !323)
!323 = !{!324, !151}
!324 = !DIDerivedType(tag: DW_TAG_pointer_type, baseType: !153, size: 64, align: 64)
!325 = !DIImportedEntity(tag: DW_TAG_imported_declaration, scope: !8, entity: !326, line: 138)
!326 = !DISubprogram(name: "labs", scope: !258, file: !258, line: 771, type: !109, isLocal: false, isDefinition: false, flags: DIFlagPrototyped, isOptimized: true)
!327 = !DIImportedEntity(tag: DW_TAG_imported_declaration, scope: !8, entity: !328, line: 139)
!328 = !DISubprogram(name: "ldiv", scope: !258, file: !258, line: 786, type: !329, isLocal: false, isDefinition: false, flags: DIFlagPrototyped, isOptimized: true)
!329 = !DISubroutineType(types: !330)
!330 = !{!261, !111, !111}
!331 = !DIImportedEntity(tag: DW_TAG_imported_declaration, scope: !8, entity: !332, line: 140)
!332 = !DISubprogram(name: "malloc", scope: !258, file: !258, line: 465, type: !333, isLocal: false, isDefinition: false, flags: DIFlagPrototyped, isOptimized: true)
!333 = !DISubroutineType(types: !334)
!334 = !{!294, !297}
!335 = !DIImportedEntity(tag: DW_TAG_imported_declaration, scope: !8, entity: !336, line: 142)
!336 = !DISubprogram(name: "mblen", scope: !258, file: !258, line: 859, type: !337, isLocal: false, isDefinition: false, flags: DIFlagPrototyped, isOptimized: true)
!337 = !DISubroutineType(types: !338)
!338 = !{!72, !151, !297}
!339 = !DIImportedEntity(tag: DW_TAG_imported_declaration, scope: !8, entity: !340, line: 143)
!340 = !DISubprogram(name: "mbstowcs", scope: !258, file: !258, line: 870, type: !341, isLocal: false, isDefinition: false, flags: DIFlagPrototyped, isOptimized: true)
!341 = !DISubroutineType(types: !342)
!342 = !{!297, !343, !346, !297}
!343 = !DIDerivedType(tag: DW_TAG_restrict_type, baseType: !344)
!344 = !DIDerivedType(tag: DW_TAG_pointer_type, baseType: !345, size: 64, align: 64)
!345 = !DIBasicType(name: "wchar_t", size: 32, align: 32, encoding: DW_ATE_signed)
!346 = !DIDerivedType(tag: DW_TAG_restrict_type, baseType: !151)
!347 = !DIImportedEntity(tag: DW_TAG_imported_declaration, scope: !8, entity: !348, line: 144)
!348 = !DISubprogram(name: "mbtowc", scope: !258, file: !258, line: 862, type: !349, isLocal: false, isDefinition: false, flags: DIFlagPrototyped, isOptimized: true)
!349 = !DISubroutineType(types: !350)
!350 = !{!72, !343, !346, !297}
!351 = !DIImportedEntity(tag: DW_TAG_imported_declaration, scope: !8, entity: !352, line: 146)
!352 = !DISubprogram(name: "qsort", scope: !258, file: !258, line: 760, type: !353, isLocal: false, isDefinition: false, flags: DIFlagPrototyped, isOptimized: true)
!353 = !DISubroutineType(types: !354)
!354 = !{null, !294, !297, !297, !300}
!355 = !DIImportedEntity(tag: DW_TAG_imported_declaration, scope: !8, entity: !356, line: 152)
!356 = !DISubprogram(name: "rand", scope: !258, file: !258, line: 374, type: !357, isLocal: false, isDefinition: false, flags: DIFlagPrototyped, isOptimized: true)
!357 = !DISubroutineType(types: !358)
!358 = !{!72}
!359 = !DIImportedEntity(tag: DW_TAG_imported_declaration, scope: !8, entity: !360, line: 153)
!360 = !DISubprogram(name: "realloc", scope: !258, file: !258, line: 479, type: !361, isLocal: false, isDefinition: false, flags: DIFlagPrototyped, isOptimized: true)
!361 = !DISubroutineType(types: !362)
!362 = !{!294, !294, !297}
!363 = !DIImportedEntity(tag: DW_TAG_imported_declaration, scope: !8, entity: !364, line: 154)
!364 = !DISubprogram(name: "srand", scope: !258, file: !258, line: 376, type: !365, isLocal: false, isDefinition: false, flags: DIFlagPrototyped, isOptimized: true)
!365 = !DISubroutineType(types: !366)
!366 = !{null, !367}
!367 = !DIBasicType(name: "unsigned int", size: 32, align: 32, encoding: DW_ATE_unsigned)
!368 = !DIImportedEntity(tag: DW_TAG_imported_declaration, scope: !8, entity: !369, line: 155)
!369 = !DISubprogram(name: "strtod", scope: !258, file: !258, line: 164, type: !370, isLocal: false, isDefinition: false, flags: DIFlagPrototyped, isOptimized: true)
!370 = !DISubroutineType(types: !371)
!371 = !{!150, !346, !372}
!372 = !DIDerivedType(tag: DW_TAG_restrict_type, baseType: !373)
!373 = !DIDerivedType(tag: DW_TAG_pointer_type, baseType: !324, size: 64, align: 64)
!374 = !DIImportedEntity(tag: DW_TAG_imported_declaration, scope: !8, entity: !375, line: 156)
!375 = !DISubprogram(name: "strtol", scope: !258, file: !258, line: 183, type: !376, isLocal: false, isDefinition: false, flags: DIFlagPrototyped, isOptimized: true)
!376 = !DISubroutineType(types: !377)
!377 = !{!111, !346, !372, !72}
!378 = !DIImportedEntity(tag: DW_TAG_imported_declaration, scope: !8, entity: !379, line: 157)
!379 = !DISubprogram(name: "strtoul", scope: !258, file: !258, line: 187, type: !380, isLocal: false, isDefinition: false, flags: DIFlagPrototyped, isOptimized: true)
!380 = !DISubroutineType(types: !381)
!381 = !{!299, !346, !372, !72}
!382 = !DIImportedEntity(tag: DW_TAG_imported_declaration, scope: !8, entity: !383, line: 158)
!383 = !DISubprogram(name: "system", scope: !258, file: !258, line: 716, type: !284, isLocal: false, isDefinition: false, flags: DIFlagPrototyped, isOptimized: true)
!384 = !DIImportedEntity(tag: DW_TAG_imported_declaration, scope: !8, entity: !385, line: 160)
!385 = !DISubprogram(name: "wcstombs", scope: !258, file: !258, line: 873, type: !386, isLocal: false, isDefinition: false, flags: DIFlagPrototyped, isOptimized: true)
!386 = !DISubroutineType(types: !387)
!387 = !{!297, !388, !389, !297}
!388 = !DIDerivedType(tag: DW_TAG_restrict_type, baseType: !324)
!389 = !DIDerivedType(tag: DW_TAG_restrict_type, baseType: !390)
!390 = !DIDerivedType(tag: DW_TAG_pointer_type, baseType: !391, size: 64, align: 64)
!391 = !DIDerivedType(tag: DW_TAG_const_type, baseType: !345)
!392 = !DIImportedEntity(tag: DW_TAG_imported_declaration, scope: !8, entity: !393, line: 161)
!393 = !DISubprogram(name: "wctomb", scope: !258, file: !258, line: 866, type: !394, isLocal: false, isDefinition: false, flags: DIFlagPrototyped, isOptimized: true)
!394 = !DISubroutineType(types: !395)
!395 = !{!72, !324, !345}
!396 = !DIImportedEntity(tag: DW_TAG_imported_declaration, scope: !397, entity: !399, line: 201)
!397 = !DINamespace(name: "__gnu_cxx", scope: null, file: !398, line: 68)
!398 = !DIFile(filename: "/usr/include/c++/4.8.3/bits/cpp_type_traits.h", directory: "/home/ec2-user/DynamicAnalyis")
!399 = !DIDerivedType(tag: DW_TAG_typedef, name: "lldiv_t", file: !258, line: 121, baseType: !400)
!400 = distinct !DICompositeType(tag: DW_TAG_structure_type, file: !258, line: 117, size: 128, align: 64, elements: !401, identifier: "_ZTS7lldiv_t")
!401 = !{!402, !403}
!402 = !DIDerivedType(tag: DW_TAG_member, name: "quot", scope: !400, file: !258, line: 119, baseType: !13, size: 64, align: 64)
!403 = !DIDerivedType(tag: DW_TAG_member, name: "rem", scope: !400, file: !258, line: 120, baseType: !13, size: 64, align: 64, offset: 64)
!404 = !DIImportedEntity(tag: DW_TAG_imported_declaration, scope: !397, entity: !405, line: 207)
!405 = !DISubprogram(name: "_Exit", scope: !258, file: !258, line: 556, type: !314, isLocal: false, isDefinition: false, flags: DIFlagPrototyped | DIFlagNoReturn, isOptimized: true)
!406 = !DIImportedEntity(tag: DW_TAG_imported_declaration, scope: !397, entity: !407, line: 211)
!407 = !DISubprogram(name: "llabs", scope: !258, file: !258, line: 775, type: !11, isLocal: false, isDefinition: false, flags: DIFlagPrototyped, isOptimized: true)
!408 = !DIImportedEntity(tag: DW_TAG_imported_declaration, scope: !397, entity: !409, line: 217)
!409 = !DISubprogram(name: "lldiv", scope: !258, file: !258, line: 792, type: !410, isLocal: false, isDefinition: false, flags: DIFlagPrototyped, isOptimized: true)
!410 = !DISubroutineType(types: !411)
!411 = !{!399, !13, !13}
!412 = !DIImportedEntity(tag: DW_TAG_imported_declaration, scope: !397, entity: !413, line: 228)
!413 = !DISubprogram(name: "atoll", scope: !258, file: !258, line: 292, type: !414, isLocal: false, isDefinition: false, flags: DIFlagPrototyped, isOptimized: true)
!414 = !DISubroutineType(types: !415)
!415 = !{!13, !151}
!416 = !DIImportedEntity(tag: DW_TAG_imported_declaration, scope: !397, entity: !417, line: 229)
!417 = !DISubprogram(name: "strtoll", scope: !258, file: !258, line: 209, type: !418, isLocal: false, isDefinition: false, flags: DIFlagPrototyped, isOptimized: true)
!418 = !DISubroutineType(types: !419)
!419 = !{!13, !346, !372, !72}
!420 = !DIImportedEntity(tag: DW_TAG_imported_declaration, scope: !397, entity: !421, line: 230)
!421 = !DISubprogram(name: "strtoull", scope: !258, file: !258, line: 214, type: !422, isLocal: false, isDefinition: false, flags: DIFlagPrototyped, isOptimized: true)
!422 = !DISubroutineType(types: !423)
!423 = !{!424, !346, !372, !72}
!424 = !DIBasicType(name: "long long unsigned int", size: 64, align: 64, encoding: DW_ATE_unsigned)
!425 = !DIImportedEntity(tag: DW_TAG_imported_declaration, scope: !397, entity: !426, line: 232)
!426 = !DISubprogram(name: "strtof", scope: !258, file: !258, line: 172, type: !427, isLocal: false, isDefinition: false, flags: DIFlagPrototyped, isOptimized: true)
!427 = !DISubroutineType(types: !428)
!428 = !{!5, !346, !372}
!429 = !DIImportedEntity(tag: DW_TAG_imported_declaration, scope: !397, entity: !430, line: 233)
!430 = !DISubprogram(name: "strtold", scope: !258, file: !258, line: 175, type: !431, isLocal: false, isDefinition: false, flags: DIFlagPrototyped, isOptimized: true)
!431 = !DISubroutineType(types: !432)
!432 = !{!433, !346, !372}
!433 = !DIBasicType(name: "long double", size: 128, align: 128, encoding: DW_ATE_float)
!434 = !DIImportedEntity(tag: DW_TAG_imported_declaration, scope: !8, entity: !399, line: 241)
!435 = !DIImportedEntity(tag: DW_TAG_imported_declaration, scope: !8, entity: !405, line: 243)
!436 = !DIImportedEntity(tag: DW_TAG_imported_declaration, scope: !8, entity: !407, line: 245)
!437 = !DIImportedEntity(tag: DW_TAG_imported_declaration, scope: !8, entity: !438, line: 246)
!438 = !DISubprogram(name: "div", linkageName: "_ZN9__gnu_cxx3divExx", scope: !397, file: !439, line: 214, type: !410, isLocal: false, isDefinition: false, flags: DIFlagPrototyped, isOptimized: true)
!439 = !DIFile(filename: "/usr/include/c++/4.8.3/cstdlib", directory: "/home/ec2-user/DynamicAnalyis")
!440 = !DIImportedEntity(tag: DW_TAG_imported_declaration, scope: !8, entity: !409, line: 247)
!441 = !DIImportedEntity(tag: DW_TAG_imported_declaration, scope: !8, entity: !413, line: 249)
!442 = !DIImportedEntity(tag: DW_TAG_imported_declaration, scope: !8, entity: !426, line: 250)
!443 = !DIImportedEntity(tag: DW_TAG_imported_declaration, scope: !8, entity: !417, line: 251)
!444 = !DIImportedEntity(tag: DW_TAG_imported_declaration, scope: !8, entity: !421, line: 252)
!445 = !DIImportedEntity(tag: DW_TAG_imported_declaration, scope: !8, entity: !430, line: 253)
!446 = !DIImportedEntity(tag: DW_TAG_imported_declaration, scope: !8, entity: !447, line: 366)
!447 = !DISubprogram(name: "acosf", linkageName: "_ZL5acosff", scope: !448, file: !448, line: 1300, type: !16, isLocal: true, isDefinition: false, flags: DIFlagPrototyped, isOptimized: true)
!448 = !DIFile(filename: "/usr/local/cuda/include/math_functions.hpp", directory: "/home/ec2-user/DynamicAnalyis")
!449 = !DIImportedEntity(tag: DW_TAG_imported_declaration, scope: !8, entity: !450, line: 367)
!450 = !DISubprogram(name: "acoshf", linkageName: "_ZL6acoshff", scope: !448, file: !448, line: 1328, type: !16, isLocal: true, isDefinition: false, flags: DIFlagPrototyped, isOptimized: true)
!451 = !DIImportedEntity(tag: DW_TAG_imported_declaration, scope: !8, entity: !452, line: 368)
!452 = !DISubprogram(name: "asinf", linkageName: "_ZL5asinff", scope: !448, file: !448, line: 1295, type: !16, isLocal: true, isDefinition: false, flags: DIFlagPrototyped, isOptimized: true)
!453 = !DIImportedEntity(tag: DW_TAG_imported_declaration, scope: !8, entity: !454, line: 369)
!454 = !DISubprogram(name: "asinhf", linkageName: "_ZL6asinhff", scope: !448, file: !448, line: 1333, type: !16, isLocal: true, isDefinition: false, flags: DIFlagPrototyped, isOptimized: true)
!455 = !DIImportedEntity(tag: DW_TAG_imported_declaration, scope: !8, entity: !456, line: 370)
!456 = !DISubprogram(name: "atan2f", linkageName: "_ZL6atan2fff", scope: !448, file: !448, line: 1285, type: !28, isLocal: true, isDefinition: false, flags: DIFlagPrototyped, isOptimized: true)
!457 = !DIImportedEntity(tag: DW_TAG_imported_declaration, scope: !8, entity: !458, line: 371)
!458 = !DISubprogram(name: "atanf", linkageName: "_ZL5atanff", scope: !448, file: !448, line: 1290, type: !16, isLocal: true, isDefinition: false, flags: DIFlagPrototyped, isOptimized: true)
!459 = !DIImportedEntity(tag: DW_TAG_imported_declaration, scope: !8, entity: !460, line: 372)
!460 = !DISubprogram(name: "atanhf", linkageName: "_ZL6atanhff", scope: !448, file: !448, line: 1338, type: !16, isLocal: true, isDefinition: false, flags: DIFlagPrototyped, isOptimized: true)
!461 = !DIImportedEntity(tag: DW_TAG_imported_declaration, scope: !8, entity: !462, line: 373)
!462 = !DISubprogram(name: "cbrtf", linkageName: "_ZL5cbrtff", scope: !448, file: !448, line: 1388, type: !16, isLocal: true, isDefinition: false, flags: DIFlagPrototyped, isOptimized: true)
!463 = !DIImportedEntity(tag: DW_TAG_imported_declaration, scope: !8, entity: !464, line: 374)
!464 = !DISubprogram(name: "ceilf", linkageName: "_ZL5ceilff", scope: !465, file: !465, line: 667, type: !16, isLocal: true, isDefinition: false, flags: DIFlagPrototyped, isOptimized: true)
!465 = !DIFile(filename: "/usr/local/cuda/include/device_functions.hpp", directory: "/home/ec2-user/DynamicAnalyis")
!466 = !DIImportedEntity(tag: DW_TAG_imported_declaration, scope: !8, entity: !467, line: 375)
!467 = !DISubprogram(name: "copysignf", linkageName: "_ZL9copysignfff", scope: !448, file: !448, line: 1147, type: !28, isLocal: true, isDefinition: false, flags: DIFlagPrototyped, isOptimized: true)
!468 = !DIImportedEntity(tag: DW_TAG_imported_declaration, scope: !8, entity: !469, line: 376)
!469 = !DISubprogram(name: "cosf", linkageName: "_ZL4cosff", scope: !448, file: !448, line: 1201, type: !16, isLocal: true, isDefinition: false, flags: DIFlagPrototyped, isOptimized: true)
!470 = !DIImportedEntity(tag: DW_TAG_imported_declaration, scope: !8, entity: !471, line: 377)
!471 = !DISubprogram(name: "coshf", linkageName: "_ZL5coshff", scope: !448, file: !448, line: 1270, type: !16, isLocal: true, isDefinition: false, flags: DIFlagPrototyped, isOptimized: true)
!472 = !DIImportedEntity(tag: DW_TAG_imported_declaration, scope: !8, entity: !473, line: 378)
!473 = !DISubprogram(name: "erfcf", linkageName: "_ZL5erfcff", scope: !448, file: !448, line: 1448, type: !16, isLocal: true, isDefinition: false, flags: DIFlagPrototyped, isOptimized: true)
!474 = !DIImportedEntity(tag: DW_TAG_imported_declaration, scope: !8, entity: !475, line: 379)
!475 = !DISubprogram(name: "erff", linkageName: "_ZL4erfff", scope: !448, file: !448, line: 1438, type: !16, isLocal: true, isDefinition: false, flags: DIFlagPrototyped, isOptimized: true)
!476 = !DIImportedEntity(tag: DW_TAG_imported_declaration, scope: !8, entity: !477, line: 380)
!477 = !DISubprogram(name: "exp2f", linkageName: "_ZL5exp2ff", scope: !465, file: !465, line: 657, type: !16, isLocal: true, isDefinition: false, flags: DIFlagPrototyped, isOptimized: true)
!478 = !DIImportedEntity(tag: DW_TAG_imported_declaration, scope: !8, entity: !479, line: 381)
!479 = !DISubprogram(name: "expf", linkageName: "_ZL4expff", scope: !448, file: !448, line: 1252, type: !16, isLocal: true, isDefinition: false, flags: DIFlagPrototyped, isOptimized: true)
!480 = !DIImportedEntity(tag: DW_TAG_imported_declaration, scope: !8, entity: !481, line: 382)
!481 = !DISubprogram(name: "expm1f", linkageName: "_ZL6expm1ff", scope: !448, file: !448, line: 1343, type: !16, isLocal: true, isDefinition: false, flags: DIFlagPrototyped, isOptimized: true)
!482 = !DIImportedEntity(tag: DW_TAG_imported_declaration, scope: !8, entity: !483, line: 383)
!483 = !DISubprogram(name: "fabsf", linkageName: "_ZL5fabsff", scope: !465, file: !465, line: 607, type: !16, isLocal: true, isDefinition: false, flags: DIFlagPrototyped, isOptimized: true)
!484 = !DIImportedEntity(tag: DW_TAG_imported_declaration, scope: !8, entity: !485, line: 384)
!485 = !DISubprogram(name: "fdimf", linkageName: "_ZL5fdimfff", scope: !448, file: !448, line: 1574, type: !28, isLocal: true, isDefinition: false, flags: DIFlagPrototyped, isOptimized: true)
!486 = !DIImportedEntity(tag: DW_TAG_imported_declaration, scope: !8, entity: !487, line: 385)
!487 = !DISubprogram(name: "floorf", linkageName: "_ZL6floorff", scope: !465, file: !465, line: 597, type: !16, isLocal: true, isDefinition: false, flags: DIFlagPrototyped, isOptimized: true)
!488 = !DIImportedEntity(tag: DW_TAG_imported_declaration, scope: !8, entity: !489, line: 386)
!489 = !DISubprogram(name: "fmaf", linkageName: "_ZL4fmaffff", scope: !448, file: !448, line: 1526, type: !60, isLocal: true, isDefinition: false, flags: DIFlagPrototyped, isOptimized: true)
!490 = !DIImportedEntity(tag: DW_TAG_imported_declaration, scope: !8, entity: !491, line: 387)
!491 = !DISubprogram(name: "fmaxf", linkageName: "_ZL5fmaxfff", scope: !465, file: !465, line: 622, type: !28, isLocal: true, isDefinition: false, flags: DIFlagPrototyped, isOptimized: true)
!492 = !DIImportedEntity(tag: DW_TAG_imported_declaration, scope: !8, entity: !493, line: 388)
!493 = !DISubprogram(name: "fminf", linkageName: "_ZL5fminfff", scope: !465, file: !465, line: 617, type: !28, isLocal: true, isDefinition: false, flags: DIFlagPrototyped, isOptimized: true)
!494 = !DIImportedEntity(tag: DW_TAG_imported_declaration, scope: !8, entity: !495, line: 389)
!495 = !DISubprogram(name: "fmodf", linkageName: "_ZL5fmodfff", scope: !448, file: !448, line: 1511, type: !28, isLocal: true, isDefinition: false, flags: DIFlagPrototyped, isOptimized: true)
!496 = !DIImportedEntity(tag: DW_TAG_imported_declaration, scope: !8, entity: !497, line: 390)
!497 = !DISubprogram(name: "frexpf", linkageName: "_ZL6frexpffPi", scope: !448, file: !448, line: 1501, type: !75, isLocal: true, isDefinition: false, flags: DIFlagPrototyped, isOptimized: true)
!498 = !DIImportedEntity(tag: DW_TAG_imported_declaration, scope: !8, entity: !499, line: 391)
!499 = !DISubprogram(name: "hypotf", linkageName: "_ZL6hypotfff", scope: !448, file: !448, line: 1348, type: !28, isLocal: true, isDefinition: false, flags: DIFlagPrototyped, isOptimized: true)
!500 = !DIImportedEntity(tag: DW_TAG_imported_declaration, scope: !8, entity: !501, line: 392)
!501 = !DISubprogram(name: "ilogbf", linkageName: "_ZL6ilogbff", scope: !448, file: !448, line: 1579, type: !70, isLocal: true, isDefinition: false, flags: DIFlagPrototyped, isOptimized: true)
!502 = !DIImportedEntity(tag: DW_TAG_imported_declaration, scope: !8, entity: !503, line: 393)
!503 = !DISubprogram(name: "ldexpf", linkageName: "_ZL6ldexpffi", scope: !448, file: !448, line: 1478, type: !114, isLocal: true, isDefinition: false, flags: DIFlagPrototyped, isOptimized: true)
!504 = !DIImportedEntity(tag: DW_TAG_imported_declaration, scope: !8, entity: !505, line: 394)
!505 = !DISubprogram(name: "lgammaf", linkageName: "_ZL7lgammaff", scope: !448, file: !448, line: 1473, type: !16, isLocal: true, isDefinition: false, flags: DIFlagPrototyped, isOptimized: true)
!506 = !DIImportedEntity(tag: DW_TAG_imported_declaration, scope: !8, entity: !507, line: 395)
!507 = !DISubprogram(name: "llrintf", linkageName: "_ZL7llrintff", scope: !448, file: !448, line: 1107, type: !122, isLocal: true, isDefinition: false, flags: DIFlagPrototyped, isOptimized: true)
!508 = !DIImportedEntity(tag: DW_TAG_imported_declaration, scope: !8, entity: !509, line: 396)
!509 = !DISubprogram(name: "llroundf", linkageName: "_ZL8llroundff", scope: !448, file: !448, line: 1560, type: !122, isLocal: true, isDefinition: false, flags: DIFlagPrototyped, isOptimized: true)
!510 = !DIImportedEntity(tag: DW_TAG_imported_declaration, scope: !8, entity: !511, line: 397)
!511 = !DISubprogram(name: "log10f", linkageName: "_ZL6log10ff", scope: !448, file: !448, line: 1314, type: !16, isLocal: true, isDefinition: false, flags: DIFlagPrototyped, isOptimized: true)
!512 = !DIImportedEntity(tag: DW_TAG_imported_declaration, scope: !8, entity: !513, line: 398)
!513 = !DISubprogram(name: "log1pf", linkageName: "_ZL6log1pff", scope: !448, file: !448, line: 1323, type: !16, isLocal: true, isDefinition: false, flags: DIFlagPrototyped, isOptimized: true)
!514 = !DIImportedEntity(tag: DW_TAG_imported_declaration, scope: !8, entity: !515, line: 399)
!515 = !DISubprogram(name: "log2f", linkageName: "_ZL5log2ff", scope: !448, file: !448, line: 1243, type: !16, isLocal: true, isDefinition: false, flags: DIFlagPrototyped, isOptimized: true)
!516 = !DIImportedEntity(tag: DW_TAG_imported_declaration, scope: !8, entity: !517, line: 400)
!517 = !DISubprogram(name: "logbf", linkageName: "_ZL5logbff", scope: !448, file: !448, line: 1584, type: !16, isLocal: true, isDefinition: false, flags: DIFlagPrototyped, isOptimized: true)
!518 = !DIImportedEntity(tag: DW_TAG_imported_declaration, scope: !8, entity: !519, line: 401)
!519 = !DISubprogram(name: "logf", linkageName: "_ZL4logff", scope: !448, file: !448, line: 1305, type: !16, isLocal: true, isDefinition: false, flags: DIFlagPrototyped, isOptimized: true)
!520 = !DIImportedEntity(tag: DW_TAG_imported_declaration, scope: !8, entity: !521, line: 402)
!521 = !DISubprogram(name: "lrintf", linkageName: "_ZL6lrintff", scope: !448, file: !448, line: 1098, type: !136, isLocal: true, isDefinition: false, flags: DIFlagPrototyped, isOptimized: true)
!522 = !DIImportedEntity(tag: DW_TAG_imported_declaration, scope: !8, entity: !523, line: 403)
!523 = !DISubprogram(name: "lroundf", linkageName: "_ZL7lroundff", scope: !448, file: !448, line: 1565, type: !136, isLocal: true, isDefinition: false, flags: DIFlagPrototyped, isOptimized: true)
!524 = !DIImportedEntity(tag: DW_TAG_imported_declaration, scope: !8, entity: !525, line: 404)
!525 = !DISubprogram(name: "modff", linkageName: "_ZL5modfffPf", scope: !448, file: !448, line: 1506, type: !144, isLocal: true, isDefinition: false, flags: DIFlagPrototyped, isOptimized: true)
!526 = !DIImportedEntity(tag: DW_TAG_imported_declaration, scope: !8, entity: !527, line: 405)
!527 = !DISubprogram(name: "nearbyintf", linkageName: "_ZL10nearbyintff", scope: !448, file: !448, line: 1112, type: !16, isLocal: true, isDefinition: false, flags: DIFlagPrototyped, isOptimized: true)
!528 = !DIImportedEntity(tag: DW_TAG_imported_declaration, scope: !8, entity: !529, line: 406)
!529 = !DISubprogram(name: "nextafterf", linkageName: "_ZL10nextafterfff", scope: !448, file: !448, line: 1176, type: !28, isLocal: true, isDefinition: false, flags: DIFlagPrototyped, isOptimized: true)
!530 = !DIImportedEntity(tag: DW_TAG_imported_declaration, scope: !8, entity: !531, line: 407)
!531 = !DISubprogram(name: "nexttowardf", scope: !202, file: !202, line: 285, type: !532, isLocal: false, isDefinition: false, flags: DIFlagPrototyped, isOptimized: true)
!532 = !DISubroutineType(types: !533)
!533 = !{!5, !5, !433}
!534 = !DIImportedEntity(tag: DW_TAG_imported_declaration, scope: !8, entity: !531, line: 408)
!535 = !DIImportedEntity(tag: DW_TAG_imported_declaration, scope: !8, entity: !536, line: 409)
!536 = !DISubprogram(name: "powf", linkageName: "_ZL4powfff", scope: !448, file: !448, line: 1541, type: !28, isLocal: true, isDefinition: false, flags: DIFlagPrototyped, isOptimized: true)
!537 = !DIImportedEntity(tag: DW_TAG_imported_declaration, scope: !8, entity: !538, line: 410)
!538 = !DISubprogram(name: "remainderf", linkageName: "_ZL10remainderfff", scope: !448, file: !448, line: 1516, type: !28, isLocal: true, isDefinition: false, flags: DIFlagPrototyped, isOptimized: true)
!539 = !DIImportedEntity(tag: DW_TAG_imported_declaration, scope: !8, entity: !540, line: 411)
!540 = !DISubprogram(name: "remquof", linkageName: "_ZL7remquofffPi", scope: !448, file: !448, line: 1521, type: !172, isLocal: true, isDefinition: false, flags: DIFlagPrototyped, isOptimized: true)
!541 = !DIImportedEntity(tag: DW_TAG_imported_declaration, scope: !8, entity: !542, line: 412)
!542 = !DISubprogram(name: "rintf", linkageName: "_ZL5rintff", scope: !448, file: !448, line: 1093, type: !16, isLocal: true, isDefinition: false, flags: DIFlagPrototyped, isOptimized: true)
!543 = !DIImportedEntity(tag: DW_TAG_imported_declaration, scope: !8, entity: !544, line: 413)
!544 = !DISubprogram(name: "roundf", linkageName: "_ZL6roundff", scope: !448, file: !448, line: 1555, type: !16, isLocal: true, isDefinition: false, flags: DIFlagPrototyped, isOptimized: true)
!545 = !DIImportedEntity(tag: DW_TAG_imported_declaration, scope: !8, entity: !546, line: 414)
!546 = !DISubprogram(name: "scalblnf", linkageName: "_ZL8scalblnffl", scope: !448, file: !448, line: 1488, type: !180, isLocal: true, isDefinition: false, flags: DIFlagPrototyped, isOptimized: true)
!547 = !DIImportedEntity(tag: DW_TAG_imported_declaration, scope: !8, entity: !548, line: 415)
!548 = !DISubprogram(name: "scalbnf", linkageName: "_ZL7scalbnffi", scope: !448, file: !448, line: 1483, type: !114, isLocal: true, isDefinition: false, flags: DIFlagPrototyped, isOptimized: true)
!549 = !DIImportedEntity(tag: DW_TAG_imported_declaration, scope: !8, entity: !550, line: 416)
!550 = !DISubprogram(name: "sinf", linkageName: "_ZL4sinff", scope: !448, file: !448, line: 1192, type: !16, isLocal: true, isDefinition: false, flags: DIFlagPrototyped, isOptimized: true)
!551 = !DIImportedEntity(tag: DW_TAG_imported_declaration, scope: !8, entity: !552, line: 417)
!552 = !DISubprogram(name: "sinhf", linkageName: "_ZL5sinhff", scope: !448, file: !448, line: 1275, type: !16, isLocal: true, isDefinition: false, flags: DIFlagPrototyped, isOptimized: true)
!553 = !DIImportedEntity(tag: DW_TAG_imported_declaration, scope: !8, entity: !554, line: 418)
!554 = !DISubprogram(name: "sqrtf", linkageName: "_ZL5sqrtff", scope: !465, file: !465, line: 907, type: !16, isLocal: true, isDefinition: false, flags: DIFlagPrototyped, isOptimized: true)
!555 = !DIImportedEntity(tag: DW_TAG_imported_declaration, scope: !8, entity: !556, line: 419)
!556 = !DISubprogram(name: "tanf", linkageName: "_ZL4tanff", scope: !448, file: !448, line: 1234, type: !16, isLocal: true, isDefinition: false, flags: DIFlagPrototyped, isOptimized: true)
!557 = !DIImportedEntity(tag: DW_TAG_imported_declaration, scope: !8, entity: !558, line: 420)
!558 = !DISubprogram(name: "tanhf", linkageName: "_ZL5tanhff", scope: !448, file: !448, line: 1280, type: !16, isLocal: true, isDefinition: false, flags: DIFlagPrototyped, isOptimized: true)
!559 = !DIImportedEntity(tag: DW_TAG_imported_declaration, scope: !8, entity: !560, line: 421)
!560 = !DISubprogram(name: "tgammaf", linkageName: "_ZL7tgammaff", scope: !448, file: !448, line: 1550, type: !16, isLocal: true, isDefinition: false, flags: DIFlagPrototyped, isOptimized: true)
!561 = !DIImportedEntity(tag: DW_TAG_imported_declaration, scope: !8, entity: !562, line: 422)
!562 = !DISubprogram(name: "truncf", linkageName: "_ZL6truncff", scope: !465, file: !465, line: 662, type: !16, isLocal: true, isDefinition: false, flags: DIFlagPrototyped, isOptimized: true)
!563 = !{i32 2, !"Dwarf Version", i32 4}
!564 = !{i32 2, !"Debug Info Version", i32 3}
!565 = !{!"clang version 4.0.0 (trunk 279478) (llvm/trunk 279476)"}
!566 = distinct !DISubprogram(name: "lud_diagonal", linkageName: "_Z12lud_diagonalPfii", scope: !1, file: !1, line: 16, type: !567, isLocal: false, isDefinition: true, scopeLine: 17, flags: DIFlagPrototyped, isOptimized: true, unit: !0, variables: !569)
!567 = !DISubroutineType(types: !568)
!568 = !{null, !4, !72, !72}
!569 = !{!570, !571, !572}
!570 = !DILocalVariable(name: "m", arg: 1, scope: !566, file: !1, line: 16, type: !4)
!571 = !DILocalVariable(name: "matrix_dim", arg: 2, scope: !566, file: !1, line: 16, type: !72)
!572 = !DILocalVariable(name: "offset", arg: 3, scope: !566, file: !1, line: 16, type: !72)
!573 = !DIExpression()
!574 = !DILocation(line: 16, column: 21, scope: !566)
!575 = !{!576, !576, i64 0}
!576 = !{!"any pointer", !577, i64 0}
!577 = !{!"omnipotent char", !578, i64 0}
!578 = !{!"Simple C++ TBAA"}
!579 = !DILocation(line: 16, column: 28, scope: !566)
!580 = !{!581, !581, i64 0}
!581 = !{!"int", !577, i64 0}
!582 = !DILocation(line: 16, column: 44, scope: !566)
!583 = !DILocation(line: 17, column: 1, scope: !566)
!584 = !DILocation(line: 17, column: 1, scope: !585)
!585 = !DILexicalBlockFile(scope: !566, file: !1, discriminator: 1)
!586 = !DILocation(line: 17, column: 1, scope: !587)
!587 = !DILexicalBlockFile(scope: !566, file: !1, discriminator: 2)
!588 = !DILocation(line: 17, column: 1, scope: !589)
!589 = !DILexicalBlockFile(scope: !566, file: !1, discriminator: 3)
!590 = !DILocation(line: 55, column: 1, scope: !566)
!591 = distinct !DISubprogram(name: "lud_perimeter", linkageName: "_Z13lud_perimeterPfii", scope: !1, file: !1, line: 58, type: !567, isLocal: false, isDefinition: true, scopeLine: 59, flags: DIFlagPrototyped, isOptimized: true, unit: !0, variables: !592)
!592 = !{!593, !594, !595}
!593 = !DILocalVariable(name: "m", arg: 1, scope: !591, file: !1, line: 58, type: !4)
!594 = !DILocalVariable(name: "matrix_dim", arg: 2, scope: !591, file: !1, line: 58, type: !72)
!595 = !DILocalVariable(name: "offset", arg: 3, scope: !591, file: !1, line: 58, type: !72)
!596 = !DILocation(line: 58, column: 22, scope: !591)
!597 = !DILocation(line: 58, column: 29, scope: !591)
!598 = !DILocation(line: 58, column: 45, scope: !591)
!599 = !DILocation(line: 59, column: 1, scope: !591)
!600 = !DILocation(line: 59, column: 1, scope: !601)
!601 = !DILexicalBlockFile(scope: !591, file: !1, discriminator: 1)
!602 = !DILocation(line: 59, column: 1, scope: !603)
!603 = !DILexicalBlockFile(scope: !591, file: !1, discriminator: 2)
!604 = !DILocation(line: 59, column: 1, scope: !605)
!605 = !DILexicalBlockFile(scope: !591, file: !1, discriminator: 3)
!606 = !DILocation(line: 165, column: 1, scope: !591)
!607 = distinct !DISubprogram(name: "lud_internal", linkageName: "_Z12lud_internalPfii", scope: !1, file: !1, line: 168, type: !567, isLocal: false, isDefinition: true, scopeLine: 169, flags: DIFlagPrototyped, isOptimized: true, unit: !0, variables: !608)
!608 = !{!609, !610, !611}
!609 = !DILocalVariable(name: "m", arg: 1, scope: !607, file: !1, line: 168, type: !4)
!610 = !DILocalVariable(name: "matrix_dim", arg: 2, scope: !607, file: !1, line: 168, type: !72)
!611 = !DILocalVariable(name: "offset", arg: 3, scope: !607, file: !1, line: 168, type: !72)
!612 = !DILocation(line: 168, column: 21, scope: !607)
!613 = !DILocation(line: 168, column: 28, scope: !607)
!614 = !DILocation(line: 168, column: 44, scope: !607)
!615 = !DILocation(line: 169, column: 1, scope: !607)
!616 = !DILocation(line: 169, column: 1, scope: !617)
!617 = !DILexicalBlockFile(scope: !607, file: !1, discriminator: 1)
!618 = !DILocation(line: 169, column: 1, scope: !619)
!619 = !DILexicalBlockFile(scope: !607, file: !1, discriminator: 2)
!620 = !DILocation(line: 169, column: 1, scope: !621)
!621 = !DILexicalBlockFile(scope: !607, file: !1, discriminator: 3)
!622 = !DILocation(line: 190, column: 1, scope: !607)
!623 = distinct !DISubprogram(name: "lud_cuda", linkageName: "_Z8lud_cudaPfi", scope: !1, file: !1, line: 193, type: !624, isLocal: false, isDefinition: true, scopeLine: 194, flags: DIFlagPrototyped, isOptimized: true, unit: !0, variables: !626)
!624 = !DISubroutineType(types: !625)
!625 = !{null, !4, !72}
!626 = !{!627, !628, !629, !630, !654, !655}
!627 = !DILocalVariable(name: "m", arg: 1, scope: !623, file: !1, line: 193, type: !4)
!628 = !DILocalVariable(name: "matrix_dim", arg: 2, scope: !623, file: !1, line: 193, type: !72)
!629 = !DILocalVariable(name: "i", scope: !623, file: !1, line: 195, type: !72)
!630 = !DILocalVariable(name: "dimBlock", scope: !623, file: !1, line: 196, type: !631)
!631 = !DIDerivedType(tag: DW_TAG_typedef, name: "dim3", file: !632, line: 427, baseType: !633)
!632 = !DIFile(filename: "/usr/local/cuda/include/vector_types.h", directory: "/home/ec2-user/DynamicAnalyis")
!633 = distinct !DICompositeType(tag: DW_TAG_structure_type, name: "dim3", file: !632, line: 417, size: 96, align: 32, elements: !634, identifier: "_ZTS4dim3")
!634 = !{!635, !636, !637, !638, !642, !651}
!635 = !DIDerivedType(tag: DW_TAG_member, name: "x", scope: !633, file: !632, line: 419, baseType: !367, size: 32, align: 32)
!636 = !DIDerivedType(tag: DW_TAG_member, name: "y", scope: !633, file: !632, line: 419, baseType: !367, size: 32, align: 32, offset: 32)
!637 = !DIDerivedType(tag: DW_TAG_member, name: "z", scope: !633, file: !632, line: 419, baseType: !367, size: 32, align: 32, offset: 64)
!638 = !DISubprogram(name: "dim3", scope: !633, file: !632, line: 421, type: !639, isLocal: false, isDefinition: false, scopeLine: 421, flags: DIFlagPrototyped, isOptimized: true)
!639 = !DISubroutineType(types: !640)
!640 = !{null, !641, !367, !367, !367}
!641 = !DIDerivedType(tag: DW_TAG_pointer_type, baseType: !633, size: 64, align: 64, flags: DIFlagArtificial | DIFlagObjectPointer)
!642 = !DISubprogram(name: "dim3", scope: !633, file: !632, line: 422, type: !643, isLocal: false, isDefinition: false, scopeLine: 422, flags: DIFlagPrototyped, isOptimized: true)
!643 = !DISubroutineType(types: !644)
!644 = !{null, !641, !645}
!645 = !DIDerivedType(tag: DW_TAG_typedef, name: "uint3", file: !632, line: 383, baseType: !646)
!646 = distinct !DICompositeType(tag: DW_TAG_structure_type, name: "uint3", file: !632, line: 190, size: 96, align: 32, elements: !647, identifier: "_ZTS5uint3")
!647 = !{!648, !649, !650}
!648 = !DIDerivedType(tag: DW_TAG_member, name: "x", scope: !646, file: !632, line: 192, baseType: !367, size: 32, align: 32)
!649 = !DIDerivedType(tag: DW_TAG_member, name: "y", scope: !646, file: !632, line: 192, baseType: !367, size: 32, align: 32, offset: 32)
!650 = !DIDerivedType(tag: DW_TAG_member, name: "z", scope: !646, file: !632, line: 192, baseType: !367, size: 32, align: 32, offset: 64)
!651 = !DISubprogram(name: "operator uint3", linkageName: "_ZN4dim3cv5uint3Ev", scope: !633, file: !632, line: 423, type: !652, isLocal: false, isDefinition: false, scopeLine: 423, flags: DIFlagPrototyped, isOptimized: true)
!652 = !DISubroutineType(types: !653)
!653 = !{!645, !641}
!654 = !DILocalVariable(name: "m_debug", scope: !623, file: !1, line: 197, type: !4)
!655 = !DILocalVariable(name: "dimGrid", scope: !656, file: !1, line: 202, type: !631)
!656 = distinct !DILexicalBlock(scope: !657, file: !1, line: 199, column: 57)
!657 = distinct !DILexicalBlock(scope: !658, file: !1, line: 199, column: 3)
!658 = distinct !DILexicalBlock(scope: !623, file: !1, line: 199, column: 3)
!659 = !DILocation(line: 193, column: 22, scope: !623)
!660 = !DILocation(line: 193, column: 29, scope: !623)
!661 = !DILocation(line: 195, column: 7, scope: !623)
!662 = !DIExpression(DW_OP_deref)
!663 = !DILocation(line: 196, column: 8, scope: !623)
!664 = !DILocalVariable(name: "this", arg: 1, scope: !665, type: !670, flags: DIFlagArtificial | DIFlagObjectPointer)
!665 = distinct !DISubprogram(name: "dim3", linkageName: "_ZN4dim3C2Ejjj", scope: !633, file: !632, line: 421, type: !639, isLocal: false, isDefinition: true, scopeLine: 421, flags: DIFlagPrototyped, isOptimized: true, unit: !0, declaration: !638, variables: !666)
!666 = !{!664, !667, !668, !669}
!667 = !DILocalVariable(name: "vx", arg: 2, scope: !665, file: !632, line: 421, type: !367)
!668 = !DILocalVariable(name: "vy", arg: 3, scope: !665, file: !632, line: 421, type: !367)
!669 = !DILocalVariable(name: "vz", arg: 4, scope: !665, file: !632, line: 421, type: !367)
!670 = !DIDerivedType(tag: DW_TAG_pointer_type, baseType: !633, size: 64, align: 64)
!671 = !DILocation(line: 0, scope: !665, inlinedAt: !672)
!672 = distinct !DILocation(line: 196, column: 8, scope: !623)
!673 = !DILocation(line: 421, column: 43, scope: !665, inlinedAt: !672)
!674 = !DILocation(line: 421, column: 64, scope: !665, inlinedAt: !672)
!675 = !DILocation(line: 421, column: 85, scope: !665, inlinedAt: !672)
!676 = !DILocation(line: 199, column: 27, scope: !677)
!677 = !DILexicalBlockFile(scope: !657, file: !1, discriminator: 1)
!678 = !DILocation(line: 199, column: 15, scope: !677)
!679 = !DILocation(line: 0, scope: !665, inlinedAt: !680)
!680 = distinct !DILocation(line: 200, column: 22, scope: !656)
!681 = !DILocation(line: 421, column: 43, scope: !665, inlinedAt: !680)
!682 = !DILocation(line: 421, column: 64, scope: !665, inlinedAt: !680)
!683 = !DILocation(line: 421, column: 85, scope: !665, inlinedAt: !680)
!684 = !DILocation(line: 0, scope: !665, inlinedAt: !685)
!685 = distinct !DILocation(line: 200, column: 25, scope: !686)
!686 = !DILexicalBlockFile(scope: !656, file: !1, discriminator: 2)
!687 = !DILocation(line: 421, column: 43, scope: !665, inlinedAt: !685)
!688 = !DILocation(line: 421, column: 64, scope: !665, inlinedAt: !685)
!689 = !DILocation(line: 421, column: 85, scope: !665, inlinedAt: !685)
!690 = !DILocation(line: 200, column: 19, scope: !691)
!691 = !DILexicalBlockFile(scope: !656, file: !1, discriminator: 3)
!692 = !DILocation(line: 200, column: 19, scope: !656)
!693 = !DILocation(line: 199, column: 3, scope: !677)
!694 = !DILocation(line: 16, column: 21, scope: !566, inlinedAt: !695)
!695 = distinct !DILocation(line: 200, column: 7, scope: !696)
!696 = !DILexicalBlockFile(scope: !656, file: !1, discriminator: 1)
!697 = !DILocation(line: 58, column: 22, scope: !591, inlinedAt: !698)
!698 = distinct !DILocation(line: 201, column: 7, scope: !696)
!699 = !DILocation(line: 168, column: 21, scope: !607, inlinedAt: !700)
!700 = distinct !DILocation(line: 203, column: 7, scope: !696)
!701 = !DILocation(line: 200, column: 7, scope: !656)
!702 = !DILocation(line: 200, column: 7, scope: !696)
!703 = !DILocation(line: 16, column: 28, scope: !566, inlinedAt: !695)
!704 = !DILocation(line: 16, column: 44, scope: !566, inlinedAt: !695)
!705 = !DILocation(line: 17, column: 1, scope: !566, inlinedAt: !695)
!706 = !DILocation(line: 17, column: 1, scope: !585, inlinedAt: !695)
!707 = !DILocation(line: 17, column: 1, scope: !587, inlinedAt: !695)
!708 = !DILocation(line: 17, column: 1, scope: !589, inlinedAt: !695)
!709 = !DILocation(line: 55, column: 1, scope: !566, inlinedAt: !695)
!710 = !DILocation(line: 201, column: 34, scope: !656)
!711 = !DILocation(line: 201, column: 37, scope: !656)
!712 = !DILocation(line: 201, column: 48, scope: !656)
!713 = !DILocation(line: 0, scope: !665, inlinedAt: !714)
!714 = distinct !DILocation(line: 201, column: 23, scope: !656)
!715 = !DILocation(line: 421, column: 43, scope: !665, inlinedAt: !714)
!716 = !DILocation(line: 421, column: 64, scope: !665, inlinedAt: !714)
!717 = !DILocation(line: 421, column: 85, scope: !665, inlinedAt: !714)
!718 = !DILocation(line: 421, column: 95, scope: !665, inlinedAt: !714)
!719 = !DILocation(line: 421, column: 102, scope: !665, inlinedAt: !714)
!720 = !DILocation(line: 0, scope: !665, inlinedAt: !721)
!721 = distinct !DILocation(line: 201, column: 52, scope: !686)
!722 = !DILocation(line: 421, column: 43, scope: !665, inlinedAt: !721)
!723 = !DILocation(line: 421, column: 64, scope: !665, inlinedAt: !721)
!724 = !DILocation(line: 421, column: 85, scope: !665, inlinedAt: !721)
!725 = !DILocation(line: 201, column: 20, scope: !691)
!726 = !DILocation(line: 201, column: 20, scope: !656)
!727 = !DILocation(line: 201, column: 7, scope: !656)
!728 = !DILocation(line: 201, column: 7, scope: !696)
!729 = !DILocation(line: 58, column: 29, scope: !591, inlinedAt: !698)
!730 = !DILocation(line: 58, column: 45, scope: !591, inlinedAt: !698)
!731 = !DILocation(line: 59, column: 1, scope: !591, inlinedAt: !698)
!732 = !DILocation(line: 59, column: 1, scope: !601, inlinedAt: !698)
!733 = !DILocation(line: 59, column: 1, scope: !603, inlinedAt: !698)
!734 = !DILocation(line: 59, column: 1, scope: !605, inlinedAt: !698)
!735 = !DILocation(line: 165, column: 1, scope: !591, inlinedAt: !698)
!736 = !DILocation(line: 202, column: 12, scope: !656)
!737 = !DILocation(line: 0, scope: !665, inlinedAt: !738)
!738 = distinct !DILocation(line: 202, column: 12, scope: !656)
!739 = !DILocation(line: 421, column: 43, scope: !665, inlinedAt: !738)
!740 = !DILocation(line: 421, column: 64, scope: !665, inlinedAt: !738)
!741 = !DILocation(line: 421, column: 85, scope: !665, inlinedAt: !738)
!742 = !DILocation(line: 203, column: 22, scope: !656)
!743 = !DILocation(line: 203, column: 19, scope: !656)
!744 = !DILocation(line: 203, column: 7, scope: !656)
!745 = !DILocation(line: 203, column: 7, scope: !696)
!746 = !DILocation(line: 168, column: 28, scope: !607, inlinedAt: !700)
!747 = !DILocation(line: 168, column: 44, scope: !607, inlinedAt: !700)
!748 = !DILocation(line: 169, column: 1, scope: !607, inlinedAt: !700)
!749 = !DILocation(line: 169, column: 1, scope: !617, inlinedAt: !700)
!750 = !DILocation(line: 169, column: 1, scope: !619, inlinedAt: !700)
!751 = !DILocation(line: 169, column: 1, scope: !621, inlinedAt: !700)
!752 = !DILocation(line: 190, column: 1, scope: !607, inlinedAt: !700)
!753 = !DILocation(line: 199, column: 42, scope: !754)
!754 = !DILexicalBlockFile(scope: !657, file: !1, discriminator: 2)
!755 = distinct !{!755, !756}
!756 = !DILocation(line: 199, column: 3, scope: !623)
!757 = !DILocation(line: 205, column: 3, scope: !623)
!758 = !DILocation(line: 16, column: 21, scope: !566, inlinedAt: !759)
!759 = distinct !DILocation(line: 205, column: 3, scope: !760)
!760 = !DILexicalBlockFile(scope: !623, file: !1, discriminator: 1)
!761 = !DILocation(line: 205, column: 3, scope: !760)
!762 = !DILocation(line: 16, column: 28, scope: !566, inlinedAt: !759)
!763 = !DILocation(line: 16, column: 44, scope: !566, inlinedAt: !759)
!764 = !DILocation(line: 17, column: 1, scope: !566, inlinedAt: !759)
!765 = !DILocation(line: 17, column: 1, scope: !585, inlinedAt: !759)
!766 = !DILocation(line: 17, column: 1, scope: !587, inlinedAt: !759)
!767 = !DILocation(line: 17, column: 1, scope: !589, inlinedAt: !759)
!768 = !DILocation(line: 55, column: 1, scope: !566, inlinedAt: !759)
!769 = !DILocation(line: 206, column: 1, scope: !623)
